ARM GAS  C:\Users\hkmnt\AppData\Local\Temp\ccBdSSuH.s 			page 1


   1              		.syntax unified
   2              		.cpu cortex-m4
   3              		.eabi_attribute 27, 1
   4              		.fpu fpv4-sp-d16
   5              		.eabi_attribute 20, 1
   6              		.eabi_attribute 21, 1
   7              		.eabi_attribute 23, 3
   8              		.eabi_attribute 24, 1
   9              		.eabi_attribute 25, 1
  10              		.eabi_attribute 26, 1
  11              		.eabi_attribute 30, 1
  12              		.eabi_attribute 34, 1
  13              		.eabi_attribute 18, 4
  14              		.thumb
  15              		.syntax unified
  16              		.file	"cy_ble_event_handler.c"
  17              		.text
  18              	.Ltext0:
  19              		.cfi_sections	.debug_frame
  20              		.section	.text.Cy_BLE_SendWriteResponse,"ax",%progbits
  21              		.align	2
  22              		.thumb
  23              		.thumb_func
  24              		.type	Cy_BLE_SendWriteResponse, %function
  25              	Cy_BLE_SendWriteResponse:
  26              	.LFB257:
  27              		.file 1 "Generated_Source\\PSoC6\\pdl\\middleware\\ble\\cy_ble_event_handler.c"
   1:Generated_Source\PSoC6\pdl\middleware\ble/cy_ble_event_handler.c **** /***************************************************************************//**
   2:Generated_Source\PSoC6\pdl\middleware\ble/cy_ble_event_handler.c **** * \file cy_ble_event_handler.c
   3:Generated_Source\PSoC6\pdl\middleware\ble/cy_ble_event_handler.c **** * \version 2.60
   4:Generated_Source\PSoC6\pdl\middleware\ble/cy_ble_event_handler.c **** *
   5:Generated_Source\PSoC6\pdl\middleware\ble/cy_ble_event_handler.c **** * \brief
   6:Generated_Source\PSoC6\pdl\middleware\ble/cy_ble_event_handler.c **** *  This file contains the source code for the Event Handler State Machine
   7:Generated_Source\PSoC6\pdl\middleware\ble/cy_ble_event_handler.c **** *  of the BLE Middleware.
   8:Generated_Source\PSoC6\pdl\middleware\ble/cy_ble_event_handler.c **** *
   9:Generated_Source\PSoC6\pdl\middleware\ble/cy_ble_event_handler.c **** ********************************************************************************
  10:Generated_Source\PSoC6\pdl\middleware\ble/cy_ble_event_handler.c **** * \copyright
  11:Generated_Source\PSoC6\pdl\middleware\ble/cy_ble_event_handler.c **** * Copyright 2017-2020, Cypress Semiconductor Corporation.  All rights reserved.
  12:Generated_Source\PSoC6\pdl\middleware\ble/cy_ble_event_handler.c **** * You may use this file only in accordance with the license, terms, conditions,
  13:Generated_Source\PSoC6\pdl\middleware\ble/cy_ble_event_handler.c **** * disclaimers, and limitations in the end user license agreement accompanying
  14:Generated_Source\PSoC6\pdl\middleware\ble/cy_ble_event_handler.c **** * the software package with which this file was provided.
  15:Generated_Source\PSoC6\pdl\middleware\ble/cy_ble_event_handler.c **** *******************************************************************************/
  16:Generated_Source\PSoC6\pdl\middleware\ble/cy_ble_event_handler.c **** 
  17:Generated_Source\PSoC6\pdl\middleware\ble/cy_ble_event_handler.c **** #include "cy_ble_event_handler.h"
  18:Generated_Source\PSoC6\pdl\middleware\ble/cy_ble_event_handler.c **** 
  19:Generated_Source\PSoC6\pdl\middleware\ble/cy_ble_event_handler.c **** /* C binding of definitions if building with C++ compiler */
  20:Generated_Source\PSoC6\pdl\middleware\ble/cy_ble_event_handler.c **** #ifdef __cplusplus
  21:Generated_Source\PSoC6\pdl\middleware\ble/cy_ble_event_handler.c **** extern "C" {
  22:Generated_Source\PSoC6\pdl\middleware\ble/cy_ble_event_handler.c **** #endif /* __cplusplus */
  23:Generated_Source\PSoC6\pdl\middleware\ble/cy_ble_event_handler.c **** 
  24:Generated_Source\PSoC6\pdl\middleware\ble/cy_ble_event_handler.c **** #if (CY_BLE_MODE_PROFILE)
  25:Generated_Source\PSoC6\pdl\middleware\ble/cy_ble_event_handler.c **** 
  26:Generated_Source\PSoC6\pdl\middleware\ble/cy_ble_event_handler.c **** /***************************************
  27:Generated_Source\PSoC6\pdl\middleware\ble/cy_ble_event_handler.c **** * Private Function Prototypes
  28:Generated_Source\PSoC6\pdl\middleware\ble/cy_ble_event_handler.c **** ***************************************/
  29:Generated_Source\PSoC6\pdl\middleware\ble/cy_ble_event_handler.c **** 
  30:Generated_Source\PSoC6\pdl\middleware\ble/cy_ble_event_handler.c **** static void Cy_BLE_TimeOutEventHandler(const cy_stc_ble_timeout_param_t *eventParam);
ARM GAS  C:\Users\hkmnt\AppData\Local\Temp\ccBdSSuH.s 			page 2


  31:Generated_Source\PSoC6\pdl\middleware\ble/cy_ble_event_handler.c **** 
  32:Generated_Source\PSoC6\pdl\middleware\ble/cy_ble_event_handler.c **** #if (CY_BLE_GATT_ROLE_SERVER)
  33:Generated_Source\PSoC6\pdl\middleware\ble/cy_ble_event_handler.c **** static void Cy_BLE_SendWriteResponse(const cy_stc_ble_gatts_write_cmd_req_param_t *eventParam,
  34:Generated_Source\PSoC6\pdl\middleware\ble/cy_ble_event_handler.c ****                                      cy_en_ble_gatt_err_code_t gattErr);
  35:Generated_Source\PSoC6\pdl\middleware\ble/cy_ble_event_handler.c **** #endif /* CY_BLE_GATT_ROLE_SERVER */
  36:Generated_Source\PSoC6\pdl\middleware\ble/cy_ble_event_handler.c **** 
  37:Generated_Source\PSoC6\pdl\middleware\ble/cy_ble_event_handler.c **** #if (CY_BLE_GATT_ROLE_CLIENT)
  38:Generated_Source\PSoC6\pdl\middleware\ble/cy_ble_event_handler.c **** static void Cy_BLE_GAPC_DiscoverCharacteristicsEventHandler(cy_stc_ble_disc_char_info_t *discCharIn
  39:Generated_Source\PSoC6\pdl\middleware\ble/cy_ble_event_handler.c **** #endif /* CY_BLE_GATT_ROLE_CLIENT */
  40:Generated_Source\PSoC6\pdl\middleware\ble/cy_ble_event_handler.c **** 
  41:Generated_Source\PSoC6\pdl\middleware\ble/cy_ble_event_handler.c **** 
  42:Generated_Source\PSoC6\pdl\middleware\ble/cy_ble_event_handler.c **** /***************************************
  43:Generated_Source\PSoC6\pdl\middleware\ble/cy_ble_event_handler.c **** * Global Variables
  44:Generated_Source\PSoC6\pdl\middleware\ble/cy_ble_event_handler.c **** ***************************************/
  45:Generated_Source\PSoC6\pdl\middleware\ble/cy_ble_event_handler.c **** volatile uint8_t cy_ble_busyStatus[CY_BLE_CONN_COUNT];
  46:Generated_Source\PSoC6\pdl\middleware\ble/cy_ble_event_handler.c **** volatile uint8_t cy_ble_eventHandlerFlag;
  47:Generated_Source\PSoC6\pdl\middleware\ble/cy_ble_event_handler.c **** volatile uint32_t cy_ble_cmdStatus;
  48:Generated_Source\PSoC6\pdl\middleware\ble/cy_ble_event_handler.c **** 
  49:Generated_Source\PSoC6\pdl\middleware\ble/cy_ble_event_handler.c **** #if (CY_BLE_GAP_ROLE_PERIPHERAL || CY_BLE_GAP_ROLE_BROADCASTER)
  50:Generated_Source\PSoC6\pdl\middleware\ble/cy_ble_event_handler.c **** uint8_t cy_ble_advertisingIntervalType;
  51:Generated_Source\PSoC6\pdl\middleware\ble/cy_ble_event_handler.c **** #endif /* CY_BLE_GAP_ROLE_PERIPHERAL || CY_BLE_GAP_ROLE_BROADCASTER) */
  52:Generated_Source\PSoC6\pdl\middleware\ble/cy_ble_event_handler.c **** 
  53:Generated_Source\PSoC6\pdl\middleware\ble/cy_ble_event_handler.c **** #if (CY_BLE_GAP_ROLE_CENTRAL || CY_BLE_GAP_ROLE_OBSERVER)
  54:Generated_Source\PSoC6\pdl\middleware\ble/cy_ble_event_handler.c **** uint8_t cy_ble_scanningIntervalType;
  55:Generated_Source\PSoC6\pdl\middleware\ble/cy_ble_event_handler.c **** #endif /* CY_BLE_GAP_ROLE_CENTRAL || CY_BLE_GAP_ROLE_OBSERVER */
  56:Generated_Source\PSoC6\pdl\middleware\ble/cy_ble_event_handler.c **** 
  57:Generated_Source\PSoC6\pdl\middleware\ble/cy_ble_event_handler.c **** #if (CY_BLE_GATT_ROLE_CLIENT)
  58:Generated_Source\PSoC6\pdl\middleware\ble/cy_ble_event_handler.c **** cy_stc_ble_discovery_t cy_ble_discovery[CY_BLE_GATTC_COUNT];
  59:Generated_Source\PSoC6\pdl\middleware\ble/cy_ble_event_handler.c **** cy_stc_ble_disc_srvc_info_t cy_ble_serverInfo[CY_BLE_GATTC_COUNT][CY_BLE_SRVI_COUNT];
  60:Generated_Source\PSoC6\pdl\middleware\ble/cy_ble_event_handler.c **** #endif /* CY_BLE_GATT_ROLE_CLIENT */
  61:Generated_Source\PSoC6\pdl\middleware\ble/cy_ble_event_handler.c **** 
  62:Generated_Source\PSoC6\pdl\middleware\ble/cy_ble_event_handler.c **** #if (CY_BLE_GAP_ROLE_PERIPHERAL || CY_BLE_GAP_ROLE_CENTRAL)
  63:Generated_Source\PSoC6\pdl\middleware\ble/cy_ble_event_handler.c **** cy_stc_ble_event_handler_t cy_ble_eventHandler;
  64:Generated_Source\PSoC6\pdl\middleware\ble/cy_ble_event_handler.c **** 
  65:Generated_Source\PSoC6\pdl\middleware\ble/cy_ble_event_handler.c **** 
  66:Generated_Source\PSoC6\pdl\middleware\ble/cy_ble_event_handler.c **** /******************************************************************************
  67:Generated_Source\PSoC6\pdl\middleware\ble/cy_ble_event_handler.c **** * Function Name: Cy_BLE_RegisterServiceEventHandler
  68:Generated_Source\PSoC6\pdl\middleware\ble/cy_ble_event_handler.c **** ***************************************************************************//**
  69:Generated_Source\PSoC6\pdl\middleware\ble/cy_ble_event_handler.c **** *
  70:Generated_Source\PSoC6\pdl\middleware\ble/cy_ble_event_handler.c **** *  Registration Service Event Handler
  71:Generated_Source\PSoC6\pdl\middleware\ble/cy_ble_event_handler.c **** *
  72:Generated_Source\PSoC6\pdl\middleware\ble/cy_ble_event_handler.c **** *  \param  eventHandlerFunc: The pointer to the callback procedure.
  73:Generated_Source\PSoC6\pdl\middleware\ble/cy_ble_event_handler.c **** *
  74:Generated_Source\PSoC6\pdl\middleware\ble/cy_ble_event_handler.c **** *  \return
  75:Generated_Source\PSoC6\pdl\middleware\ble/cy_ble_event_handler.c **** *  cy_en_ble_api_result_t : Return value indicates if the function succeeded or
  76:Generated_Source\PSoC6\pdl\middleware\ble/cy_ble_event_handler.c **** *  failed. The following are possible error codes.
  77:Generated_Source\PSoC6\pdl\middleware\ble/cy_ble_event_handler.c **** *
  78:Generated_Source\PSoC6\pdl\middleware\ble/cy_ble_event_handler.c **** *   Error Codes                           | Description
  79:Generated_Source\PSoC6\pdl\middleware\ble/cy_ble_event_handler.c **** *   ------------                          | -----------
  80:Generated_Source\PSoC6\pdl\middleware\ble/cy_ble_event_handler.c **** *   CY_BLE_SUCCESS                        | The function completed successfully.
  81:Generated_Source\PSoC6\pdl\middleware\ble/cy_ble_event_handler.c **** *   CY_BLE_ERROR_INVALID_PARAMETER        | On specifying NULL as input parameter.
  82:Generated_Source\PSoC6\pdl\middleware\ble/cy_ble_event_handler.c **** *   CY_BLE_ERROR_MEMORY_ALLOCATION_FAILED | Buffer overflow in the registration callback.
  83:Generated_Source\PSoC6\pdl\middleware\ble/cy_ble_event_handler.c **** *
  84:Generated_Source\PSoC6\pdl\middleware\ble/cy_ble_event_handler.c **** ******************************************************************************/
  85:Generated_Source\PSoC6\pdl\middleware\ble/cy_ble_event_handler.c **** cy_en_ble_api_result_t Cy_BLE_RegisterServiceEventHandler(cy_ble_event_handle_t eventHandlerFunc)
  86:Generated_Source\PSoC6\pdl\middleware\ble/cy_ble_event_handler.c **** {
  87:Generated_Source\PSoC6\pdl\middleware\ble/cy_ble_event_handler.c ****     cy_en_ble_api_result_t apiResult = CY_BLE_SUCCESS;
ARM GAS  C:\Users\hkmnt\AppData\Local\Temp\ccBdSSuH.s 			page 3


  88:Generated_Source\PSoC6\pdl\middleware\ble/cy_ble_event_handler.c ****     uint8_t existFlag = 0u;
  89:Generated_Source\PSoC6\pdl\middleware\ble/cy_ble_event_handler.c **** 
  90:Generated_Source\PSoC6\pdl\middleware\ble/cy_ble_event_handler.c ****     if(eventHandlerFunc == NULL)
  91:Generated_Source\PSoC6\pdl\middleware\ble/cy_ble_event_handler.c ****     {
  92:Generated_Source\PSoC6\pdl\middleware\ble/cy_ble_event_handler.c ****         apiResult = CY_BLE_ERROR_INVALID_PARAMETER;
  93:Generated_Source\PSoC6\pdl\middleware\ble/cy_ble_event_handler.c ****     }
  94:Generated_Source\PSoC6\pdl\middleware\ble/cy_ble_event_handler.c ****     else
  95:Generated_Source\PSoC6\pdl\middleware\ble/cy_ble_event_handler.c ****     {
  96:Generated_Source\PSoC6\pdl\middleware\ble/cy_ble_event_handler.c ****         /* Check if eventHandlerFunc has been already registered */
  97:Generated_Source\PSoC6\pdl\middleware\ble/cy_ble_event_handler.c ****         uint32_t idx;
  98:Generated_Source\PSoC6\pdl\middleware\ble/cy_ble_event_handler.c ****         for(idx = 0u; (idx < cy_ble_eventHandler.count) && (existFlag == 0u); idx++)
  99:Generated_Source\PSoC6\pdl\middleware\ble/cy_ble_event_handler.c ****         {
 100:Generated_Source\PSoC6\pdl\middleware\ble/cy_ble_event_handler.c ****             if(cy_ble_eventHandler.serviceEventHandler[idx] == eventHandlerFunc)
 101:Generated_Source\PSoC6\pdl\middleware\ble/cy_ble_event_handler.c ****             {
 102:Generated_Source\PSoC6\pdl\middleware\ble/cy_ble_event_handler.c ****                 existFlag = 1u;
 103:Generated_Source\PSoC6\pdl\middleware\ble/cy_ble_event_handler.c ****             }
 104:Generated_Source\PSoC6\pdl\middleware\ble/cy_ble_event_handler.c ****         }
 105:Generated_Source\PSoC6\pdl\middleware\ble/cy_ble_event_handler.c ****     }
 106:Generated_Source\PSoC6\pdl\middleware\ble/cy_ble_event_handler.c ****     /* Register eventHandlerFunc callback */
 107:Generated_Source\PSoC6\pdl\middleware\ble/cy_ble_event_handler.c ****     if((apiResult == CY_BLE_SUCCESS) && (existFlag == 0u))
 108:Generated_Source\PSoC6\pdl\middleware\ble/cy_ble_event_handler.c ****     {
 109:Generated_Source\PSoC6\pdl\middleware\ble/cy_ble_event_handler.c ****         if(cy_ble_eventHandler.count < CY_BLE_MAX_SRVI)
 110:Generated_Source\PSoC6\pdl\middleware\ble/cy_ble_event_handler.c ****         {
 111:Generated_Source\PSoC6\pdl\middleware\ble/cy_ble_event_handler.c ****             cy_ble_eventHandler.serviceEventHandler[cy_ble_eventHandler.count] = eventHandlerFunc;
 112:Generated_Source\PSoC6\pdl\middleware\ble/cy_ble_event_handler.c ****             cy_ble_eventHandler.count += 1u;
 113:Generated_Source\PSoC6\pdl\middleware\ble/cy_ble_event_handler.c ****         }
 114:Generated_Source\PSoC6\pdl\middleware\ble/cy_ble_event_handler.c ****         else
 115:Generated_Source\PSoC6\pdl\middleware\ble/cy_ble_event_handler.c ****         {
 116:Generated_Source\PSoC6\pdl\middleware\ble/cy_ble_event_handler.c ****             apiResult = CY_BLE_ERROR_MEMORY_ALLOCATION_FAILED;
 117:Generated_Source\PSoC6\pdl\middleware\ble/cy_ble_event_handler.c ****         }
 118:Generated_Source\PSoC6\pdl\middleware\ble/cy_ble_event_handler.c ****     }
 119:Generated_Source\PSoC6\pdl\middleware\ble/cy_ble_event_handler.c **** 
 120:Generated_Source\PSoC6\pdl\middleware\ble/cy_ble_event_handler.c ****     return(apiResult);
 121:Generated_Source\PSoC6\pdl\middleware\ble/cy_ble_event_handler.c **** }
 122:Generated_Source\PSoC6\pdl\middleware\ble/cy_ble_event_handler.c **** 
 123:Generated_Source\PSoC6\pdl\middleware\ble/cy_ble_event_handler.c **** /******************************************************************************
 124:Generated_Source\PSoC6\pdl\middleware\ble/cy_ble_event_handler.c **** * Function Name: Cy_BLE_InvokeServiceEventHandler
 125:Generated_Source\PSoC6\pdl\middleware\ble/cy_ble_event_handler.c **** ***************************************************************************//**
 126:Generated_Source\PSoC6\pdl\middleware\ble/cy_ble_event_handler.c **** *
 127:Generated_Source\PSoC6\pdl\middleware\ble/cy_ble_event_handler.c **** *  Invoke registered service event handlers.
 128:Generated_Source\PSoC6\pdl\middleware\ble/cy_ble_event_handler.c **** *
 129:Generated_Source\PSoC6\pdl\middleware\ble/cy_ble_event_handler.c **** *  \param eventCode:   The event code.
 130:Generated_Source\PSoC6\pdl\middleware\ble/cy_ble_event_handler.c **** *  \param eventParam:  The event parameters.
 131:Generated_Source\PSoC6\pdl\middleware\ble/cy_ble_event_handler.c **** *
 132:Generated_Source\PSoC6\pdl\middleware\ble/cy_ble_event_handler.c **** * \return
 133:Generated_Source\PSoC6\pdl\middleware\ble/cy_ble_event_handler.c **** *  A return value of type cy_en_ble_gatt_err_code_t.
 134:Generated_Source\PSoC6\pdl\middleware\ble/cy_ble_event_handler.c **** *
 135:Generated_Source\PSoC6\pdl\middleware\ble/cy_ble_event_handler.c **** ******************************************************************************/
 136:Generated_Source\PSoC6\pdl\middleware\ble/cy_ble_event_handler.c **** cy_en_ble_gatt_err_code_t Cy_BLE_InvokeServiceEventHandler(uint32_t eventCode,
 137:Generated_Source\PSoC6\pdl\middleware\ble/cy_ble_event_handler.c ****                                                            void *eventParam)
 138:Generated_Source\PSoC6\pdl\middleware\ble/cy_ble_event_handler.c **** {
 139:Generated_Source\PSoC6\pdl\middleware\ble/cy_ble_event_handler.c ****     uint32_t idx;
 140:Generated_Source\PSoC6\pdl\middleware\ble/cy_ble_event_handler.c ****     cy_en_ble_gatt_err_code_t gattErr = CY_BLE_GATT_ERR_NONE;
 141:Generated_Source\PSoC6\pdl\middleware\ble/cy_ble_event_handler.c **** 
 142:Generated_Source\PSoC6\pdl\middleware\ble/cy_ble_event_handler.c ****     for(idx = 0u; (idx < cy_ble_eventHandler.count) && ((cy_ble_eventHandlerFlag & CY_BLE_CALLBACK)
 143:Generated_Source\PSoC6\pdl\middleware\ble/cy_ble_event_handler.c ****     {
 144:Generated_Source\PSoC6\pdl\middleware\ble/cy_ble_event_handler.c ****         gattErr = cy_ble_eventHandler.serviceEventHandler[idx](eventCode, eventParam);
ARM GAS  C:\Users\hkmnt\AppData\Local\Temp\ccBdSSuH.s 			page 4


 145:Generated_Source\PSoC6\pdl\middleware\ble/cy_ble_event_handler.c ****     }
 146:Generated_Source\PSoC6\pdl\middleware\ble/cy_ble_event_handler.c **** 
 147:Generated_Source\PSoC6\pdl\middleware\ble/cy_ble_event_handler.c ****     return(gattErr);
 148:Generated_Source\PSoC6\pdl\middleware\ble/cy_ble_event_handler.c **** }
 149:Generated_Source\PSoC6\pdl\middleware\ble/cy_ble_event_handler.c **** #endif /* CY_BLE_GAP_ROLE_PERIPHERAL || CY_BLE_GAP_ROLE_CENTRAL */
 150:Generated_Source\PSoC6\pdl\middleware\ble/cy_ble_event_handler.c **** 
 151:Generated_Source\PSoC6\pdl\middleware\ble/cy_ble_event_handler.c **** #if (CY_BLE_GATT_ROLE_SERVER)
 152:Generated_Source\PSoC6\pdl\middleware\ble/cy_ble_event_handler.c **** 
 153:Generated_Source\PSoC6\pdl\middleware\ble/cy_ble_event_handler.c **** 
 154:Generated_Source\PSoC6\pdl\middleware\ble/cy_ble_event_handler.c **** /******************************************************************************
 155:Generated_Source\PSoC6\pdl\middleware\ble/cy_ble_event_handler.c **** * Function Name: Cy_BLE_SendWriteResponse
 156:Generated_Source\PSoC6\pdl\middleware\ble/cy_ble_event_handler.c **** ***************************************************************************//**
 157:Generated_Source\PSoC6\pdl\middleware\ble/cy_ble_event_handler.c **** *
 158:Generated_Source\PSoC6\pdl\middleware\ble/cy_ble_event_handler.c **** *  Sends the Write Response to Write Request when event was handled by service.
 159:Generated_Source\PSoC6\pdl\middleware\ble/cy_ble_event_handler.c **** *
 160:Generated_Source\PSoC6\pdl\middleware\ble/cy_ble_event_handler.c **** *  \param eventParam - The event parameter.
 161:Generated_Source\PSoC6\pdl\middleware\ble/cy_ble_event_handler.c **** *  \param gattErr - The error code.
 162:Generated_Source\PSoC6\pdl\middleware\ble/cy_ble_event_handler.c **** *
 163:Generated_Source\PSoC6\pdl\middleware\ble/cy_ble_event_handler.c **** * \return
 164:Generated_Source\PSoC6\pdl\middleware\ble/cy_ble_event_handler.c **** *  None.
 165:Generated_Source\PSoC6\pdl\middleware\ble/cy_ble_event_handler.c **** *
 166:Generated_Source\PSoC6\pdl\middleware\ble/cy_ble_event_handler.c **** ******************************************************************************/
 167:Generated_Source\PSoC6\pdl\middleware\ble/cy_ble_event_handler.c **** static void Cy_BLE_SendWriteResponse(const cy_stc_ble_gatts_write_cmd_req_param_t *eventParam,
 168:Generated_Source\PSoC6\pdl\middleware\ble/cy_ble_event_handler.c ****                                      cy_en_ble_gatt_err_code_t gattErr)
 169:Generated_Source\PSoC6\pdl\middleware\ble/cy_ble_event_handler.c **** {
  28              		.loc 1 169 0
  29              		.cfi_startproc
  30              		@ args = 0, pretend = 0, frame = 8
  31              		@ frame_needed = 0, uses_anonymous_args = 0
  32              	.LVL0:
  33 0000 00B5     		push	{lr}
  34              		.cfi_def_cfa_offset 4
  35              		.cfi_offset 14, -4
  36 0002 83B0     		sub	sp, sp, #12
  37              		.cfi_def_cfa_offset 16
 170:Generated_Source\PSoC6\pdl\middleware\ble/cy_ble_event_handler.c ****     cy_stc_ble_gatt_err_param_t err_param =
  38              		.loc 1 170 0
  39 0004 0023     		movs	r3, #0
  40 0006 ADF80430 		strh	r3, [sp, #4]	@ movhi
  41 000a 8389     		ldrh	r3, [r0, #12]
  42 000c ADF80030 		strh	r3, [sp]	@ movhi
 171:Generated_Source\PSoC6\pdl\middleware\ble/cy_ble_event_handler.c ****     {
 172:Generated_Source\PSoC6\pdl\middleware\ble/cy_ble_event_handler.c ****         .errInfo.opCode     = CY_BLE_GATT_WRITE_REQ,
 173:Generated_Source\PSoC6\pdl\middleware\ble/cy_ble_event_handler.c ****         .errInfo.attrHandle = eventParam->handleValPair.attrHandle,        
  43              		.loc 1 173 0
  44 0010 0389     		ldrh	r3, [r0, #8]
 170:Generated_Source\PSoC6\pdl\middleware\ble/cy_ble_event_handler.c ****     cy_stc_ble_gatt_err_param_t err_param =
  45              		.loc 1 170 0
  46 0012 ADF80230 		strh	r3, [sp, #2]	@ movhi
  47 0016 1223     		movs	r3, #18
  48 0018 8DF80430 		strb	r3, [sp, #4]
 174:Generated_Source\PSoC6\pdl\middleware\ble/cy_ble_event_handler.c ****         .connHandle         = eventParam->connHandle
 175:Generated_Source\PSoC6\pdl\middleware\ble/cy_ble_event_handler.c ****     };
 176:Generated_Source\PSoC6\pdl\middleware\ble/cy_ble_event_handler.c **** 
 177:Generated_Source\PSoC6\pdl\middleware\ble/cy_ble_event_handler.c ****     /* Send response when event was handled by the service */
 178:Generated_Source\PSoC6\pdl\middleware\ble/cy_ble_event_handler.c ****     if((cy_ble_eventHandlerFlag & CY_BLE_CALLBACK) == 0u)
  49              		.loc 1 178 0
ARM GAS  C:\Users\hkmnt\AppData\Local\Temp\ccBdSSuH.s 			page 5


  50 001c 084B     		ldr	r3, .L5
  51 001e 1B78     		ldrb	r3, [r3]	@ zero_extendqisi2
  52 0020 13F0010F 		tst	r3, #1
  53 0024 09D1     		bne	.L1
 179:Generated_Source\PSoC6\pdl\middleware\ble/cy_ble_event_handler.c ****     {
 180:Generated_Source\PSoC6\pdl\middleware\ble/cy_ble_event_handler.c ****         if(gattErr != CY_BLE_GATT_ERR_NONE)
  54              		.loc 1 180 0
  55 0026 29B1     		cbz	r1, .L3
 181:Generated_Source\PSoC6\pdl\middleware\ble/cy_ble_event_handler.c ****         {
 182:Generated_Source\PSoC6\pdl\middleware\ble/cy_ble_event_handler.c ****             /* Send an Error Response */
 183:Generated_Source\PSoC6\pdl\middleware\ble/cy_ble_event_handler.c ****             err_param.errInfo.errorCode  = gattErr;
  56              		.loc 1 183 0
  57 0028 8DF80510 		strb	r1, [sp, #5]
 184:Generated_Source\PSoC6\pdl\middleware\ble/cy_ble_event_handler.c ****             (void)Cy_BLE_GATTS_ErrorRsp(&err_param);
  58              		.loc 1 184 0
  59 002c 6846     		mov	r0, sp
  60              	.LVL1:
  61 002e FFF7FEFF 		bl	Cy_BLE_GATTS_ErrorRsp
  62              	.LVL2:
  63 0032 02E0     		b	.L1
  64              	.LVL3:
  65              	.L3:
 185:Generated_Source\PSoC6\pdl\middleware\ble/cy_ble_event_handler.c ****         }
 186:Generated_Source\PSoC6\pdl\middleware\ble/cy_ble_event_handler.c ****         else
 187:Generated_Source\PSoC6\pdl\middleware\ble/cy_ble_event_handler.c ****         {
 188:Generated_Source\PSoC6\pdl\middleware\ble/cy_ble_event_handler.c ****             /* Send an Write Response */
 189:Generated_Source\PSoC6\pdl\middleware\ble/cy_ble_event_handler.c ****             (void)Cy_BLE_GATTS_WriteRsp(eventParam->connHandle);
  66              		.loc 1 189 0
  67 0034 C068     		ldr	r0, [r0, #12]
  68              	.LVL4:
  69 0036 FFF7FEFF 		bl	Cy_BLE_GATTS_WriteRsp
  70              	.LVL5:
  71              	.L1:
 190:Generated_Source\PSoC6\pdl\middleware\ble/cy_ble_event_handler.c ****         }
 191:Generated_Source\PSoC6\pdl\middleware\ble/cy_ble_event_handler.c ****     } 
 192:Generated_Source\PSoC6\pdl\middleware\ble/cy_ble_event_handler.c **** }
  72              		.loc 1 192 0
  73 003a 03B0     		add	sp, sp, #12
  74              		.cfi_def_cfa_offset 4
  75              		@ sp needed
  76 003c 5DF804FB 		ldr	pc, [sp], #4
  77              	.L6:
  78              		.align	2
  79              	.L5:
  80 0040 00000000 		.word	cy_ble_eventHandlerFlag
  81              		.cfi_endproc
  82              	.LFE257:
  83              		.size	Cy_BLE_SendWriteResponse, .-Cy_BLE_SendWriteResponse
  84              		.section	.text.Cy_BLE_RegisterServiceEventHandler,"ax",%progbits
  85              		.align	2
  86              		.global	Cy_BLE_RegisterServiceEventHandler
  87              		.thumb
  88              		.thumb_func
  89              		.type	Cy_BLE_RegisterServiceEventHandler, %function
  90              	Cy_BLE_RegisterServiceEventHandler:
  91              	.LFB255:
  86:Generated_Source\PSoC6\pdl\middleware\ble/cy_ble_event_handler.c ****     cy_en_ble_api_result_t apiResult = CY_BLE_SUCCESS;
ARM GAS  C:\Users\hkmnt\AppData\Local\Temp\ccBdSSuH.s 			page 6


  92              		.loc 1 86 0
  93              		.cfi_startproc
  94              		@ args = 0, pretend = 0, frame = 0
  95              		@ frame_needed = 0, uses_anonymous_args = 0
  96              		@ link register save eliminated.
  97              	.LVL6:
  98 0000 10B4     		push	{r4}
  99              		.cfi_def_cfa_offset 4
 100              		.cfi_offset 4, -4
 101              	.LVL7:
  90:Generated_Source\PSoC6\pdl\middleware\ble/cy_ble_event_handler.c ****     {
 102              		.loc 1 90 0
 103 0002 0446     		mov	r4, r0
 104 0004 88B1     		cbz	r0, .L13
 105 0006 0023     		movs	r3, #0
 106 0008 1946     		mov	r1, r3
 107 000a 06E0     		b	.L9
 108              	.LVL8:
 109              	.L11:
 110              	.LBB37:
 100:Generated_Source\PSoC6\pdl\middleware\ble/cy_ble_event_handler.c ****             {
 111              		.loc 1 100 0
 112 000c 114A     		ldr	r2, .L18
 113 000e 52F82320 		ldr	r2, [r2, r3, lsl #2]
 114 0012 9442     		cmp	r4, r2
 115 0014 00D1     		bne	.L10
 102:Generated_Source\PSoC6\pdl\middleware\ble/cy_ble_event_handler.c ****             }
 116              		.loc 1 102 0
 117 0016 0121     		movs	r1, #1
 118              	.LVL9:
 119              	.L10:
  98:Generated_Source\PSoC6\pdl\middleware\ble/cy_ble_event_handler.c ****         {
 120              		.loc 1 98 0 discriminator 2
 121 0018 0133     		adds	r3, r3, #1
 122              	.LVL10:
 123              	.L9:
  98:Generated_Source\PSoC6\pdl\middleware\ble/cy_ble_event_handler.c ****         {
 124              		.loc 1 98 0 is_stmt 0 discriminator 1
 125 001a 0E4A     		ldr	r2, .L18
 126 001c 127A     		ldrb	r2, [r2, #8]	@ zero_extendqisi2
 127 001e 9342     		cmp	r3, r2
 128 0020 06D2     		bcs	.L15
  98:Generated_Source\PSoC6\pdl\middleware\ble/cy_ble_event_handler.c ****         {
 129              		.loc 1 98 0 discriminator 3
 130 0022 0029     		cmp	r1, #0
 131 0024 F2D0     		beq	.L11
 132              	.LBE37:
  87:Generated_Source\PSoC6\pdl\middleware\ble/cy_ble_event_handler.c ****     uint8_t existFlag = 0u;
 133              		.loc 1 87 0 is_stmt 1
 134 0026 0020     		movs	r0, #0
 135              	.LVL11:
 136              	.LBB38:
 137 0028 03E0     		b	.L8
 138              	.LVL12:
 139              	.L13:
 140              	.LBE38:
  88:Generated_Source\PSoC6\pdl\middleware\ble/cy_ble_event_handler.c **** 
ARM GAS  C:\Users\hkmnt\AppData\Local\Temp\ccBdSSuH.s 			page 7


 141              		.loc 1 88 0
 142 002a 0021     		movs	r1, #0
  92:Generated_Source\PSoC6\pdl\middleware\ble/cy_ble_event_handler.c ****     }
 143              		.loc 1 92 0
 144 002c 0A48     		ldr	r0, .L18+4
 145              	.LVL13:
 146 002e 00E0     		b	.L8
 147              	.LVL14:
 148              	.L15:
  87:Generated_Source\PSoC6\pdl\middleware\ble/cy_ble_event_handler.c ****     uint8_t existFlag = 0u;
 149              		.loc 1 87 0
 150 0030 0020     		movs	r0, #0
 151              	.LVL15:
 152              	.L8:
 107:Generated_Source\PSoC6\pdl\middleware\ble/cy_ble_event_handler.c ****     {
 153              		.loc 1 107 0
 154 0032 58B9     		cbnz	r0, .L12
 107:Generated_Source\PSoC6\pdl\middleware\ble/cy_ble_event_handler.c ****     {
 155              		.loc 1 107 0 is_stmt 0 discriminator 1
 156 0034 51B9     		cbnz	r1, .L12
 109:Generated_Source\PSoC6\pdl\middleware\ble/cy_ble_event_handler.c ****         {
 157              		.loc 1 109 0 is_stmt 1
 158 0036 074B     		ldr	r3, .L18
 159 0038 1B7A     		ldrb	r3, [r3, #8]	@ zero_extendqisi2
 160 003a 012B     		cmp	r3, #1
 161 003c 05D8     		bhi	.L16
 111:Generated_Source\PSoC6\pdl\middleware\ble/cy_ble_event_handler.c ****             cy_ble_eventHandler.count += 1u;
 162              		.loc 1 111 0
 163 003e 054A     		ldr	r2, .L18
 164 0040 42F82340 		str	r4, [r2, r3, lsl #2]
 112:Generated_Source\PSoC6\pdl\middleware\ble/cy_ble_event_handler.c ****         }
 165              		.loc 1 112 0
 166 0044 0133     		adds	r3, r3, #1
 167 0046 1372     		strb	r3, [r2, #8]
 168 0048 00E0     		b	.L12
 169              	.L16:
 116:Generated_Source\PSoC6\pdl\middleware\ble/cy_ble_event_handler.c ****         }
 170              		.loc 1 116 0
 171 004a 0448     		ldr	r0, .L18+8
 172              	.LVL16:
 173              	.L12:
 121:Generated_Source\PSoC6\pdl\middleware\ble/cy_ble_event_handler.c **** 
 174              		.loc 1 121 0
 175 004c 5DF8044B 		ldr	r4, [sp], #4
 176              		.cfi_restore 4
 177              		.cfi_def_cfa_offset 0
 178              	.LVL17:
 179 0050 7047     		bx	lr
 180              	.L19:
 181 0052 00BF     		.align	2
 182              	.L18:
 183 0054 00000000 		.word	cy_ble_eventHandler
 184 0058 01001600 		.word	1441793
 185 005c 03001600 		.word	1441795
 186              		.cfi_endproc
 187              	.LFE255:
 188              		.size	Cy_BLE_RegisterServiceEventHandler, .-Cy_BLE_RegisterServiceEventHandler
ARM GAS  C:\Users\hkmnt\AppData\Local\Temp\ccBdSSuH.s 			page 8


 189              		.section	.text.Cy_BLE_InvokeServiceEventHandler,"ax",%progbits
 190              		.align	2
 191              		.global	Cy_BLE_InvokeServiceEventHandler
 192              		.thumb
 193              		.thumb_func
 194              		.type	Cy_BLE_InvokeServiceEventHandler, %function
 195              	Cy_BLE_InvokeServiceEventHandler:
 196              	.LFB256:
 138:Generated_Source\PSoC6\pdl\middleware\ble/cy_ble_event_handler.c ****     uint32_t idx;
 197              		.loc 1 138 0
 198              		.cfi_startproc
 199              		@ args = 0, pretend = 0, frame = 0
 200              		@ frame_needed = 0, uses_anonymous_args = 0
 201              	.LVL18:
 202 0000 70B5     		push	{r4, r5, r6, lr}
 203              		.cfi_def_cfa_offset 16
 204              		.cfi_offset 4, -16
 205              		.cfi_offset 5, -12
 206              		.cfi_offset 6, -8
 207              		.cfi_offset 14, -4
 208 0002 0646     		mov	r6, r0
 209 0004 0D46     		mov	r5, r1
 210              	.LVL19:
 140:Generated_Source\PSoC6\pdl\middleware\ble/cy_ble_event_handler.c **** 
 211              		.loc 1 140 0
 212 0006 0020     		movs	r0, #0
 213              	.LVL20:
 142:Generated_Source\PSoC6\pdl\middleware\ble/cy_ble_event_handler.c ****     {
 214              		.loc 1 142 0
 215 0008 0446     		mov	r4, r0
 216 000a 06E0     		b	.L21
 217              	.LVL21:
 218              	.L23:
 144:Generated_Source\PSoC6\pdl\middleware\ble/cy_ble_event_handler.c ****     }
 219              		.loc 1 144 0 discriminator 4
 220 000c 084B     		ldr	r3, .L25
 221 000e 53F82430 		ldr	r3, [r3, r4, lsl #2]
 222 0012 2946     		mov	r1, r5
 223 0014 3046     		mov	r0, r6
 224              	.LVL22:
 225 0016 9847     		blx	r3
 226              	.LVL23:
 142:Generated_Source\PSoC6\pdl\middleware\ble/cy_ble_event_handler.c ****     {
 227              		.loc 1 142 0 discriminator 4
 228 0018 0134     		adds	r4, r4, #1
 229              	.LVL24:
 230              	.L21:
 142:Generated_Source\PSoC6\pdl\middleware\ble/cy_ble_event_handler.c ****     {
 231              		.loc 1 142 0 is_stmt 0 discriminator 1
 232 001a 054B     		ldr	r3, .L25
 233 001c 1B7A     		ldrb	r3, [r3, #8]	@ zero_extendqisi2
 234 001e 9C42     		cmp	r4, r3
 235 0020 04D2     		bcs	.L22
 142:Generated_Source\PSoC6\pdl\middleware\ble/cy_ble_event_handler.c ****     {
 236              		.loc 1 142 0 discriminator 3
 237 0022 044B     		ldr	r3, .L25+4
 238 0024 1B78     		ldrb	r3, [r3]	@ zero_extendqisi2
ARM GAS  C:\Users\hkmnt\AppData\Local\Temp\ccBdSSuH.s 			page 9


 239 0026 13F0010F 		tst	r3, #1
 240 002a EFD1     		bne	.L23
 241              	.L22:
 148:Generated_Source\PSoC6\pdl\middleware\ble/cy_ble_event_handler.c **** #endif /* CY_BLE_GAP_ROLE_PERIPHERAL || CY_BLE_GAP_ROLE_CENTRAL */
 242              		.loc 1 148 0 is_stmt 1
 243 002c 70BD     		pop	{r4, r5, r6, pc}
 244              	.LVL25:
 245              	.L26:
 246 002e 00BF     		.align	2
 247              	.L25:
 248 0030 00000000 		.word	cy_ble_eventHandler
 249 0034 00000000 		.word	cy_ble_eventHandlerFlag
 250              		.cfi_endproc
 251              	.LFE256:
 252              		.size	Cy_BLE_InvokeServiceEventHandler, .-Cy_BLE_InvokeServiceEventHandler
 253              		.section	.text.Cy_BLE_IsDeviceAddressValid,"ax",%progbits
 254              		.align	2
 255              		.global	Cy_BLE_IsDeviceAddressValid
 256              		.thumb
 257              		.thumb_func
 258              		.type	Cy_BLE_IsDeviceAddressValid, %function
 259              	Cy_BLE_IsDeviceAddressValid:
 260              	.LFB259:
 193:Generated_Source\PSoC6\pdl\middleware\ble/cy_ble_event_handler.c **** #endif /* CY_BLE_GATT_ROLE_SERVER */
 194:Generated_Source\PSoC6\pdl\middleware\ble/cy_ble_event_handler.c **** 
 195:Generated_Source\PSoC6\pdl\middleware\ble/cy_ble_event_handler.c **** 
 196:Generated_Source\PSoC6\pdl\middleware\ble/cy_ble_event_handler.c **** /******************************************************************************
 197:Generated_Source\PSoC6\pdl\middleware\ble/cy_ble_event_handler.c **** * Function Name: Cy_BLE_TimeOutEventHandler
 198:Generated_Source\PSoC6\pdl\middleware\ble/cy_ble_event_handler.c **** ***************************************************************************//**
 199:Generated_Source\PSoC6\pdl\middleware\ble/cy_ble_event_handler.c **** *
 200:Generated_Source\PSoC6\pdl\middleware\ble/cy_ble_event_handler.c **** *  Handles a CY_BLE_EVT_TIMEOUT event from the BLE Stack.
 201:Generated_Source\PSoC6\pdl\middleware\ble/cy_ble_event_handler.c **** *
 202:Generated_Source\PSoC6\pdl\middleware\ble/cy_ble_event_handler.c **** *  \param eventParam: The pointer to a structure of type cy_stc_ble_timeout_param_t.
 203:Generated_Source\PSoC6\pdl\middleware\ble/cy_ble_event_handler.c **** *
 204:Generated_Source\PSoC6\pdl\middleware\ble/cy_ble_event_handler.c **** * \return
 205:Generated_Source\PSoC6\pdl\middleware\ble/cy_ble_event_handler.c **** *  None
 206:Generated_Source\PSoC6\pdl\middleware\ble/cy_ble_event_handler.c **** *
 207:Generated_Source\PSoC6\pdl\middleware\ble/cy_ble_event_handler.c **** ******************************************************************************/
 208:Generated_Source\PSoC6\pdl\middleware\ble/cy_ble_event_handler.c **** static void Cy_BLE_TimeOutEventHandler(const cy_stc_ble_timeout_param_t *eventParam)
 209:Generated_Source\PSoC6\pdl\middleware\ble/cy_ble_event_handler.c **** {
 210:Generated_Source\PSoC6\pdl\middleware\ble/cy_ble_event_handler.c ****     if(eventParam->reasonCode == CY_BLE_GATT_RSP_TO)
 211:Generated_Source\PSoC6\pdl\middleware\ble/cy_ble_event_handler.c ****     {
 212:Generated_Source\PSoC6\pdl\middleware\ble/cy_ble_event_handler.c ****     #if (CY_BLE_GATT_ROLE_CLIENT)
 213:Generated_Source\PSoC6\pdl\middleware\ble/cy_ble_event_handler.c ****         {
 214:Generated_Source\PSoC6\pdl\middleware\ble/cy_ble_event_handler.c ****             uint32_t discIdx = Cy_BLE_GetDiscoveryIdx(eventParam->CY_BLE_HANDLE.connHandle);
 215:Generated_Source\PSoC6\pdl\middleware\ble/cy_ble_event_handler.c ****             if((discIdx < CY_BLE_GATTC_COUNT) && (cy_ble_discovery[discIdx].autoDiscoveryFlag != 0u
 216:Generated_Source\PSoC6\pdl\middleware\ble/cy_ble_event_handler.c ****             {
 217:Generated_Source\PSoC6\pdl\middleware\ble/cy_ble_event_handler.c ****                 switch(Cy_BLE_GetConnectionState(eventParam->CY_BLE_HANDLE.connHandle))
 218:Generated_Source\PSoC6\pdl\middleware\ble/cy_ble_event_handler.c ****                 {
 219:Generated_Source\PSoC6\pdl\middleware\ble/cy_ble_event_handler.c ****                     case CY_BLE_CONN_STATE_CLIENT_SRVC_DISCOVERING:
 220:Generated_Source\PSoC6\pdl\middleware\ble/cy_ble_event_handler.c ****                         Cy_BLE_ApplCallback((uint32_t)CY_BLE_EVT_GATTC_SRVC_DISCOVERY_FAILED,
 221:Generated_Source\PSoC6\pdl\middleware\ble/cy_ble_event_handler.c ****                                             (cy_stc_ble_conn_handle_t*)&eventParam->CY_BLE_HANDLE.c
 222:Generated_Source\PSoC6\pdl\middleware\ble/cy_ble_event_handler.c ****                         break;
 223:Generated_Source\PSoC6\pdl\middleware\ble/cy_ble_event_handler.c **** 
 224:Generated_Source\PSoC6\pdl\middleware\ble/cy_ble_event_handler.c ****                     case CY_BLE_CONN_STATE_CLIENT_INCL_DISCOVERING:
 225:Generated_Source\PSoC6\pdl\middleware\ble/cy_ble_event_handler.c ****                         Cy_BLE_ApplCallback((uint32_t)CY_BLE_EVT_GATTC_INCL_DISCOVERY_FAILED,
 226:Generated_Source\PSoC6\pdl\middleware\ble/cy_ble_event_handler.c ****                                             (cy_stc_ble_conn_handle_t*)&eventParam->CY_BLE_HANDLE.c
ARM GAS  C:\Users\hkmnt\AppData\Local\Temp\ccBdSSuH.s 			page 10


 227:Generated_Source\PSoC6\pdl\middleware\ble/cy_ble_event_handler.c ****                         break;
 228:Generated_Source\PSoC6\pdl\middleware\ble/cy_ble_event_handler.c **** 
 229:Generated_Source\PSoC6\pdl\middleware\ble/cy_ble_event_handler.c ****                     case CY_BLE_CONN_STATE_CLIENT_CHAR_DISCOVERING:
 230:Generated_Source\PSoC6\pdl\middleware\ble/cy_ble_event_handler.c ****                         Cy_BLE_ApplCallback((uint32_t)CY_BLE_EVT_GATTC_CHAR_DISCOVERY_FAILED,
 231:Generated_Source\PSoC6\pdl\middleware\ble/cy_ble_event_handler.c ****                                             (cy_stc_ble_conn_handle_t*)&eventParam->CY_BLE_HANDLE.c
 232:Generated_Source\PSoC6\pdl\middleware\ble/cy_ble_event_handler.c ****                         break;
 233:Generated_Source\PSoC6\pdl\middleware\ble/cy_ble_event_handler.c **** 
 234:Generated_Source\PSoC6\pdl\middleware\ble/cy_ble_event_handler.c ****                     case CY_BLE_CONN_STATE_CLIENT_DESCR_DISCOVERING:
 235:Generated_Source\PSoC6\pdl\middleware\ble/cy_ble_event_handler.c ****                         Cy_BLE_ApplCallback((uint32_t)CY_BLE_EVT_GATTC_DESCR_DISCOVERY_FAILED,
 236:Generated_Source\PSoC6\pdl\middleware\ble/cy_ble_event_handler.c ****                                             (cy_stc_ble_conn_handle_t*)&eventParam->CY_BLE_HANDLE.c
 237:Generated_Source\PSoC6\pdl\middleware\ble/cy_ble_event_handler.c ****                         break;
 238:Generated_Source\PSoC6\pdl\middleware\ble/cy_ble_event_handler.c **** 
 239:Generated_Source\PSoC6\pdl\middleware\ble/cy_ble_event_handler.c ****                     default:        /* Other states should not be set in Auto discovery mode */
 240:Generated_Source\PSoC6\pdl\middleware\ble/cy_ble_event_handler.c ****                         break;
 241:Generated_Source\PSoC6\pdl\middleware\ble/cy_ble_event_handler.c ****                 }
 242:Generated_Source\PSoC6\pdl\middleware\ble/cy_ble_event_handler.c ****                 cy_ble_discovery[discIdx].autoDiscoveryFlag = 0u;
 243:Generated_Source\PSoC6\pdl\middleware\ble/cy_ble_event_handler.c ****                 Cy_BLE_SetConnectionState(eventParam->CY_BLE_HANDLE.connHandle, CY_BLE_CONN_STATE_C
 244:Generated_Source\PSoC6\pdl\middleware\ble/cy_ble_event_handler.c ****             }
 245:Generated_Source\PSoC6\pdl\middleware\ble/cy_ble_event_handler.c ****         }
 246:Generated_Source\PSoC6\pdl\middleware\ble/cy_ble_event_handler.c ****     #endif /* CY_BLE_GATT_ROLE_CLIENT */
 247:Generated_Source\PSoC6\pdl\middleware\ble/cy_ble_event_handler.c ****     }
 248:Generated_Source\PSoC6\pdl\middleware\ble/cy_ble_event_handler.c **** 
 249:Generated_Source\PSoC6\pdl\middleware\ble/cy_ble_event_handler.c ****     #if (CY_BLE_GAP_ROLE_CENTRAL)
 250:Generated_Source\PSoC6\pdl\middleware\ble/cy_ble_event_handler.c ****     /* Connection procedure timeout */
 251:Generated_Source\PSoC6\pdl\middleware\ble/cy_ble_event_handler.c ****     if((eventParam->reasonCode == CY_BLE_GENERIC_APP_TO) &&
 252:Generated_Source\PSoC6\pdl\middleware\ble/cy_ble_event_handler.c ****        (cy_ble_connectingTimeout.timerHandle == eventParam->timerHandle))
 253:Generated_Source\PSoC6\pdl\middleware\ble/cy_ble_event_handler.c ****     {
 254:Generated_Source\PSoC6\pdl\middleware\ble/cy_ble_event_handler.c ****         if(Cy_BLE_GetState() == CY_BLE_STATE_CONNECTING)
 255:Generated_Source\PSoC6\pdl\middleware\ble/cy_ble_event_handler.c ****         {
 256:Generated_Source\PSoC6\pdl\middleware\ble/cy_ble_event_handler.c ****             (void)Cy_BLE_GAPC_CancelDeviceConnection();
 257:Generated_Source\PSoC6\pdl\middleware\ble/cy_ble_event_handler.c ****         }
 258:Generated_Source\PSoC6\pdl\middleware\ble/cy_ble_event_handler.c ****     }
 259:Generated_Source\PSoC6\pdl\middleware\ble/cy_ble_event_handler.c ****     #endif /* CY_BLE_GAP_ROLE_CENTRAL */
 260:Generated_Source\PSoC6\pdl\middleware\ble/cy_ble_event_handler.c **** }
 261:Generated_Source\PSoC6\pdl\middleware\ble/cy_ble_event_handler.c **** 
 262:Generated_Source\PSoC6\pdl\middleware\ble/cy_ble_event_handler.c **** 
 263:Generated_Source\PSoC6\pdl\middleware\ble/cy_ble_event_handler.c **** /******************************************************************************
 264:Generated_Source\PSoC6\pdl\middleware\ble/cy_ble_event_handler.c **** * Function Name: Cy_BLE_IsDeviceAddressValid
 265:Generated_Source\PSoC6\pdl\middleware\ble/cy_ble_event_handler.c **** ***************************************************************************//**
 266:Generated_Source\PSoC6\pdl\middleware\ble/cy_ble_event_handler.c **** *
 267:Generated_Source\PSoC6\pdl\middleware\ble/cy_ble_event_handler.c **** *  This function verifies that the device address is valid (not equal zero)
 268:Generated_Source\PSoC6\pdl\middleware\ble/cy_ble_event_handler.c **** *    
 269:Generated_Source\PSoC6\pdl\middleware\ble/cy_ble_event_handler.c **** *  \param deviceAddress: The pointer to the BD address of
 270:Generated_Source\PSoC6\pdl\middleware\ble/cy_ble_event_handler.c **** *                        type #cy_stc_ble_gap_bd_addr_t.
 271:Generated_Source\PSoC6\pdl\middleware\ble/cy_ble_event_handler.c **** *
 272:Generated_Source\PSoC6\pdl\middleware\ble/cy_ble_event_handler.c **** *  \return
 273:Generated_Source\PSoC6\pdl\middleware\ble/cy_ble_event_handler.c **** *   A non-zero value when a device address is valid
 274:Generated_Source\PSoC6\pdl\middleware\ble/cy_ble_event_handler.c **** *
 275:Generated_Source\PSoC6\pdl\middleware\ble/cy_ble_event_handler.c **** ******************************************************************************/
 276:Generated_Source\PSoC6\pdl\middleware\ble/cy_ble_event_handler.c **** uint8_t Cy_BLE_IsDeviceAddressValid(const cy_stc_ble_gap_bd_addr_t *deviceAddress)
 277:Generated_Source\PSoC6\pdl\middleware\ble/cy_ble_event_handler.c **** {
 261              		.loc 1 277 0
 262              		.cfi_startproc
 263              		@ args = 0, pretend = 0, frame = 0
 264              		@ frame_needed = 0, uses_anonymous_args = 0
 265              		@ link register save eliminated.
 266              	.LVL26:
ARM GAS  C:\Users\hkmnt\AppData\Local\Temp\ccBdSSuH.s 			page 11


 278:Generated_Source\PSoC6\pdl\middleware\ble/cy_ble_event_handler.c ****     uint8_t addressValid = 0u;
 279:Generated_Source\PSoC6\pdl\middleware\ble/cy_ble_event_handler.c ****     uint32_t i;
 280:Generated_Source\PSoC6\pdl\middleware\ble/cy_ble_event_handler.c **** 
 281:Generated_Source\PSoC6\pdl\middleware\ble/cy_ble_event_handler.c ****     if(deviceAddress->type == CY_BLE_GAP_ADDR_TYPE_PUBLIC)
 267              		.loc 1 281 0
 268 0000 8379     		ldrb	r3, [r0, #6]	@ zero_extendqisi2
 269 0002 2BB1     		cbz	r3, .L31
 278:Generated_Source\PSoC6\pdl\middleware\ble/cy_ble_event_handler.c ****     uint8_t addressValid = 0u;
 270              		.loc 1 278 0
 271 0004 0020     		movs	r0, #0
 272              	.LVL27:
 273 0006 7047     		bx	lr
 274              	.LVL28:
 275              	.L30:
 282:Generated_Source\PSoC6\pdl\middleware\ble/cy_ble_event_handler.c ****     {
 283:Generated_Source\PSoC6\pdl\middleware\ble/cy_ble_event_handler.c ****         for(i = 0u; i < CY_BLE_GAP_BD_ADDR_SIZE; i++)
 284:Generated_Source\PSoC6\pdl\middleware\ble/cy_ble_event_handler.c ****         {
 285:Generated_Source\PSoC6\pdl\middleware\ble/cy_ble_event_handler.c ****             if(deviceAddress->bdAddr[i] != 0u)
 276              		.loc 1 285 0
 277 0008 C25C     		ldrb	r2, [r0, r3]	@ zero_extendqisi2
 278 000a 32B9     		cbnz	r2, .L32
 283:Generated_Source\PSoC6\pdl\middleware\ble/cy_ble_event_handler.c ****         {
 279              		.loc 1 283 0 discriminator 2
 280 000c 0133     		adds	r3, r3, #1
 281              	.LVL29:
 282 000e 00E0     		b	.L28
 283              	.LVL30:
 284              	.L31:
 285 0010 0023     		movs	r3, #0
 286              	.L28:
 287              	.LVL31:
 283:Generated_Source\PSoC6\pdl\middleware\ble/cy_ble_event_handler.c ****         {
 288              		.loc 1 283 0 is_stmt 0 discriminator 1
 289 0012 052B     		cmp	r3, #5
 290 0014 F8D9     		bls	.L30
 278:Generated_Source\PSoC6\pdl\middleware\ble/cy_ble_event_handler.c ****     uint8_t addressValid = 0u;
 291              		.loc 1 278 0 is_stmt 1
 292 0016 0020     		movs	r0, #0
 293              	.LVL32:
 294 0018 7047     		bx	lr
 295              	.LVL33:
 296              	.L32:
 286:Generated_Source\PSoC6\pdl\middleware\ble/cy_ble_event_handler.c ****             {
 287:Generated_Source\PSoC6\pdl\middleware\ble/cy_ble_event_handler.c ****                 addressValid = 1u;
 297              		.loc 1 287 0
 298 001a 0120     		movs	r0, #1
 299              	.LVL34:
 288:Generated_Source\PSoC6\pdl\middleware\ble/cy_ble_event_handler.c ****                 break;
 289:Generated_Source\PSoC6\pdl\middleware\ble/cy_ble_event_handler.c ****             }
 290:Generated_Source\PSoC6\pdl\middleware\ble/cy_ble_event_handler.c ****         }
 291:Generated_Source\PSoC6\pdl\middleware\ble/cy_ble_event_handler.c ****     }
 292:Generated_Source\PSoC6\pdl\middleware\ble/cy_ble_event_handler.c **** 
 293:Generated_Source\PSoC6\pdl\middleware\ble/cy_ble_event_handler.c ****     return(addressValid);
 294:Generated_Source\PSoC6\pdl\middleware\ble/cy_ble_event_handler.c **** }
 300              		.loc 1 294 0
 301 001c 7047     		bx	lr
 302              		.cfi_endproc
ARM GAS  C:\Users\hkmnt\AppData\Local\Temp\ccBdSSuH.s 			page 12


 303              	.LFE259:
 304              		.size	Cy_BLE_IsDeviceAddressValid, .-Cy_BLE_IsDeviceAddressValid
 305 001e 00BF     		.section	.text.Cy_BLE_EventHandler,"ax",%progbits
 306              		.align	2
 307              		.global	Cy_BLE_EventHandler
 308              		.thumb
 309              		.thumb_func
 310              		.type	Cy_BLE_EventHandler, %function
 311              	Cy_BLE_EventHandler:
 312              	.LFB260:
 295:Generated_Source\PSoC6\pdl\middleware\ble/cy_ble_event_handler.c **** 
 296:Generated_Source\PSoC6\pdl\middleware\ble/cy_ble_event_handler.c **** 
 297:Generated_Source\PSoC6\pdl\middleware\ble/cy_ble_event_handler.c **** /******************************************************************************
 298:Generated_Source\PSoC6\pdl\middleware\ble/cy_ble_event_handler.c **** * Function Name: Cy_BLE_EventHandler
 299:Generated_Source\PSoC6\pdl\middleware\ble/cy_ble_event_handler.c **** ***************************************************************************//**
 300:Generated_Source\PSoC6\pdl\middleware\ble/cy_ble_event_handler.c **** *
 301:Generated_Source\PSoC6\pdl\middleware\ble/cy_ble_event_handler.c **** *  Handles events from the BLE Stack.
 302:Generated_Source\PSoC6\pdl\middleware\ble/cy_ble_event_handler.c **** *
 303:Generated_Source\PSoC6\pdl\middleware\ble/cy_ble_event_handler.c **** *  \param event:   The event code.
 304:Generated_Source\PSoC6\pdl\middleware\ble/cy_ble_event_handler.c **** *  \param evParam: The event parameters.
 305:Generated_Source\PSoC6\pdl\middleware\ble/cy_ble_event_handler.c **** *
 306:Generated_Source\PSoC6\pdl\middleware\ble/cy_ble_event_handler.c **** * \return
 307:Generated_Source\PSoC6\pdl\middleware\ble/cy_ble_event_handler.c **** *  None.
 308:Generated_Source\PSoC6\pdl\middleware\ble/cy_ble_event_handler.c **** *
 309:Generated_Source\PSoC6\pdl\middleware\ble/cy_ble_event_handler.c **** ******************************************************************************/
 310:Generated_Source\PSoC6\pdl\middleware\ble/cy_ble_event_handler.c **** void Cy_BLE_EventHandler(cy_en_ble_event_t event,
 311:Generated_Source\PSoC6\pdl\middleware\ble/cy_ble_event_handler.c ****                          void *evParam)
 312:Generated_Source\PSoC6\pdl\middleware\ble/cy_ble_event_handler.c **** {
 313              		.loc 1 312 0
 314              		.cfi_startproc
 315              		@ args = 0, pretend = 0, frame = 40
 316              		@ frame_needed = 0, uses_anonymous_args = 0
 317              	.LVL35:
 318 0000 70B5     		push	{r4, r5, r6, lr}
 319              		.cfi_def_cfa_offset 16
 320              		.cfi_offset 4, -16
 321              		.cfi_offset 5, -12
 322              		.cfi_offset 6, -8
 323              		.cfi_offset 14, -4
 324 0002 8AB0     		sub	sp, sp, #40
 325              		.cfi_def_cfa_offset 56
 326 0004 0446     		mov	r4, r0
 327 0006 0D46     		mov	r5, r1
 313:Generated_Source\PSoC6\pdl\middleware\ble/cy_ble_event_handler.c ****     cy_ble_eventHandlerFlag |= CY_BLE_CALLBACK;
 328              		.loc 1 313 0
 329 0008 C14A     		ldr	r2, .L103
 330 000a 1378     		ldrb	r3, [r2]	@ zero_extendqisi2
 331 000c 43F00103 		orr	r3, r3, #1
 332 0010 1370     		strb	r3, [r2]
 314:Generated_Source\PSoC6\pdl\middleware\ble/cy_ble_event_handler.c **** 
 315:Generated_Source\PSoC6\pdl\middleware\ble/cy_ble_event_handler.c ****     /* Common Profile event handling */
 316:Generated_Source\PSoC6\pdl\middleware\ble/cy_ble_event_handler.c ****     switch(event)
 333              		.loc 1 316 0
 334 0012 44F20803 		movw	r3, #16392
 335 0016 9842     		cmp	r0, r3
 336 0018 00F01482 		beq	.L35
 337 001c 3AD8     		bhi	.L36
ARM GAS  C:\Users\hkmnt\AppData\Local\Temp\ccBdSSuH.s 			page 13


 338 001e 43F20103 		movw	r3, #12289
 339 0022 9842     		cmp	r0, r3
 340 0024 00F0DC80 		beq	.L37
 341 0028 19D8     		bhi	.L38
 342 002a 41F20203 		movw	r3, #4098
 343 002e 9842     		cmp	r0, r3
 344 0030 00F01581 		beq	.L39
 345 0034 08D8     		bhi	.L40
 346 0036 B0F5805F 		cmp	r0, #4096
 347 003a 74D0     		beq	.L41
 348 003c 41F20103 		movw	r3, #4097
 349 0040 9842     		cmp	r0, r3
 350 0042 00F00981 		beq	.L42
 351 0046 C9E2     		b	.L34
 352              	.L40:
 353 0048 41F20303 		movw	r3, #4099
 354 004c 9842     		cmp	r0, r3
 355 004e 00F03F81 		beq	.L43
 356 0052 42F20403 		movw	r3, #8196
 357 0056 9842     		cmp	r0, r3
 358 0058 00F0D480 		beq	.L44
 359 005c BEE2     		b	.L34
 360              	.L38:
 361 005e 44F20403 		movw	r3, #16388
 362 0062 9842     		cmp	r0, r3
 363 0064 00F04881 		beq	.L45
 364 0068 09D8     		bhi	.L46
 365 006a 43F21203 		movw	r3, #12306
 366 006e 9842     		cmp	r0, r3
 367 0070 00F0B680 		beq	.L37
 368 0074 43F21903 		movw	r3, #12313
 369 0078 9842     		cmp	r0, r3
 370 007a 4ED0     		beq	.L47
 371 007c AEE2     		b	.L34
 372              	.L46:
 373 007e 44F20603 		movw	r3, #16390
 374 0082 9842     		cmp	r0, r3
 375 0084 00F0E281 		beq	.L48
 376 0088 44F20703 		movw	r3, #16391
 377 008c 9842     		cmp	r0, r3
 378 008e 00F09281 		beq	.L49
 379 0092 A3E2     		b	.L34
 380              	.L36:
 381 0094 45F20C03 		movw	r3, #20492
 382 0098 9842     		cmp	r0, r3
 383 009a 00F05782 		beq	.L50
 384 009e 1BD8     		bhi	.L51
 385 00a0 45F20103 		movw	r3, #20481
 386 00a4 9842     		cmp	r0, r3
 387 00a6 00F01082 		beq	.L52
 388 00aa 0AD8     		bhi	.L53
 389 00ac 44F20A03 		movw	r3, #16394
 390 00b0 9842     		cmp	r0, r3
 391 00b2 00F07D81 		beq	.L54
 392 00b6 44F21003 		movw	r3, #16400
 393 00ba 9842     		cmp	r0, r3
 394 00bc 00F07B81 		beq	.L49
ARM GAS  C:\Users\hkmnt\AppData\Local\Temp\ccBdSSuH.s 			page 14


 395 00c0 8CE2     		b	.L34
 396              	.L53:
 397 00c2 45F20203 		movw	r3, #20482
 398 00c6 9842     		cmp	r0, r3
 399 00c8 00F01D82 		beq	.L55
 400 00cc 45F20303 		movw	r3, #20483
 401 00d0 9842     		cmp	r0, r3
 402 00d2 00F03182 		beq	.L56
 403 00d6 81E2     		b	.L34
 404              	.L51:
 405 00d8 45F21003 		movw	r3, #20496
 406 00dc 9842     		cmp	r0, r3
 407 00de 00F07082 		beq	.L57
 408 00e2 0AD8     		bhi	.L58
 409 00e4 45F20E03 		movw	r3, #20494
 410 00e8 9842     		cmp	r0, r3
 411 00ea 00F06482 		beq	.L59
 412 00ee 45F20F03 		movw	r3, #20495
 413 00f2 9842     		cmp	r0, r3
 414 00f4 00F06282 		beq	.L60
 415 00f8 70E2     		b	.L34
 416              	.L58:
 417 00fa 45F21703 		movw	r3, #20503
 418 00fe 9842     		cmp	r0, r3
 419 0100 00F06582 		beq	.L61
 420 0104 46F20103 		movw	r3, #24577
 421 0108 9842     		cmp	r0, r3
 422 010a 00F0DB81 		beq	.L62
 423 010e 45F21403 		movw	r3, #20500
 424 0112 9842     		cmp	r0, r3
 425 0114 40F06282 		bne	.L34
 426 0118 56E2     		b	.L63
 427              	.L47:
 317:Generated_Source\PSoC6\pdl\middleware\ble/cy_ble_event_handler.c ****     {
 318:Generated_Source\PSoC6\pdl\middleware\ble/cy_ble_event_handler.c ****         /**********************************************************
 319:Generated_Source\PSoC6\pdl\middleware\ble/cy_ble_event_handler.c ****          * General events
 320:Generated_Source\PSoC6\pdl\middleware\ble/cy_ble_event_handler.c ****          ************************************************************/
 321:Generated_Source\PSoC6\pdl\middleware\ble/cy_ble_event_handler.c ****         case CY_BLE_EVT_HCI_PKT_RCVD:
 322:Generated_Source\PSoC6\pdl\middleware\ble/cy_ble_event_handler.c ****         {
 323:Generated_Source\PSoC6\pdl\middleware\ble/cy_ble_event_handler.c ****             #if (CY_BLE_MODE_PROFILE) && (!CY_BLE_STACK_MODE_IPC)
 324:Generated_Source\PSoC6\pdl\middleware\ble/cy_ble_event_handler.c ****             cy_stc_ble_hci_tx_packet_info_t *HciPktParams = (cy_stc_ble_hci_tx_packet_info_t*)evPar
 325:Generated_Source\PSoC6\pdl\middleware\ble/cy_ble_event_handler.c ****             
 326:Generated_Source\PSoC6\pdl\middleware\ble/cy_ble_event_handler.c ****             Cy_BLE_HAL_SoftHciHostReceiveControllerPkt(HciPktParams);
 327:Generated_Source\PSoC6\pdl\middleware\ble/cy_ble_event_handler.c ****             #endif /* (CY_BLE_MODE_PROFILE) && (!CY_BLE_STACK_MODE_IPC) */
 328:Generated_Source\PSoC6\pdl\middleware\ble/cy_ble_event_handler.c **** 
 329:Generated_Source\PSoC6\pdl\middleware\ble/cy_ble_event_handler.c ****             /* Clear the CY_BLE_CALLBACK flag not to provide a handled event to the application */
 330:Generated_Source\PSoC6\pdl\middleware\ble/cy_ble_event_handler.c ****             cy_ble_eventHandlerFlag &= (uint8_t) ~CY_BLE_CALLBACK;
 428              		.loc 1 330 0
 429 011a 7D4A     		ldr	r2, .L103
 430 011c 1378     		ldrb	r3, [r2]	@ zero_extendqisi2
 431 011e 03F0FE03 		and	r3, r3, #254
 432 0122 1370     		strb	r3, [r2]
 331:Generated_Source\PSoC6\pdl\middleware\ble/cy_ble_event_handler.c ****         }
 332:Generated_Source\PSoC6\pdl\middleware\ble/cy_ble_event_handler.c ****         break;
 433              		.loc 1 332 0
 434 0124 5AE2     		b	.L34
 435              	.L41:
ARM GAS  C:\Users\hkmnt\AppData\Local\Temp\ccBdSSuH.s 			page 15


 333:Generated_Source\PSoC6\pdl\middleware\ble/cy_ble_event_handler.c ****         
 334:Generated_Source\PSoC6\pdl\middleware\ble/cy_ble_event_handler.c ****         case CY_BLE_EVT_STACK_ON:
 335:Generated_Source\PSoC6\pdl\middleware\ble/cy_ble_event_handler.c **** 
 336:Generated_Source\PSoC6\pdl\middleware\ble/cy_ble_event_handler.c ****             /* Set a device address  */
 337:Generated_Source\PSoC6\pdl\middleware\ble/cy_ble_event_handler.c ****             if(Cy_BLE_IsDeviceAddressValid(cy_ble_sflashDeviceAddress) != 0u)
 436              		.loc 1 337 0
 437 0126 7B4B     		ldr	r3, .L103+4
 438 0128 1E68     		ldr	r6, [r3]
 439 012a 3046     		mov	r0, r6
 440              	.LVL36:
 441 012c FFF7FEFF 		bl	Cy_BLE_IsDeviceAddressValid
 442              	.LVL37:
 443 0130 60B1     		cbz	r0, .L64
 338:Generated_Source\PSoC6\pdl\middleware\ble/cy_ble_event_handler.c ****             {
 339:Generated_Source\PSoC6\pdl\middleware\ble/cy_ble_event_handler.c ****                 (void)Cy_BLE_GAP_SetBdAddress(cy_ble_sflashDeviceAddress);
 444              		.loc 1 339 0
 445 0132 3046     		mov	r0, r6
 446 0134 FFF7FEFF 		bl	Cy_BLE_GAP_SetBdAddress
 447              	.LVL38:
 340:Generated_Source\PSoC6\pdl\middleware\ble/cy_ble_event_handler.c ****                 
 341:Generated_Source\PSoC6\pdl\middleware\ble/cy_ble_event_handler.c ****                 #if (CY_BLE_GAP_ROLE_PERIPHERAL || CY_BLE_GAP_ROLE_BROADCASTER)
 342:Generated_Source\PSoC6\pdl\middleware\ble/cy_ble_event_handler.c ****                 Cy_BLE_ChangeAdDeviceAddress(cy_ble_sflashDeviceAddress, 0u);
 448              		.loc 1 342 0
 449 0138 764E     		ldr	r6, .L103+4
 450 013a 0021     		movs	r1, #0
 451 013c 3068     		ldr	r0, [r6]
 452 013e FFF7FEFF 		bl	Cy_BLE_ChangeAdDeviceAddress
 453              	.LVL39:
 343:Generated_Source\PSoC6\pdl\middleware\ble/cy_ble_event_handler.c ****                 Cy_BLE_ChangeAdDeviceAddress(cy_ble_sflashDeviceAddress, 1u);
 454              		.loc 1 343 0
 455 0142 0121     		movs	r1, #1
 456 0144 3068     		ldr	r0, [r6]
 457 0146 FFF7FEFF 		bl	Cy_BLE_ChangeAdDeviceAddress
 458              	.LVL40:
 459 014a 37E0     		b	.L65
 460              	.L64:
 344:Generated_Source\PSoC6\pdl\middleware\ble/cy_ble_event_handler.c ****                 #endif /* CY_BLE_GAP_ROLE_PERIPHERAL || CY_BLE_GAP_ROLE_BROADCASTER */
 345:Generated_Source\PSoC6\pdl\middleware\ble/cy_ble_event_handler.c ****             }
 346:Generated_Source\PSoC6\pdl\middleware\ble/cy_ble_event_handler.c ****             else
 347:Generated_Source\PSoC6\pdl\middleware\ble/cy_ble_event_handler.c ****             {
 348:Generated_Source\PSoC6\pdl\middleware\ble/cy_ble_event_handler.c ****                 if(cy_ble_configPtr->params->siliconDeviceAddressEnabled != 0u)
 461              		.loc 1 348 0
 462 014c 724B     		ldr	r3, .L103+8
 463 014e 1A68     		ldr	r2, [r3]
 464 0150 936A     		ldr	r3, [r2, #40]
 465 0152 1B79     		ldrb	r3, [r3, #4]	@ zero_extendqisi2
 466 0154 1BB3     		cbz	r3, .L66
 467              	.LBB80:
 349:Generated_Source\PSoC6\pdl\middleware\ble/cy_ble_event_handler.c ****                 {
 350:Generated_Source\PSoC6\pdl\middleware\ble/cy_ble_event_handler.c ****                     uint32_t bdAddrLoc;
 351:Generated_Source\PSoC6\pdl\middleware\ble/cy_ble_event_handler.c ****                     bdAddrLoc = ((uint32_t)SFLASH->DIE_X & (uint32_t)CY_BLE_SFLASH_DIE_X_MASK) |
 468              		.loc 1 351 0
 469 0156 4FF0B051 		mov	r1, #369098752
 470 015a 91F80436 		ldrb	r3, [r1, #1540]	@ zero_extendqisi2
 471 015e 03F03F03 		and	r3, r3, #63
 352:Generated_Source\PSoC6\pdl\middleware\ble/cy_ble_event_handler.c ****                                 ((uint32_t)(((uint32_t)SFLASH->DIE_Y) & ((uint32_t)CY_BLE_SFLASH_DI
 472              		.loc 1 352 0
ARM GAS  C:\Users\hkmnt\AppData\Local\Temp\ccBdSSuH.s 			page 16


 473 0162 91F80506 		ldrb	r0, [r1, #1541]	@ zero_extendqisi2
 474 0166 00F03F00 		and	r0, r0, #63
 351:Generated_Source\PSoC6\pdl\middleware\ble/cy_ble_event_handler.c ****                                 ((uint32_t)(((uint32_t)SFLASH->DIE_Y) & ((uint32_t)CY_BLE_SFLASH_DI
 475              		.loc 1 351 0
 476 016a 43EA8013 		orr	r3, r3, r0, lsl #6
 353:Generated_Source\PSoC6\pdl\middleware\ble/cy_ble_event_handler.c ****                                  CY_BLE_SFLASH_DIE_X_BITS) |
 354:Generated_Source\PSoC6\pdl\middleware\ble/cy_ble_event_handler.c ****                                 ((uint32_t)(((uint32_t)SFLASH->DIE_WAFER) & ((uint32_t)CY_BLE_SFLAS
 477              		.loc 1 354 0
 478 016e 91F80306 		ldrb	r0, [r1, #1539]	@ zero_extendqisi2
 479 0172 00F01F00 		and	r0, r0, #31
 353:Generated_Source\PSoC6\pdl\middleware\ble/cy_ble_event_handler.c ****                                  CY_BLE_SFLASH_DIE_X_BITS) |
 480              		.loc 1 353 0
 481 0176 43EA0033 		orr	r3, r3, r0, lsl #12
 355:Generated_Source\PSoC6\pdl\middleware\ble/cy_ble_event_handler.c ****                                  CY_BLE_SFLASH_DIE_XY_BITS) |
 356:Generated_Source\PSoC6\pdl\middleware\ble/cy_ble_event_handler.c ****                                 ((uint32_t)(((uint32_t)SFLASH->DIE_LOT[0]) & ((uint32_t)CY_BLE_SFLA
 482              		.loc 1 356 0
 483 017a 91F80016 		ldrb	r1, [r1, #1536]	@ zero_extendqisi2
 484 017e 01F07F01 		and	r1, r1, #127
 351:Generated_Source\PSoC6\pdl\middleware\ble/cy_ble_event_handler.c ****                                 ((uint32_t)(((uint32_t)SFLASH->DIE_Y) & ((uint32_t)CY_BLE_SFLASH_DI
 485              		.loc 1 351 0
 486 0182 43EA4143 		orr	r3, r3, r1, lsl #17
 487              	.LVL41:
 357:Generated_Source\PSoC6\pdl\middleware\ble/cy_ble_event_handler.c ****                                  CY_BLE_SFLASH_DIE_XYWAFER_BITS);
 358:Generated_Source\PSoC6\pdl\middleware\ble/cy_ble_event_handler.c **** 
 359:Generated_Source\PSoC6\pdl\middleware\ble/cy_ble_event_handler.c ****                     cy_ble_configPtr->deviceAddress->bdAddr[0] = (uint8_t)bdAddrLoc;
 488              		.loc 1 359 0
 489 0186 126B     		ldr	r2, [r2, #48]
 490 0188 1370     		strb	r3, [r2]
 360:Generated_Source\PSoC6\pdl\middleware\ble/cy_ble_event_handler.c ****                     cy_ble_configPtr->deviceAddress->bdAddr[1] = (uint8_t)(bdAddrLoc >> 8u);
 491              		.loc 1 360 0
 492 018a 634A     		ldr	r2, .L103+8
 493 018c 1168     		ldr	r1, [r2]
 494 018e 096B     		ldr	r1, [r1, #48]
 495 0190 C3F30720 		ubfx	r0, r3, #8, #8
 496 0194 4870     		strb	r0, [r1, #1]
 361:Generated_Source\PSoC6\pdl\middleware\ble/cy_ble_event_handler.c ****                     cy_ble_configPtr->deviceAddress->bdAddr[2] = (uint8_t)(bdAddrLoc >> 16u);
 497              		.loc 1 361 0
 498 0196 1268     		ldr	r2, [r2]
 499 0198 126B     		ldr	r2, [r2, #48]
 500 019a 1B0C     		lsrs	r3, r3, #16
 501              	.LVL42:
 502 019c 9370     		strb	r3, [r2, #2]
 503              	.L66:
 504              	.LBE80:
 362:Generated_Source\PSoC6\pdl\middleware\ble/cy_ble_event_handler.c ****                 }
 363:Generated_Source\PSoC6\pdl\middleware\ble/cy_ble_event_handler.c ****                 (void)Cy_BLE_GAP_SetBdAddress(cy_ble_configPtr->deviceAddress);
 505              		.loc 1 363 0
 506 019e 5E4E     		ldr	r6, .L103+8
 507 01a0 3368     		ldr	r3, [r6]
 508 01a2 186B     		ldr	r0, [r3, #48]
 509 01a4 FFF7FEFF 		bl	Cy_BLE_GAP_SetBdAddress
 510              	.LVL43:
 364:Generated_Source\PSoC6\pdl\middleware\ble/cy_ble_event_handler.c **** 
 365:Generated_Source\PSoC6\pdl\middleware\ble/cy_ble_event_handler.c ****                 #if (CY_BLE_GAP_ROLE_PERIPHERAL || CY_BLE_GAP_ROLE_BROADCASTER)
 366:Generated_Source\PSoC6\pdl\middleware\ble/cy_ble_event_handler.c ****                 Cy_BLE_ChangeAdDeviceAddress(cy_ble_configPtr->deviceAddress, 0u);
 511              		.loc 1 366 0
 512 01a8 3368     		ldr	r3, [r6]
ARM GAS  C:\Users\hkmnt\AppData\Local\Temp\ccBdSSuH.s 			page 17


 513 01aa 0021     		movs	r1, #0
 514 01ac 186B     		ldr	r0, [r3, #48]
 515 01ae FFF7FEFF 		bl	Cy_BLE_ChangeAdDeviceAddress
 516              	.LVL44:
 367:Generated_Source\PSoC6\pdl\middleware\ble/cy_ble_event_handler.c ****                 Cy_BLE_ChangeAdDeviceAddress(cy_ble_configPtr->deviceAddress, 1u);
 517              		.loc 1 367 0
 518 01b2 3368     		ldr	r3, [r6]
 519 01b4 0121     		movs	r1, #1
 520 01b6 186B     		ldr	r0, [r3, #48]
 521 01b8 FFF7FEFF 		bl	Cy_BLE_ChangeAdDeviceAddress
 522              	.LVL45:
 523              	.L65:
 368:Generated_Source\PSoC6\pdl\middleware\ble/cy_ble_event_handler.c ****                 #endif /* CY_BLE_GAP_ROLE_PERIPHERAL || CY_BLE_GAP_ROLE_BROADCASTER */
 369:Generated_Source\PSoC6\pdl\middleware\ble/cy_ble_event_handler.c ****             }
 370:Generated_Source\PSoC6\pdl\middleware\ble/cy_ble_event_handler.c ****             
 371:Generated_Source\PSoC6\pdl\middleware\ble/cy_ble_event_handler.c ****             /* Set the device IO Capability  */
 372:Generated_Source\PSoC6\pdl\middleware\ble/cy_ble_event_handler.c ****             (void)Cy_BLE_GAP_SetIoCap((cy_en_ble_gap_iocap_t*)&cy_ble_configPtr->params->securityIo
 524              		.loc 1 372 0
 525 01bc 564B     		ldr	r3, .L103+8
 526 01be 1B68     		ldr	r3, [r3]
 527 01c0 986A     		ldr	r0, [r3, #40]
 528 01c2 0230     		adds	r0, r0, #2
 529 01c4 FFF7FEFF 		bl	Cy_BLE_GAP_SetIoCap
 530              	.LVL46:
 531              	.LBB81:
 373:Generated_Source\PSoC6\pdl\middleware\ble/cy_ble_event_handler.c ****             
 374:Generated_Source\PSoC6\pdl\middleware\ble/cy_ble_event_handler.c ****             /* Enable all 4.1 events and configured 4.2 events */  
 375:Generated_Source\PSoC6\pdl\middleware\ble/cy_ble_event_handler.c ****             {
 376:Generated_Source\PSoC6\pdl\middleware\ble/cy_ble_event_handler.c ****                 uint8_t leMask[CY_BLE_LE_MASK_LENGTH] = { CY_LO8(CY_BLE_LE_MASK),
 532              		.loc 1 376 0
 533 01c8 544A     		ldr	r2, .L103+12
 534 01ca 04AB     		add	r3, sp, #16
 535 01cc 1068     		ldr	r0, [r2]	@ unaligned
 536 01ce 5168     		ldr	r1, [r2, #4]	@ unaligned
 537 01d0 03C3     		stmia	r3!, {r0, r1}
 377:Generated_Source\PSoC6\pdl\middleware\ble/cy_ble_event_handler.c ****                                                           CY_HI8(CY_BLE_LE_MASK),0u,  0u, 0u, 0u, 0
 378:Generated_Source\PSoC6\pdl\middleware\ble/cy_ble_event_handler.c ****                 (void)Cy_BLE_SetLeEventMask(leMask);
 538              		.loc 1 378 0
 539 01d2 04A8     		add	r0, sp, #16
 540 01d4 FFF7FEFF 		bl	Cy_BLE_SetLeEventMask
 541              	.LVL47:
 542              	.LBE81:
 379:Generated_Source\PSoC6\pdl\middleware\ble/cy_ble_event_handler.c ****             }
 380:Generated_Source\PSoC6\pdl\middleware\ble/cy_ble_event_handler.c ****         
 381:Generated_Source\PSoC6\pdl\middleware\ble/cy_ble_event_handler.c ****             /* Update BLE state  */
 382:Generated_Source\PSoC6\pdl\middleware\ble/cy_ble_event_handler.c ****             Cy_BLE_SetState(CY_BLE_STATE_ON);
 543              		.loc 1 382 0
 544 01d8 0222     		movs	r2, #2
 545 01da 514B     		ldr	r3, .L103+16
 546 01dc 1A70     		strb	r2, [r3]
 383:Generated_Source\PSoC6\pdl\middleware\ble/cy_ble_event_handler.c ****             break;
 547              		.loc 1 383 0
 548 01de FDE1     		b	.L34
 549              	.LVL48:
 550              	.L37:
 384:Generated_Source\PSoC6\pdl\middleware\ble/cy_ble_event_handler.c **** 
 385:Generated_Source\PSoC6\pdl\middleware\ble/cy_ble_event_handler.c **** 
ARM GAS  C:\Users\hkmnt\AppData\Local\Temp\ccBdSSuH.s 			page 18


 386:Generated_Source\PSoC6\pdl\middleware\ble/cy_ble_event_handler.c ****         case CY_BLE_EVT_SOFT_RESET_COMPLETE:
 387:Generated_Source\PSoC6\pdl\middleware\ble/cy_ble_event_handler.c ****         case CY_BLE_EVT_STACK_SHUTDOWN_COMPLETE:
 388:Generated_Source\PSoC6\pdl\middleware\ble/cy_ble_event_handler.c ****             
 389:Generated_Source\PSoC6\pdl\middleware\ble/cy_ble_event_handler.c ****             /* Update BLE / Adv. / Scan states  */
 390:Generated_Source\PSoC6\pdl\middleware\ble/cy_ble_event_handler.c ****             Cy_BLE_SetState(CY_BLE_STATE_STOPPED);
 551              		.loc 1 390 0
 552 01e0 0023     		movs	r3, #0
 553 01e2 4F4A     		ldr	r2, .L103+16
 554 01e4 1370     		strb	r3, [r2]
 555              	.LVL49:
 556              	.LBB82:
 557              	.LBB83:
 558              		.file 2 "Generated_Source\\PSoC6\\pdl\\middleware\\ble\\cy_ble_gap.h"
   1:Generated_Source\PSoC6\pdl\middleware\ble/cy_ble_gap.h **** /***************************************************************************//**
   2:Generated_Source\PSoC6\pdl\middleware\ble/cy_ble_gap.h **** * \file cy_ble_gap.h
   3:Generated_Source\PSoC6\pdl\middleware\ble/cy_ble_gap.h **** * \version 2.60
   4:Generated_Source\PSoC6\pdl\middleware\ble/cy_ble_gap.h **** *
   5:Generated_Source\PSoC6\pdl\middleware\ble/cy_ble_gap.h **** * \brief
   6:Generated_Source\PSoC6\pdl\middleware\ble/cy_ble_gap.h **** *  Contains the prototypes and constants used in the BLE GAP profile.
   7:Generated_Source\PSoC6\pdl\middleware\ble/cy_ble_gap.h **** *
   8:Generated_Source\PSoC6\pdl\middleware\ble/cy_ble_gap.h **** ********************************************************************************
   9:Generated_Source\PSoC6\pdl\middleware\ble/cy_ble_gap.h **** * \copyright
  10:Generated_Source\PSoC6\pdl\middleware\ble/cy_ble_gap.h **** * Copyright 2017-2020, Cypress Semiconductor Corporation.  All rights reserved.
  11:Generated_Source\PSoC6\pdl\middleware\ble/cy_ble_gap.h **** * You may use this file only in accordance with the license, terms, conditions,
  12:Generated_Source\PSoC6\pdl\middleware\ble/cy_ble_gap.h **** * disclaimers, and limitations in the end user license agreement accompanying
  13:Generated_Source\PSoC6\pdl\middleware\ble/cy_ble_gap.h **** * the software package with which this file was provided.
  14:Generated_Source\PSoC6\pdl\middleware\ble/cy_ble_gap.h **** *******************************************************************************/
  15:Generated_Source\PSoC6\pdl\middleware\ble/cy_ble_gap.h **** 
  16:Generated_Source\PSoC6\pdl\middleware\ble/cy_ble_gap.h **** 
  17:Generated_Source\PSoC6\pdl\middleware\ble/cy_ble_gap.h **** #ifndef CY_BLE_GAP_H
  18:Generated_Source\PSoC6\pdl\middleware\ble/cy_ble_gap.h **** #define CY_BLE_GAP_H
  19:Generated_Source\PSoC6\pdl\middleware\ble/cy_ble_gap.h ****     
  20:Generated_Source\PSoC6\pdl\middleware\ble/cy_ble_gap.h **** #include "cy_ble_config.h"
  21:Generated_Source\PSoC6\pdl\middleware\ble/cy_ble_gap.h **** 
  22:Generated_Source\PSoC6\pdl\middleware\ble/cy_ble_gap.h **** /***************************************
  23:Generated_Source\PSoC6\pdl\middleware\ble/cy_ble_gap.h **** * BLE Stack includes
  24:Generated_Source\PSoC6\pdl\middleware\ble/cy_ble_gap.h **** ***************************************/
  25:Generated_Source\PSoC6\pdl\middleware\ble/cy_ble_gap.h **** #include "cy_ble_stack_gatt.h"    
  26:Generated_Source\PSoC6\pdl\middleware\ble/cy_ble_gap.h **** #include "cy_ble_stack_gap.h"
  27:Generated_Source\PSoC6\pdl\middleware\ble/cy_ble_gap.h **** #include "cy_ble_stack_gap_central.h"
  28:Generated_Source\PSoC6\pdl\middleware\ble/cy_ble_gap.h **** #include "cy_ble_stack_gap_peripheral.h"
  29:Generated_Source\PSoC6\pdl\middleware\ble/cy_ble_gap.h **** 
  30:Generated_Source\PSoC6\pdl\middleware\ble/cy_ble_gap.h **** /* C binding of definitions if building with C++ compiler */
  31:Generated_Source\PSoC6\pdl\middleware\ble/cy_ble_gap.h **** #ifdef __cplusplus
  32:Generated_Source\PSoC6\pdl\middleware\ble/cy_ble_gap.h **** extern "C" {
  33:Generated_Source\PSoC6\pdl\middleware\ble/cy_ble_gap.h **** #endif /* __cplusplus */
  34:Generated_Source\PSoC6\pdl\middleware\ble/cy_ble_gap.h **** 
  35:Generated_Source\PSoC6\pdl\middleware\ble/cy_ble_gap.h **** /***************************************
  36:Generated_Source\PSoC6\pdl\middleware\ble/cy_ble_gap.h **** * Conditional Compilation Parameters
  37:Generated_Source\PSoC6\pdl\middleware\ble/cy_ble_gap.h **** ***************************************/
  38:Generated_Source\PSoC6\pdl\middleware\ble/cy_ble_gap.h **** /**
  39:Generated_Source\PSoC6\pdl\middleware\ble/cy_ble_gap.h ****  * The BLE operation mode.
  40:Generated_Source\PSoC6\pdl\middleware\ble/cy_ble_gap.h ****  */
  41:Generated_Source\PSoC6\pdl\middleware\ble/cy_ble_gap.h **** #define CY_BLE_MODE                          (CY_BLE_CONFIG_MODE)
  42:Generated_Source\PSoC6\pdl\middleware\ble/cy_ble_gap.h **** 
  43:Generated_Source\PSoC6\pdl\middleware\ble/cy_ble_gap.h **** /** 
  44:Generated_Source\PSoC6\pdl\middleware\ble/cy_ble_gap.h ****  * Maximum number of BLE connections
ARM GAS  C:\Users\hkmnt\AppData\Local\Temp\ccBdSSuH.s 			page 19


  45:Generated_Source\PSoC6\pdl\middleware\ble/cy_ble_gap.h ****  * This parameter displays how many BLE connections (both Central and 
  46:Generated_Source\PSoC6\pdl\middleware\ble/cy_ble_gap.h ****  * Peripheral) are allowed. Valid range is from 1 to 4.
  47:Generated_Source\PSoC6\pdl\middleware\ble/cy_ble_gap.h ****  */
  48:Generated_Source\PSoC6\pdl\middleware\ble/cy_ble_gap.h **** #define CY_BLE_CONN_COUNT                    (CY_BLE_CONFIG_CONN_COUNT)
  49:Generated_Source\PSoC6\pdl\middleware\ble/cy_ble_gap.h ****  
  50:Generated_Source\PSoC6\pdl\middleware\ble/cy_ble_gap.h **** /**
  51:Generated_Source\PSoC6\pdl\middleware\ble/cy_ble_gap.h ****  * The GAP Role 
  52:Generated_Source\PSoC6\pdl\middleware\ble/cy_ble_gap.h ****  * The following defined mask can be used:
  53:Generated_Source\PSoC6\pdl\middleware\ble/cy_ble_gap.h ****  * CY_BLE_GAP_PERIPHERAL  (0x01u) - device operates as peripheral.
  54:Generated_Source\PSoC6\pdl\middleware\ble/cy_ble_gap.h ****  * CY_BLE_GAP_CENTRAL     (0x02u) - device operates as central. 
  55:Generated_Source\PSoC6\pdl\middleware\ble/cy_ble_gap.h ****  * CY_BLE_GAP_BROADCASTER (0x04u) - device operates as broadcaster.
  56:Generated_Source\PSoC6\pdl\middleware\ble/cy_ble_gap.h ****  * CY_BLE_GAP_OBSERVER    (0x08u) - device operates as observer.
  57:Generated_Source\PSoC6\pdl\middleware\ble/cy_ble_gap.h ****  * CY_BLE_GAP_HCI         (0x00u) - used when BLE operates in HCI mode.
  58:Generated_Source\PSoC6\pdl\middleware\ble/cy_ble_gap.h ****  */ 
  59:Generated_Source\PSoC6\pdl\middleware\ble/cy_ble_gap.h **** #define CY_BLE_GAP_ROLE                       (CY_BLE_CONFIG_GAP_ROLE)
  60:Generated_Source\PSoC6\pdl\middleware\ble/cy_ble_gap.h **** 
  61:Generated_Source\PSoC6\pdl\middleware\ble/cy_ble_gap.h **** /** The number of GAP Peripheral configurations structures */
  62:Generated_Source\PSoC6\pdl\middleware\ble/cy_ble_gap.h **** #define CY_BLE_GAP_PERIPHERAL_COUNT           (CY_BLE_CONFIG_GAP_PERIPHERAL_COUNT)
  63:Generated_Source\PSoC6\pdl\middleware\ble/cy_ble_gap.h **** 
  64:Generated_Source\PSoC6\pdl\middleware\ble/cy_ble_gap.h **** /** The number of GAP Broadcaster configurations structures */
  65:Generated_Source\PSoC6\pdl\middleware\ble/cy_ble_gap.h **** #define CY_BLE_GAP_BROADCASTER_COUNT          (CY_BLE_CONFIG_GAP_BROADCASTER_COUNT)
  66:Generated_Source\PSoC6\pdl\middleware\ble/cy_ble_gap.h **** 
  67:Generated_Source\PSoC6\pdl\middleware\ble/cy_ble_gap.h **** /** The number of GAP Central configurations structures */
  68:Generated_Source\PSoC6\pdl\middleware\ble/cy_ble_gap.h **** #define CY_BLE_GAP_CENTRAL_COUNT              (CY_BLE_CONFIG_GAP_CENTRAL_COUNT)
  69:Generated_Source\PSoC6\pdl\middleware\ble/cy_ble_gap.h **** 
  70:Generated_Source\PSoC6\pdl\middleware\ble/cy_ble_gap.h **** /** The number of GAP Observer configurations structures */
  71:Generated_Source\PSoC6\pdl\middleware\ble/cy_ble_gap.h **** #define CY_BLE_GAP_OBSERVER_COUNT             (CY_BLE_CONFIG_GAP_OBSERVER_COUNT)
  72:Generated_Source\PSoC6\pdl\middleware\ble/cy_ble_gap.h **** 
  73:Generated_Source\PSoC6\pdl\middleware\ble/cy_ble_gap.h **** /** The number of Security configurations structures */
  74:Generated_Source\PSoC6\pdl\middleware\ble/cy_ble_gap.h **** #define CY_BLE_AUTH_INFO_COUNT                (CY_BLE_CONFIG_AUTH_INFO_COUNT)
  75:Generated_Source\PSoC6\pdl\middleware\ble/cy_ble_gap.h **** 
  76:Generated_Source\PSoC6\pdl\middleware\ble/cy_ble_gap.h **** /** The Bonding Requirement structures */
  77:Generated_Source\PSoC6\pdl\middleware\ble/cy_ble_gap.h **** #define CY_BLE_BONDING_REQUIREMENT            (CY_BLE_CONFIG_BONDING_REQUIREMENT)
  78:Generated_Source\PSoC6\pdl\middleware\ble/cy_ble_gap.h **** 
  79:Generated_Source\PSoC6\pdl\middleware\ble/cy_ble_gap.h **** /** The GAP Role defines */
  80:Generated_Source\PSoC6\pdl\middleware\ble/cy_ble_gap.h **** #define CY_BLE_GAP_ROLE_PERIPHERAL            (0u != (CY_BLE_GAP_ROLE & CY_BLE_GAP_PERIPHERAL))
  81:Generated_Source\PSoC6\pdl\middleware\ble/cy_ble_gap.h **** #define CY_BLE_GAP_ROLE_CENTRAL               (0u != (CY_BLE_GAP_ROLE & CY_BLE_GAP_CENTRAL))
  82:Generated_Source\PSoC6\pdl\middleware\ble/cy_ble_gap.h **** #define CY_BLE_GAP_ROLE_OBSERVER              (0u != (CY_BLE_GAP_ROLE & CY_BLE_GAP_OBSERVER))
  83:Generated_Source\PSoC6\pdl\middleware\ble/cy_ble_gap.h **** #define CY_BLE_GAP_ROLE_BROADCASTER           (0u != (CY_BLE_GAP_ROLE & CY_BLE_GAP_BROADCASTER))
  84:Generated_Source\PSoC6\pdl\middleware\ble/cy_ble_gap.h **** 
  85:Generated_Source\PSoC6\pdl\middleware\ble/cy_ble_gap.h **** #define CY_BLE_GAPP_CONF_COUNT                (CY_BLE_GAP_PERIPHERAL_COUNT + CY_BLE_GAP_BROADCASTER
  86:Generated_Source\PSoC6\pdl\middleware\ble/cy_ble_gap.h **** #define CY_BLE_GAPC_CONF_COUNT                (CY_BLE_GAP_CENTRAL_COUNT + CY_BLE_GAP_OBSERVER_COUNT
  87:Generated_Source\PSoC6\pdl\middleware\ble/cy_ble_gap.h **** 
  88:Generated_Source\PSoC6\pdl\middleware\ble/cy_ble_gap.h **** /***************************************
  89:Generated_Source\PSoC6\pdl\middleware\ble/cy_ble_gap.h **** * Type Definitions
  90:Generated_Source\PSoC6\pdl\middleware\ble/cy_ble_gap.h **** ***************************************/
  91:Generated_Source\PSoC6\pdl\middleware\ble/cy_ble_gap.h **** 
  92:Generated_Source\PSoC6\pdl\middleware\ble/cy_ble_gap.h **** #if (CY_BLE_MODE_PROFILE)
  93:Generated_Source\PSoC6\pdl\middleware\ble/cy_ble_gap.h **** 
  94:Generated_Source\PSoC6\pdl\middleware\ble/cy_ble_gap.h **** /***************************************
  95:Generated_Source\PSoC6\pdl\middleware\ble/cy_ble_gap.h **** * Enumerated Types and Structures
  96:Generated_Source\PSoC6\pdl\middleware\ble/cy_ble_gap.h **** ***************************************/
  97:Generated_Source\PSoC6\pdl\middleware\ble/cy_ble_gap.h **** 
  98:Generated_Source\PSoC6\pdl\middleware\ble/cy_ble_gap.h **** /**
  99:Generated_Source\PSoC6\pdl\middleware\ble/cy_ble_gap.h ****  * \addtogroup group_ble_common_api_gap_definitions
 100:Generated_Source\PSoC6\pdl\middleware\ble/cy_ble_gap.h ****  * @{
 101:Generated_Source\PSoC6\pdl\middleware\ble/cy_ble_gap.h ****  */
ARM GAS  C:\Users\hkmnt\AppData\Local\Temp\ccBdSSuH.s 			page 20


 102:Generated_Source\PSoC6\pdl\middleware\ble/cy_ble_gap.h **** 
 103:Generated_Source\PSoC6\pdl\middleware\ble/cy_ble_gap.h **** /** BLE state machine type */
 104:Generated_Source\PSoC6\pdl\middleware\ble/cy_ble_gap.h **** typedef enum
 105:Generated_Source\PSoC6\pdl\middleware\ble/cy_ble_gap.h **** {
 106:Generated_Source\PSoC6\pdl\middleware\ble/cy_ble_gap.h ****     CY_BLE_STATE_STOPPED,                             /**< BLE is turned off */
 107:Generated_Source\PSoC6\pdl\middleware\ble/cy_ble_gap.h ****     CY_BLE_STATE_INITIALIZING,                        /**< Initializing state */
 108:Generated_Source\PSoC6\pdl\middleware\ble/cy_ble_gap.h ****     CY_BLE_STATE_ON,                                  /**< BLE is turned on */
 109:Generated_Source\PSoC6\pdl\middleware\ble/cy_ble_gap.h **** #if (CY_BLE_GAP_ROLE_CENTRAL)
 110:Generated_Source\PSoC6\pdl\middleware\ble/cy_ble_gap.h ****     CY_BLE_STATE_CONNECTING,                          /**< Connecting */
 111:Generated_Source\PSoC6\pdl\middleware\ble/cy_ble_gap.h **** #endif /* CY_BLE_GAP_ROLE_CENTRAL */
 112:Generated_Source\PSoC6\pdl\middleware\ble/cy_ble_gap.h **** } cy_en_ble_state_t;
 113:Generated_Source\PSoC6\pdl\middleware\ble/cy_ble_gap.h **** 
 114:Generated_Source\PSoC6\pdl\middleware\ble/cy_ble_gap.h **** 
 115:Generated_Source\PSoC6\pdl\middleware\ble/cy_ble_gap.h **** /** Scanning state machine type */
 116:Generated_Source\PSoC6\pdl\middleware\ble/cy_ble_gap.h **** typedef enum
 117:Generated_Source\PSoC6\pdl\middleware\ble/cy_ble_gap.h **** {
 118:Generated_Source\PSoC6\pdl\middleware\ble/cy_ble_gap.h ****     CY_BLE_SCAN_STATE_STOPPED,                        /**< Scanning is stopped */
 119:Generated_Source\PSoC6\pdl\middleware\ble/cy_ble_gap.h ****     CY_BLE_SCAN_STATE_SCAN_INITIATED,                 /**< Scanning is initiated */
 120:Generated_Source\PSoC6\pdl\middleware\ble/cy_ble_gap.h ****     CY_BLE_SCAN_STATE_SCANNING,                       /**< Scanning process */
 121:Generated_Source\PSoC6\pdl\middleware\ble/cy_ble_gap.h ****     CY_BLE_SCAN_STATE_STOP_INITIATED                  /**< Stop scanning is initiated */
 122:Generated_Source\PSoC6\pdl\middleware\ble/cy_ble_gap.h **** } cy_en_ble_scan_state_t;
 123:Generated_Source\PSoC6\pdl\middleware\ble/cy_ble_gap.h **** 
 124:Generated_Source\PSoC6\pdl\middleware\ble/cy_ble_gap.h **** /** Advertising state machine type */
 125:Generated_Source\PSoC6\pdl\middleware\ble/cy_ble_gap.h **** typedef enum
 126:Generated_Source\PSoC6\pdl\middleware\ble/cy_ble_gap.h **** {
 127:Generated_Source\PSoC6\pdl\middleware\ble/cy_ble_gap.h ****     CY_BLE_ADV_STATE_STOPPED,                         /**< Advertising is stopped */
 128:Generated_Source\PSoC6\pdl\middleware\ble/cy_ble_gap.h ****     CY_BLE_ADV_STATE_ADV_INITIATED,                   /**< Advertising is initiated */
 129:Generated_Source\PSoC6\pdl\middleware\ble/cy_ble_gap.h ****     CY_BLE_ADV_STATE_ADVERTISING,                     /**< Advertising process */
 130:Generated_Source\PSoC6\pdl\middleware\ble/cy_ble_gap.h ****     CY_BLE_ADV_STATE_STOP_INITIATED                   /**< Stop advertising is initiated */
 131:Generated_Source\PSoC6\pdl\middleware\ble/cy_ble_gap.h **** } cy_en_ble_adv_state_t;
 132:Generated_Source\PSoC6\pdl\middleware\ble/cy_ble_gap.h **** 
 133:Generated_Source\PSoC6\pdl\middleware\ble/cy_ble_gap.h **** /** Connection state machine type */
 134:Generated_Source\PSoC6\pdl\middleware\ble/cy_ble_gap.h **** typedef enum
 135:Generated_Source\PSoC6\pdl\middleware\ble/cy_ble_gap.h **** {
 136:Generated_Source\PSoC6\pdl\middleware\ble/cy_ble_gap.h ****     CY_BLE_CONN_STATE_DISCONNECTED,                   /**< Essentially idle state */
 137:Generated_Source\PSoC6\pdl\middleware\ble/cy_ble_gap.h ****     CY_BLE_CONN_STATE_CLIENT_DISCONNECTED_DISCOVERED, /**< Server is disconnected but discovered */
 138:Generated_Source\PSoC6\pdl\middleware\ble/cy_ble_gap.h ****     CY_BLE_CONN_STATE_CONNECTED,                      /**< Peer device is connected for this and fo
 139:Generated_Source\PSoC6\pdl\middleware\ble/cy_ble_gap.h ****     CY_BLE_CONN_STATE_CLIENT_SRVC_DISCOVERING,        /**< Server services are being discovered */
 140:Generated_Source\PSoC6\pdl\middleware\ble/cy_ble_gap.h ****     CY_BLE_CONN_STATE_CLIENT_INCL_DISCOVERING,        /**< Server included services are being disco
 141:Generated_Source\PSoC6\pdl\middleware\ble/cy_ble_gap.h ****     CY_BLE_CONN_STATE_CLIENT_CHAR_DISCOVERING,        /**< Server characteristics are being discove
 142:Generated_Source\PSoC6\pdl\middleware\ble/cy_ble_gap.h ****     CY_BLE_CONN_STATE_CLIENT_DESCR_DISCOVERING,       /**< Server char. descriptors are being disco
 143:Generated_Source\PSoC6\pdl\middleware\ble/cy_ble_gap.h ****     CY_BLE_CONN_STATE_CLIENT_DISCOVERED               /**< Server is discovered */
 144:Generated_Source\PSoC6\pdl\middleware\ble/cy_ble_gap.h **** } cy_en_ble_conn_state_t;
 145:Generated_Source\PSoC6\pdl\middleware\ble/cy_ble_gap.h **** 
 146:Generated_Source\PSoC6\pdl\middleware\ble/cy_ble_gap.h **** /** Structure with Generic Access Profile Service (GAPS) attribute handles */
 147:Generated_Source\PSoC6\pdl\middleware\ble/cy_ble_gap.h **** typedef struct
 148:Generated_Source\PSoC6\pdl\middleware\ble/cy_ble_gap.h **** {
 149:Generated_Source\PSoC6\pdl\middleware\ble/cy_ble_gap.h ****     /** Service handle*/
 150:Generated_Source\PSoC6\pdl\middleware\ble/cy_ble_gap.h ****     cy_ble_gatt_db_attr_handle_t serviceHandle;
 151:Generated_Source\PSoC6\pdl\middleware\ble/cy_ble_gap.h **** 
 152:Generated_Source\PSoC6\pdl\middleware\ble/cy_ble_gap.h ****     /** Handle of the GAPS Device Name Characteristic */
 153:Generated_Source\PSoC6\pdl\middleware\ble/cy_ble_gap.h ****     cy_ble_gatt_db_attr_handle_t deviceNameCharHandle;
 154:Generated_Source\PSoC6\pdl\middleware\ble/cy_ble_gap.h **** 
 155:Generated_Source\PSoC6\pdl\middleware\ble/cy_ble_gap.h ****     /** Handle of the GAPS Appearance Characteristic */
 156:Generated_Source\PSoC6\pdl\middleware\ble/cy_ble_gap.h ****     cy_ble_gatt_db_attr_handle_t appearanceCharHandle;
 157:Generated_Source\PSoC6\pdl\middleware\ble/cy_ble_gap.h **** 
 158:Generated_Source\PSoC6\pdl\middleware\ble/cy_ble_gap.h ****     /** Handle of the GAPS Peripheral Preferred Connection Parameters Characteristic */
ARM GAS  C:\Users\hkmnt\AppData\Local\Temp\ccBdSSuH.s 			page 21


 159:Generated_Source\PSoC6\pdl\middleware\ble/cy_ble_gap.h ****     cy_ble_gatt_db_attr_handle_t prefConnParamCharHandle;
 160:Generated_Source\PSoC6\pdl\middleware\ble/cy_ble_gap.h **** 
 161:Generated_Source\PSoC6\pdl\middleware\ble/cy_ble_gap.h ****     /** Handle of the GAPS Central Address Resolution characteristic */
 162:Generated_Source\PSoC6\pdl\middleware\ble/cy_ble_gap.h ****     cy_ble_gatt_db_attr_handle_t centralAddrResolutionCharHandle;
 163:Generated_Source\PSoC6\pdl\middleware\ble/cy_ble_gap.h **** 
 164:Generated_Source\PSoC6\pdl\middleware\ble/cy_ble_gap.h ****     /** Handle of the GAPS Resolvable Private Address Only characteristic */
 165:Generated_Source\PSoC6\pdl\middleware\ble/cy_ble_gap.h ****     cy_ble_gatt_db_attr_handle_t resolvablePrivateAddressOnly;
 166:Generated_Source\PSoC6\pdl\middleware\ble/cy_ble_gap.h **** } cy_stc_ble_gaps_t;
 167:Generated_Source\PSoC6\pdl\middleware\ble/cy_ble_gap.h **** 
 168:Generated_Source\PSoC6\pdl\middleware\ble/cy_ble_gap.h **** /** GAP Service characteristics server's GATT DB handles structure type */
 169:Generated_Source\PSoC6\pdl\middleware\ble/cy_ble_gap.h **** typedef struct
 170:Generated_Source\PSoC6\pdl\middleware\ble/cy_ble_gap.h **** {
 171:Generated_Source\PSoC6\pdl\middleware\ble/cy_ble_gap.h ****     /** Handle of the GAPS Device Name Characteristic */
 172:Generated_Source\PSoC6\pdl\middleware\ble/cy_ble_gap.h ****     cy_ble_gatt_db_attr_handle_t deviceNameCharHandle;
 173:Generated_Source\PSoC6\pdl\middleware\ble/cy_ble_gap.h **** 
 174:Generated_Source\PSoC6\pdl\middleware\ble/cy_ble_gap.h ****     /** Handle of the GAPS Appearance Characteristic */
 175:Generated_Source\PSoC6\pdl\middleware\ble/cy_ble_gap.h ****     cy_ble_gatt_db_attr_handle_t appearanceCharHandle;
 176:Generated_Source\PSoC6\pdl\middleware\ble/cy_ble_gap.h **** 
 177:Generated_Source\PSoC6\pdl\middleware\ble/cy_ble_gap.h ****     /** Handle of the GAPS Peripheral Privacy Flag Parameters Characteristic */
 178:Generated_Source\PSoC6\pdl\middleware\ble/cy_ble_gap.h ****     cy_ble_gatt_db_attr_handle_t periphPrivacyCharHandle;
 179:Generated_Source\PSoC6\pdl\middleware\ble/cy_ble_gap.h **** 
 180:Generated_Source\PSoC6\pdl\middleware\ble/cy_ble_gap.h ****     /** Handle of the GAPS Reconnection Address Characteristic */
 181:Generated_Source\PSoC6\pdl\middleware\ble/cy_ble_gap.h ****     cy_ble_gatt_db_attr_handle_t reconnAddrCharHandle;
 182:Generated_Source\PSoC6\pdl\middleware\ble/cy_ble_gap.h **** 
 183:Generated_Source\PSoC6\pdl\middleware\ble/cy_ble_gap.h ****     /** Handle of the GAPS Peripheral Preferred Connection Parameters Characteristic */
 184:Generated_Source\PSoC6\pdl\middleware\ble/cy_ble_gap.h ****     cy_ble_gatt_db_attr_handle_t prefConnParamCharHandle;
 185:Generated_Source\PSoC6\pdl\middleware\ble/cy_ble_gap.h **** 
 186:Generated_Source\PSoC6\pdl\middleware\ble/cy_ble_gap.h ****     /** Handle of the GAPS Central Address Resolution characteristic */
 187:Generated_Source\PSoC6\pdl\middleware\ble/cy_ble_gap.h ****     cy_ble_gatt_db_attr_handle_t centralAddrResolutionCharHandle;
 188:Generated_Source\PSoC6\pdl\middleware\ble/cy_ble_gap.h **** 
 189:Generated_Source\PSoC6\pdl\middleware\ble/cy_ble_gap.h ****     /** Handle of the GAPS Resolvable Private Address Only characteristic */
 190:Generated_Source\PSoC6\pdl\middleware\ble/cy_ble_gap.h ****     cy_ble_gatt_db_attr_handle_t resolvablePrivateAddressOnly;
 191:Generated_Source\PSoC6\pdl\middleware\ble/cy_ble_gap.h **** }cy_stc_ble_gapc_t;
 192:Generated_Source\PSoC6\pdl\middleware\ble/cy_ble_gap.h **** 
 193:Generated_Source\PSoC6\pdl\middleware\ble/cy_ble_gap.h **** /* Stack mode defines */
 194:Generated_Source\PSoC6\pdl\middleware\ble/cy_ble_gap.h **** 
 195:Generated_Source\PSoC6\pdl\middleware\ble/cy_ble_gap.h **** /** Advertisement SIG assigned numbers */
 196:Generated_Source\PSoC6\pdl\middleware\ble/cy_ble_gap.h **** typedef enum
 197:Generated_Source\PSoC6\pdl\middleware\ble/cy_ble_gap.h **** {
 198:Generated_Source\PSoC6\pdl\middleware\ble/cy_ble_gap.h ****     /** Flags */
 199:Generated_Source\PSoC6\pdl\middleware\ble/cy_ble_gap.h ****     CY_BLE_GAP_ADV_FLAGS = 0x01u,
 200:Generated_Source\PSoC6\pdl\middleware\ble/cy_ble_gap.h **** 
 201:Generated_Source\PSoC6\pdl\middleware\ble/cy_ble_gap.h ****     /** Incomplete List of 16-bit Service Class UUIDs */
 202:Generated_Source\PSoC6\pdl\middleware\ble/cy_ble_gap.h ****     CY_BLE_GAP_ADV_INCOMPL_16UUID,
 203:Generated_Source\PSoC6\pdl\middleware\ble/cy_ble_gap.h **** 
 204:Generated_Source\PSoC6\pdl\middleware\ble/cy_ble_gap.h ****     /** Complete List of 16-bit Service Class UUIDs */
 205:Generated_Source\PSoC6\pdl\middleware\ble/cy_ble_gap.h ****     CY_BLE_GAP_ADV_COMPL_16UUID,
 206:Generated_Source\PSoC6\pdl\middleware\ble/cy_ble_gap.h **** 
 207:Generated_Source\PSoC6\pdl\middleware\ble/cy_ble_gap.h ****     /** Incomplete List of 32-bit Service Class UUIDs */
 208:Generated_Source\PSoC6\pdl\middleware\ble/cy_ble_gap.h ****     CY_BLE_GAP_ADV_INCOMPL_32_UUID,
 209:Generated_Source\PSoC6\pdl\middleware\ble/cy_ble_gap.h **** 
 210:Generated_Source\PSoC6\pdl\middleware\ble/cy_ble_gap.h ****     /** Complete List of 32-bit Service Class UUIDs */
 211:Generated_Source\PSoC6\pdl\middleware\ble/cy_ble_gap.h ****     CY_BLE_GAP_ADV_COMPL_32_UUID,
 212:Generated_Source\PSoC6\pdl\middleware\ble/cy_ble_gap.h **** 
 213:Generated_Source\PSoC6\pdl\middleware\ble/cy_ble_gap.h ****     /** Incomplete List of 128-bit Service Class UUIDs */
 214:Generated_Source\PSoC6\pdl\middleware\ble/cy_ble_gap.h ****     CY_BLE_GAP_ADV_INCOMPL_128_UUID,
 215:Generated_Source\PSoC6\pdl\middleware\ble/cy_ble_gap.h **** 
ARM GAS  C:\Users\hkmnt\AppData\Local\Temp\ccBdSSuH.s 			page 22


 216:Generated_Source\PSoC6\pdl\middleware\ble/cy_ble_gap.h ****     /** Complete List of 128-bit Service Class UUIDs */
 217:Generated_Source\PSoC6\pdl\middleware\ble/cy_ble_gap.h ****     CY_BLE_GAP_ADV_COMPL_128_UUID,
 218:Generated_Source\PSoC6\pdl\middleware\ble/cy_ble_gap.h **** 
 219:Generated_Source\PSoC6\pdl\middleware\ble/cy_ble_gap.h ****     /** Shortened Local Name */
 220:Generated_Source\PSoC6\pdl\middleware\ble/cy_ble_gap.h ****     CY_BLE_GAP_ADV_SHORT_NAME,
 221:Generated_Source\PSoC6\pdl\middleware\ble/cy_ble_gap.h **** 
 222:Generated_Source\PSoC6\pdl\middleware\ble/cy_ble_gap.h ****     /** Complete Local Name */
 223:Generated_Source\PSoC6\pdl\middleware\ble/cy_ble_gap.h ****     CY_BLE_GAP_ADV_COMPL_NAME,
 224:Generated_Source\PSoC6\pdl\middleware\ble/cy_ble_gap.h **** 
 225:Generated_Source\PSoC6\pdl\middleware\ble/cy_ble_gap.h ****     /** Tx Power Level */
 226:Generated_Source\PSoC6\pdl\middleware\ble/cy_ble_gap.h ****     CY_BLE_GAP_ADV_TX_PWR_LVL,
 227:Generated_Source\PSoC6\pdl\middleware\ble/cy_ble_gap.h **** 
 228:Generated_Source\PSoC6\pdl\middleware\ble/cy_ble_gap.h ****     /** Class of Device */
 229:Generated_Source\PSoC6\pdl\middleware\ble/cy_ble_gap.h ****     CY_BLE_GAP_ADV_CLASS_OF_DEVICE = 0x0Du,
 230:Generated_Source\PSoC6\pdl\middleware\ble/cy_ble_gap.h **** 
 231:Generated_Source\PSoC6\pdl\middleware\ble/cy_ble_gap.h ****     /** Simple Pairing Hash C */
 232:Generated_Source\PSoC6\pdl\middleware\ble/cy_ble_gap.h ****     CY_BLE_GAP_ADV_SMPL_PAIR_HASH_C,
 233:Generated_Source\PSoC6\pdl\middleware\ble/cy_ble_gap.h **** 
 234:Generated_Source\PSoC6\pdl\middleware\ble/cy_ble_gap.h ****     /** Simple Pairing Randomizer R */
 235:Generated_Source\PSoC6\pdl\middleware\ble/cy_ble_gap.h ****     CY_BLE_GAP_ADV_SMPL_PAIR_RANDOM_R,
 236:Generated_Source\PSoC6\pdl\middleware\ble/cy_ble_gap.h **** 
 237:Generated_Source\PSoC6\pdl\middleware\ble/cy_ble_gap.h ****     /** Device ID*/
 238:Generated_Source\PSoC6\pdl\middleware\ble/cy_ble_gap.h ****     CY_BLE_GAP_ADV_DEVICE_ID,
 239:Generated_Source\PSoC6\pdl\middleware\ble/cy_ble_gap.h **** 
 240:Generated_Source\PSoC6\pdl\middleware\ble/cy_ble_gap.h ****     /** Security Manager TK Value */
 241:Generated_Source\PSoC6\pdl\middleware\ble/cy_ble_gap.h ****     CY_BLE_GAP_ADV_SCRT_MNGR_TK_VAL = 0x10u,
 242:Generated_Source\PSoC6\pdl\middleware\ble/cy_ble_gap.h **** 
 243:Generated_Source\PSoC6\pdl\middleware\ble/cy_ble_gap.h ****     /** Security Manager Out of Band Flags */
 244:Generated_Source\PSoC6\pdl\middleware\ble/cy_ble_gap.h ****     CY_BLE_GAP_ADV_SCRT_MNGR_OOB_FLAGS,
 245:Generated_Source\PSoC6\pdl\middleware\ble/cy_ble_gap.h **** 
 246:Generated_Source\PSoC6\pdl\middleware\ble/cy_ble_gap.h ****     /** Slave Connection Interval Range */
 247:Generated_Source\PSoC6\pdl\middleware\ble/cy_ble_gap.h ****     CY_BLE_GAP_ADV_SLAVE_CONN_INTRV_RANGE,
 248:Generated_Source\PSoC6\pdl\middleware\ble/cy_ble_gap.h **** 
 249:Generated_Source\PSoC6\pdl\middleware\ble/cy_ble_gap.h ****     /** List of 16-bit Service Solicitation UUIDs */
 250:Generated_Source\PSoC6\pdl\middleware\ble/cy_ble_gap.h ****     CY_BLE_GAP_ADV_SOLICIT_16UUID = 0x14u,
 251:Generated_Source\PSoC6\pdl\middleware\ble/cy_ble_gap.h **** 
 252:Generated_Source\PSoC6\pdl\middleware\ble/cy_ble_gap.h ****     /** List of 128-bit Service Solicitation UUIDs */
 253:Generated_Source\PSoC6\pdl\middleware\ble/cy_ble_gap.h ****     CY_BLE_GAP_ADV_SOLICIT_128UUID,
 254:Generated_Source\PSoC6\pdl\middleware\ble/cy_ble_gap.h **** 
 255:Generated_Source\PSoC6\pdl\middleware\ble/cy_ble_gap.h ****     /** Service Data - 16-bit UUID */
 256:Generated_Source\PSoC6\pdl\middleware\ble/cy_ble_gap.h ****     CY_BLE_GAP_ADV_SRVC_DATA_16UUID,
 257:Generated_Source\PSoC6\pdl\middleware\ble/cy_ble_gap.h **** 
 258:Generated_Source\PSoC6\pdl\middleware\ble/cy_ble_gap.h ****     /** Public Target Address */
 259:Generated_Source\PSoC6\pdl\middleware\ble/cy_ble_gap.h ****     CY_BLE_GAP_ADV_PUBLIC_TARGET_ADDR,
 260:Generated_Source\PSoC6\pdl\middleware\ble/cy_ble_gap.h **** 
 261:Generated_Source\PSoC6\pdl\middleware\ble/cy_ble_gap.h ****     /** Random Target Address */
 262:Generated_Source\PSoC6\pdl\middleware\ble/cy_ble_gap.h ****     CY_BLE_GAP_ADV_RANDOM_TARGET_ADDR,
 263:Generated_Source\PSoC6\pdl\middleware\ble/cy_ble_gap.h **** 
 264:Generated_Source\PSoC6\pdl\middleware\ble/cy_ble_gap.h ****     /** Appearance */
 265:Generated_Source\PSoC6\pdl\middleware\ble/cy_ble_gap.h ****     CY_BLE_GAP_ADV_APPEARANCE,
 266:Generated_Source\PSoC6\pdl\middleware\ble/cy_ble_gap.h **** 
 267:Generated_Source\PSoC6\pdl\middleware\ble/cy_ble_gap.h ****     /** Advertising Interval */
 268:Generated_Source\PSoC6\pdl\middleware\ble/cy_ble_gap.h ****     CY_BLE_GAP_ADV_ADVERT_INTERVAL,
 269:Generated_Source\PSoC6\pdl\middleware\ble/cy_ble_gap.h **** 
 270:Generated_Source\PSoC6\pdl\middleware\ble/cy_ble_gap.h ****     /** LE Bluetooth Device Address */
 271:Generated_Source\PSoC6\pdl\middleware\ble/cy_ble_gap.h ****     CY_BLE_GAP_ADV_LE_BT_DEVICE_ADDR,
 272:Generated_Source\PSoC6\pdl\middleware\ble/cy_ble_gap.h **** 
ARM GAS  C:\Users\hkmnt\AppData\Local\Temp\ccBdSSuH.s 			page 23


 273:Generated_Source\PSoC6\pdl\middleware\ble/cy_ble_gap.h ****     /** LE Role */
 274:Generated_Source\PSoC6\pdl\middleware\ble/cy_ble_gap.h ****     CY_BLE_GAP_ADV_LE_ROLE,
 275:Generated_Source\PSoC6\pdl\middleware\ble/cy_ble_gap.h **** 
 276:Generated_Source\PSoC6\pdl\middleware\ble/cy_ble_gap.h ****     /** Simple Pairing Hash C-256 */
 277:Generated_Source\PSoC6\pdl\middleware\ble/cy_ble_gap.h ****     CY_BLE_GAP_ADV_SMPL_PAIR_HASH_C256,
 278:Generated_Source\PSoC6\pdl\middleware\ble/cy_ble_gap.h **** 
 279:Generated_Source\PSoC6\pdl\middleware\ble/cy_ble_gap.h ****     /** Simple Pairing Randomizer R-256 */
 280:Generated_Source\PSoC6\pdl\middleware\ble/cy_ble_gap.h ****     CY_BLE_GAP_ADV_SMPL_PAIR_RANDOM_R256,
 281:Generated_Source\PSoC6\pdl\middleware\ble/cy_ble_gap.h **** 
 282:Generated_Source\PSoC6\pdl\middleware\ble/cy_ble_gap.h ****     /** List of 32-bit Service Solicitation UUIDs */
 283:Generated_Source\PSoC6\pdl\middleware\ble/cy_ble_gap.h ****     CY_BLE_GAP_ADV_SOLICIT_32UUID,
 284:Generated_Source\PSoC6\pdl\middleware\ble/cy_ble_gap.h **** 
 285:Generated_Source\PSoC6\pdl\middleware\ble/cy_ble_gap.h ****     /** Service Data - 32-bit UUID */
 286:Generated_Source\PSoC6\pdl\middleware\ble/cy_ble_gap.h ****     CY_BLE_GAP_ADV_SRVC_DATA_32UUID,
 287:Generated_Source\PSoC6\pdl\middleware\ble/cy_ble_gap.h **** 
 288:Generated_Source\PSoC6\pdl\middleware\ble/cy_ble_gap.h ****     /** Service Data - 128-bit UUID */
 289:Generated_Source\PSoC6\pdl\middleware\ble/cy_ble_gap.h ****     CY_BLE_GAP_ADV_SRVC_DATA_128UUID,
 290:Generated_Source\PSoC6\pdl\middleware\ble/cy_ble_gap.h **** 
 291:Generated_Source\PSoC6\pdl\middleware\ble/cy_ble_gap.h ****     /** 3D Information Data */
 292:Generated_Source\PSoC6\pdl\middleware\ble/cy_ble_gap.h ****     CY_BLE_GAP_ADV_3D_INFO_DATA = 0x3D,
 293:Generated_Source\PSoC6\pdl\middleware\ble/cy_ble_gap.h **** 
 294:Generated_Source\PSoC6\pdl\middleware\ble/cy_ble_gap.h ****     /** Manufacturer Specific Data */
 295:Generated_Source\PSoC6\pdl\middleware\ble/cy_ble_gap.h ****     CY_BLE_GAP_ADV_MANUFACTURER_SPECIFIC_DATA = 0xFF
 296:Generated_Source\PSoC6\pdl\middleware\ble/cy_ble_gap.h **** }cy_en_ble_gap_adv_assign_numbers_t;
 297:Generated_Source\PSoC6\pdl\middleware\ble/cy_ble_gap.h **** 
 298:Generated_Source\PSoC6\pdl\middleware\ble/cy_ble_gap.h **** /** GAPP advertising configuration parameters structure */
 299:Generated_Source\PSoC6\pdl\middleware\ble/cy_ble_gap.h **** typedef struct
 300:Generated_Source\PSoC6\pdl\middleware\ble/cy_ble_gap.h **** {
 301:Generated_Source\PSoC6\pdl\middleware\ble/cy_ble_gap.h ****     /** The minimum interval for fast advertising the data and establishing the LE Connection */
 302:Generated_Source\PSoC6\pdl\middleware\ble/cy_ble_gap.h ****     uint16_t fastAdvIntervalMin;
 303:Generated_Source\PSoC6\pdl\middleware\ble/cy_ble_gap.h **** 
 304:Generated_Source\PSoC6\pdl\middleware\ble/cy_ble_gap.h ****     /** The maximum interval for fast advertising the data and establishing the LE Connection */
 305:Generated_Source\PSoC6\pdl\middleware\ble/cy_ble_gap.h ****     uint16_t fastAdvIntervalMax;
 306:Generated_Source\PSoC6\pdl\middleware\ble/cy_ble_gap.h **** 
 307:Generated_Source\PSoC6\pdl\middleware\ble/cy_ble_gap.h ****     /** The timeout value of  fast advertising with fast advertising interval parameters */
 308:Generated_Source\PSoC6\pdl\middleware\ble/cy_ble_gap.h ****     uint16_t fastAdvTimeOut;
 309:Generated_Source\PSoC6\pdl\middleware\ble/cy_ble_gap.h **** 
 310:Generated_Source\PSoC6\pdl\middleware\ble/cy_ble_gap.h ****     /** Slow advertising enable */
 311:Generated_Source\PSoC6\pdl\middleware\ble/cy_ble_gap.h ****     uint8_t  slowAdvEnable;
 312:Generated_Source\PSoC6\pdl\middleware\ble/cy_ble_gap.h **** 
 313:Generated_Source\PSoC6\pdl\middleware\ble/cy_ble_gap.h ****     /** The minimum interval for slow advertising the data and establishing the LE Connection */
 314:Generated_Source\PSoC6\pdl\middleware\ble/cy_ble_gap.h ****     uint16_t slowAdvIntervalMin;
 315:Generated_Source\PSoC6\pdl\middleware\ble/cy_ble_gap.h **** 
 316:Generated_Source\PSoC6\pdl\middleware\ble/cy_ble_gap.h ****     /** The maximum interval for slow  advertising the data and establishing the LE Connection */
 317:Generated_Source\PSoC6\pdl\middleware\ble/cy_ble_gap.h ****     uint16_t slowAdvIntervalMax;
 318:Generated_Source\PSoC6\pdl\middleware\ble/cy_ble_gap.h **** 
 319:Generated_Source\PSoC6\pdl\middleware\ble/cy_ble_gap.h ****     /** The timeout value of slow advertising with slow advertising interval parameters */
 320:Generated_Source\PSoC6\pdl\middleware\ble/cy_ble_gap.h ****     uint16_t slowAdvTimeOut;
 321:Generated_Source\PSoC6\pdl\middleware\ble/cy_ble_gap.h **** }cy_stc_ble_gapp_adv_params_t;
 322:Generated_Source\PSoC6\pdl\middleware\ble/cy_ble_gap.h **** 
 323:Generated_Source\PSoC6\pdl\middleware\ble/cy_ble_gap.h **** /** GAPC advertising configuration parameters structure */
 324:Generated_Source\PSoC6\pdl\middleware\ble/cy_ble_gap.h **** typedef struct
 325:Generated_Source\PSoC6\pdl\middleware\ble/cy_ble_gap.h **** {
 326:Generated_Source\PSoC6\pdl\middleware\ble/cy_ble_gap.h ****     /** The scan interval when operating in Fast connection */
 327:Generated_Source\PSoC6\pdl\middleware\ble/cy_ble_gap.h ****     uint16_t fastScanInterval;
 328:Generated_Source\PSoC6\pdl\middleware\ble/cy_ble_gap.h **** 
 329:Generated_Source\PSoC6\pdl\middleware\ble/cy_ble_gap.h ****     /** Defines the scan window when operating in Fast connection */
ARM GAS  C:\Users\hkmnt\AppData\Local\Temp\ccBdSSuH.s 			page 24


 330:Generated_Source\PSoC6\pdl\middleware\ble/cy_ble_gap.h ****     uint16_t fastScanWindow;
 331:Generated_Source\PSoC6\pdl\middleware\ble/cy_ble_gap.h **** 
 332:Generated_Source\PSoC6\pdl\middleware\ble/cy_ble_gap.h ****     /** The timeout value of scanning with fast scan parameters */
 333:Generated_Source\PSoC6\pdl\middleware\ble/cy_ble_gap.h ****     uint16_t fastScanTimeOut;
 334:Generated_Source\PSoC6\pdl\middleware\ble/cy_ble_gap.h **** 
 335:Generated_Source\PSoC6\pdl\middleware\ble/cy_ble_gap.h ****     /** Slow scan enable/disable */
 336:Generated_Source\PSoC6\pdl\middleware\ble/cy_ble_gap.h ****     uint8_t  slowScanEnabled;
 337:Generated_Source\PSoC6\pdl\middleware\ble/cy_ble_gap.h **** 
 338:Generated_Source\PSoC6\pdl\middleware\ble/cy_ble_gap.h ****     /** The scan interval when operating in Slow connection */
 339:Generated_Source\PSoC6\pdl\middleware\ble/cy_ble_gap.h ****     uint16_t slowScanInterval;
 340:Generated_Source\PSoC6\pdl\middleware\ble/cy_ble_gap.h **** 
 341:Generated_Source\PSoC6\pdl\middleware\ble/cy_ble_gap.h ****     /** Defines the scan window when operating in Slow connection */
 342:Generated_Source\PSoC6\pdl\middleware\ble/cy_ble_gap.h ****     uint16_t slowScanWindow;
 343:Generated_Source\PSoC6\pdl\middleware\ble/cy_ble_gap.h **** 
 344:Generated_Source\PSoC6\pdl\middleware\ble/cy_ble_gap.h ****     /** The timeout value of scanning with Slow scan parameters */
 345:Generated_Source\PSoC6\pdl\middleware\ble/cy_ble_gap.h ****     uint16_t slowScanTimeOut;
 346:Generated_Source\PSoC6\pdl\middleware\ble/cy_ble_gap.h **** 
 347:Generated_Source\PSoC6\pdl\middleware\ble/cy_ble_gap.h ****     /** The minimum permissible connection time value to be used during a connection event */
 348:Generated_Source\PSoC6\pdl\middleware\ble/cy_ble_gap.h ****     uint16_t gapcConnectionIntervalMin;
 349:Generated_Source\PSoC6\pdl\middleware\ble/cy_ble_gap.h **** 
 350:Generated_Source\PSoC6\pdl\middleware\ble/cy_ble_gap.h ****     /** The maximum permissible connection time value to be used during a connection event */
 351:Generated_Source\PSoC6\pdl\middleware\ble/cy_ble_gap.h ****     uint16_t gapcConnectionIntervalMax;
 352:Generated_Source\PSoC6\pdl\middleware\ble/cy_ble_gap.h **** 
 353:Generated_Source\PSoC6\pdl\middleware\ble/cy_ble_gap.h ****     /** Defines the maximum time between two received Data Packet PDUs before
 354:Generated_Source\PSoC6\pdl\middleware\ble/cy_ble_gap.h ****      *  the connection is considered lost */
 355:Generated_Source\PSoC6\pdl\middleware\ble/cy_ble_gap.h ****     uint16_t gapcConnectionSlaveLatency;
 356:Generated_Source\PSoC6\pdl\middleware\ble/cy_ble_gap.h **** 
 357:Generated_Source\PSoC6\pdl\middleware\ble/cy_ble_gap.h ****     /** Defines the LE link supervision timeout interval */
 358:Generated_Source\PSoC6\pdl\middleware\ble/cy_ble_gap.h ****     uint16_t gapcConnectionTimeOut;
 359:Generated_Source\PSoC6\pdl\middleware\ble/cy_ble_gap.h **** }cy_stc_ble_gapc_scan_params_t;
 360:Generated_Source\PSoC6\pdl\middleware\ble/cy_ble_gap.h **** 
 361:Generated_Source\PSoC6\pdl\middleware\ble/cy_ble_gap.h **** /** Store BLE Application Data parameter into flash */
 362:Generated_Source\PSoC6\pdl\middleware\ble/cy_ble_gap.h **** typedef struct
 363:Generated_Source\PSoC6\pdl\middleware\ble/cy_ble_gap.h **** {
 364:Generated_Source\PSoC6\pdl\middleware\ble/cy_ble_gap.h ****     /** Source buffer */
 365:Generated_Source\PSoC6\pdl\middleware\ble/cy_ble_gap.h ****     const uint8_t *srcBuff;
 366:Generated_Source\PSoC6\pdl\middleware\ble/cy_ble_gap.h **** 
 367:Generated_Source\PSoC6\pdl\middleware\ble/cy_ble_gap.h ****     /** Destination buffer */
 368:Generated_Source\PSoC6\pdl\middleware\ble/cy_ble_gap.h ****     const uint8_t *destAddr;
 369:Generated_Source\PSoC6\pdl\middleware\ble/cy_ble_gap.h **** 
 370:Generated_Source\PSoC6\pdl\middleware\ble/cy_ble_gap.h ****     /** Source buffer length */
 371:Generated_Source\PSoC6\pdl\middleware\ble/cy_ble_gap.h ****     uint32_t      buffLen;
 372:Generated_Source\PSoC6\pdl\middleware\ble/cy_ble_gap.h ****     
 373:Generated_Source\PSoC6\pdl\middleware\ble/cy_ble_gap.h ****     /** Write mode: blocking (default) / non-blocking */
 374:Generated_Source\PSoC6\pdl\middleware\ble/cy_ble_gap.h ****     uint32_t      writeMode;
 375:Generated_Source\PSoC6\pdl\middleware\ble/cy_ble_gap.h ****     
 376:Generated_Source\PSoC6\pdl\middleware\ble/cy_ble_gap.h **** } cy_stc_ble_app_flash_param_t;
 377:Generated_Source\PSoC6\pdl\middleware\ble/cy_ble_gap.h **** 
 378:Generated_Source\PSoC6\pdl\middleware\ble/cy_ble_gap.h **** /** @} group_ble_common_api_gap_definitions */
 379:Generated_Source\PSoC6\pdl\middleware\ble/cy_ble_gap.h ****  
 380:Generated_Source\PSoC6\pdl\middleware\ble/cy_ble_gap.h **** /***************************************
 381:Generated_Source\PSoC6\pdl\middleware\ble/cy_ble_gap.h **** * API Constants
 382:Generated_Source\PSoC6\pdl\middleware\ble/cy_ble_gap.h **** ***************************************/
 383:Generated_Source\PSoC6\pdl\middleware\ble/cy_ble_gap.h **** #define CY_BLE_AD_TYPE_MORE16UUID                  (0x02u)
 384:Generated_Source\PSoC6\pdl\middleware\ble/cy_ble_gap.h **** #define CY_BLE_AD_TYPE_CMPL16UUID                  (0x03u)
 385:Generated_Source\PSoC6\pdl\middleware\ble/cy_ble_gap.h **** #define CY_BLE_AD_TYPE_MORE32UUID                  (0x04u)
 386:Generated_Source\PSoC6\pdl\middleware\ble/cy_ble_gap.h **** #define CY_BLE_AD_TYPE_CMPL32UUID                  (0x05u)
ARM GAS  C:\Users\hkmnt\AppData\Local\Temp\ccBdSSuH.s 			page 25


 387:Generated_Source\PSoC6\pdl\middleware\ble/cy_ble_gap.h **** #define CY_BLE_AD_TYPE_MORE128UUID                 (0x06u)
 388:Generated_Source\PSoC6\pdl\middleware\ble/cy_ble_gap.h **** #define CY_BLE_AD_TYPE_CMPL128UUID                 (0x07u)
 389:Generated_Source\PSoC6\pdl\middleware\ble/cy_ble_gap.h **** 
 390:Generated_Source\PSoC6\pdl\middleware\ble/cy_ble_gap.h **** #define CY_BLE_AD_TYPE_SERVICE_DATA                (0x16u)
 391:Generated_Source\PSoC6\pdl\middleware\ble/cy_ble_gap.h **** #define CY_BLE_AD_SERVICE_DATA_OVERHEAD            (0x03u)
 392:Generated_Source\PSoC6\pdl\middleware\ble/cy_ble_gap.h **** 
 393:Generated_Source\PSoC6\pdl\middleware\ble/cy_ble_gap.h **** #define CY_BLE_DISCOVERY_IDLE                      (0x00u)
 394:Generated_Source\PSoC6\pdl\middleware\ble/cy_ble_gap.h **** #define CY_BLE_DISCOVERY_SERVICE                   (0x01u)
 395:Generated_Source\PSoC6\pdl\middleware\ble/cy_ble_gap.h **** #define CY_BLE_DISCOVERY_CHAR                      (0x02u)
 396:Generated_Source\PSoC6\pdl\middleware\ble/cy_ble_gap.h **** #define CY_BLE_DISCOVERY_DESCR                     (0x03u)
 397:Generated_Source\PSoC6\pdl\middleware\ble/cy_ble_gap.h **** #define CY_BLE_DISCOVERY_DONE                      (0x04u)
 398:Generated_Source\PSoC6\pdl\middleware\ble/cy_ble_gap.h **** 
 399:Generated_Source\PSoC6\pdl\middleware\ble/cy_ble_gap.h **** /* Cy_BLE_NextCharDscrDiscovery parameters */
 400:Generated_Source\PSoC6\pdl\middleware\ble/cy_ble_gap.h **** #define CY_BLE_DISCOVERY_INIT                      (0x00u)
 401:Generated_Source\PSoC6\pdl\middleware\ble/cy_ble_gap.h **** #define CY_BLE_DISCOVERY_CONTINUE                  (0x01u)
 402:Generated_Source\PSoC6\pdl\middleware\ble/cy_ble_gap.h **** 
 403:Generated_Source\PSoC6\pdl\middleware\ble/cy_ble_gap.h **** #define CY_BLE_SFLASH_DIE_X_MASK                   (0x3Fu)
 404:Generated_Source\PSoC6\pdl\middleware\ble/cy_ble_gap.h **** #define CY_BLE_SFLASH_DIE_X_BITS                   (6u)
 405:Generated_Source\PSoC6\pdl\middleware\ble/cy_ble_gap.h **** #define CY_BLE_SFLASH_DIE_Y_MASK                   (0x3Fu)
 406:Generated_Source\PSoC6\pdl\middleware\ble/cy_ble_gap.h **** #define CY_BLE_SFLASH_DIE_Y_BITS                   (6u)
 407:Generated_Source\PSoC6\pdl\middleware\ble/cy_ble_gap.h **** #define CY_BLE_SFLASH_DIE_XY_BITS                  (CY_BLE_SFLASH_DIE_X_BITS + CY_BLE_SFLASH_DIE_Y_
 408:Generated_Source\PSoC6\pdl\middleware\ble/cy_ble_gap.h **** #define CY_BLE_SFLASH_DIE_WAFER_MASK               (0x1Fu)
 409:Generated_Source\PSoC6\pdl\middleware\ble/cy_ble_gap.h **** #define CY_BLE_SFLASH_DIE_WAFER_BITS               (5u)
 410:Generated_Source\PSoC6\pdl\middleware\ble/cy_ble_gap.h **** #define CY_BLE_SFLASH_DIE_XYWAFER_BITS             (CY_BLE_SFLASH_DIE_XY_BITS + CY_BLE_SFLASH_DIE_W
 411:Generated_Source\PSoC6\pdl\middleware\ble/cy_ble_gap.h **** #define CY_BLE_SFLASH_DIE_LOT_MASK                 (0x7Fu)
 412:Generated_Source\PSoC6\pdl\middleware\ble/cy_ble_gap.h **** #define CY_BLE_SFLASH_DIE_LOT_BITS                 (7u)
 413:Generated_Source\PSoC6\pdl\middleware\ble/cy_ble_gap.h **** 
 414:Generated_Source\PSoC6\pdl\middleware\ble/cy_ble_gap.h **** /* Device address stored by user in ROW4 of the SFLASH */
 415:Generated_Source\PSoC6\pdl\middleware\ble/cy_ble_gap.h **** #define CY_BLE_SFLASH_DEVICE_ADDRESS_PTR           ((cy_stc_ble_gap_bd_addr_t*)(SFLASH->BLE_DEVICE_
 416:Generated_Source\PSoC6\pdl\middleware\ble/cy_ble_gap.h **** #define CY_BLE_AD_STRUCTURE_MAX_LENGTH             (31u)
 417:Generated_Source\PSoC6\pdl\middleware\ble/cy_ble_gap.h **** 
 418:Generated_Source\PSoC6\pdl\middleware\ble/cy_ble_gap.h **** /* AD types for complete, shortened local name and device address */
 419:Generated_Source\PSoC6\pdl\middleware\ble/cy_ble_gap.h **** #define CY_BLE_SHORT_LOCAL_NAME                    (0x08u)  /**< Shortened Local Name */
 420:Generated_Source\PSoC6\pdl\middleware\ble/cy_ble_gap.h **** #define CY_BLE_COMPLETE_LOCAL_NAME                 (0x09u)  /**< Complete Local Name */
 421:Generated_Source\PSoC6\pdl\middleware\ble/cy_ble_gap.h **** #define CY_BLE_ADV_DEVICE_ADDR                     (0x1Bu)  /**< LE Bluetooth Device Address */
 422:Generated_Source\PSoC6\pdl\middleware\ble/cy_ble_gap.h **** 
 423:Generated_Source\PSoC6\pdl\middleware\ble/cy_ble_gap.h **** #define CY_BLE_ADVERTISING_FAST                    (0x00u)
 424:Generated_Source\PSoC6\pdl\middleware\ble/cy_ble_gap.h **** #define CY_BLE_ADVERTISING_SLOW                    (0x01u)
 425:Generated_Source\PSoC6\pdl\middleware\ble/cy_ble_gap.h **** #define CY_BLE_ADVERTISING_CUSTOM                  (0x02u)
 426:Generated_Source\PSoC6\pdl\middleware\ble/cy_ble_gap.h **** 
 427:Generated_Source\PSoC6\pdl\middleware\ble/cy_ble_gap.h **** #define CY_BLE_SCANNING_FAST                       (0x00u)
 428:Generated_Source\PSoC6\pdl\middleware\ble/cy_ble_gap.h **** #define CY_BLE_SCANNING_SLOW                       (0x01u)
 429:Generated_Source\PSoC6\pdl\middleware\ble/cy_ble_gap.h **** #define CY_BLE_SCANNING_CUSTOM                     (0x02u)
 430:Generated_Source\PSoC6\pdl\middleware\ble/cy_ble_gap.h **** 
 431:Generated_Source\PSoC6\pdl\middleware\ble/cy_ble_gap.h **** #define CY_BLE_PENDING_STACK_FLASH_WRITE_BIT       (0x01u)
 432:Generated_Source\PSoC6\pdl\middleware\ble/cy_ble_gap.h **** #define CY_BLE_PENDING_CCCD_FLASH_WRITE_BIT        (0x02u)
 433:Generated_Source\PSoC6\pdl\middleware\ble/cy_ble_gap.h **** #define CY_BLE_PENDING_CCCD_FLASH_CLEAR_BIT        (0x04u)
 434:Generated_Source\PSoC6\pdl\middleware\ble/cy_ble_gap.h **** #define CY_BLE_PENDING_CCCD_FLASH_CLEAR_ALL_BIT    (0x08u)
 435:Generated_Source\PSoC6\pdl\middleware\ble/cy_ble_gap.h **** #define CY_BLE_PENDING_CCCD_FLASH_CLEAR_MASK \
 436:Generated_Source\PSoC6\pdl\middleware\ble/cy_ble_gap.h ****     (CY_BLE_PENDING_CCCD_FLASH_CLEAR_BIT | CY_BLE_PENDING_CCCD_FLASH_CLEAR_ALL_BIT)
 437:Generated_Source\PSoC6\pdl\middleware\ble/cy_ble_gap.h ****   
 438:Generated_Source\PSoC6\pdl\middleware\ble/cy_ble_gap.h **** /**
 439:Generated_Source\PSoC6\pdl\middleware\ble/cy_ble_gap.h ****  * \addtogroup group_ble_common_api_macros
 440:Generated_Source\PSoC6\pdl\middleware\ble/cy_ble_gap.h ****  * @{
 441:Generated_Source\PSoC6\pdl\middleware\ble/cy_ble_gap.h ****  */
 442:Generated_Source\PSoC6\pdl\middleware\ble/cy_ble_gap.h ****  
 443:Generated_Source\PSoC6\pdl\middleware\ble/cy_ble_gap.h **** /* GAP Advertisement Flags */
ARM GAS  C:\Users\hkmnt\AppData\Local\Temp\ccBdSSuH.s 			page 26


 444:Generated_Source\PSoC6\pdl\middleware\ble/cy_ble_gap.h **** #define CY_BLE_GAP_ADV_FLAG_LE_LIMITED_DISC_MODE        (0x01u)     /**< LE Limited Discoverable Mo
 445:Generated_Source\PSoC6\pdl\middleware\ble/cy_ble_gap.h **** #define CY_BLE_GAP_ADV_FLAG_LE_GENERAL_DISC_MODE        (0x02u)     /**< LE General Discoverable Mo
 446:Generated_Source\PSoC6\pdl\middleware\ble/cy_ble_gap.h **** #define CY_BLE_GAP_ADV_FLAG_BR_EDR_NOT_SUPPORTED        (0x04u)     /**< BR/EDR not supported. */
 447:Generated_Source\PSoC6\pdl\middleware\ble/cy_ble_gap.h **** #define CY_BLE_GAP_ADV_FLAG_LE_BR_EDR_CONTROLLER        (0x08u)     /**< Simultaneous LE and BR/EDR
 448:Generated_Source\PSoC6\pdl\middleware\ble/cy_ble_gap.h **** #define CY_BLE_GAP_ADV_FLAG_LE_BR_EDR_HOST              (0x10u)     /**< Simultaneous LE and BR/EDR
 449:Generated_Source\PSoC6\pdl\middleware\ble/cy_ble_gap.h **** #define CY_BLE_GAP_ADV_FLAGS_PACKET_LENGTH              (0x02u)     /**< Length of flags in an adve
 450:Generated_Source\PSoC6\pdl\middleware\ble/cy_ble_gap.h **** 
 451:Generated_Source\PSoC6\pdl\middleware\ble/cy_ble_gap.h **** /* GAP Advertising interval min and max */
 452:Generated_Source\PSoC6\pdl\middleware\ble/cy_ble_gap.h **** #define CY_BLE_GAP_ADV_ADVERT_INTERVAL_MIN              (0x0020u)   /**< Minimum Advertising interv
 453:Generated_Source\PSoC6\pdl\middleware\ble/cy_ble_gap.h ****                                                                      *   i.e. 20 ms. */
 454:Generated_Source\PSoC6\pdl\middleware\ble/cy_ble_gap.h **** #define CY_BLE_GAP_ADV_ADVERT_INTERVAL_NONCON_MIN       (0x00A0u)   /**< Minimum Advertising interv
 455:Generated_Source\PSoC6\pdl\middleware\ble/cy_ble_gap.h ****                                                                      *   for non connectable mode, 
 456:Generated_Source\PSoC6\pdl\middleware\ble/cy_ble_gap.h **** #define CY_BLE_GAP_ADV_ADVERT_INTERVAL_MAX              (0x4000u)   /**< Maximum Advertising interv
 457:Generated_Source\PSoC6\pdl\middleware\ble/cy_ble_gap.h ****                                                                      *   i.e. 10.24 s. */
 458:Generated_Source\PSoC6\pdl\middleware\ble/cy_ble_gap.h **** #define CY_BLE_GAP_ADV_ADVERT_INTERVAL_PACKET_LENGTH    (0x03u)     /**< Length of the Advertising 
 459:Generated_Source\PSoC6\pdl\middleware\ble/cy_ble_gap.h ****                                                                      *   an advertisement packet */
 460:Generated_Source\PSoC6\pdl\middleware\ble/cy_ble_gap.h **** #define CY_BLE_GAPC_CONNECTING_TIMEOUT                  (30u)       /**< Seconds */
 461:Generated_Source\PSoC6\pdl\middleware\ble/cy_ble_gap.h **** #define CY_BLE_INVALID_CONN_HANDLE_VALUE                (0xFFu)     /**< Invalid Connection Handle 
 462:Generated_Source\PSoC6\pdl\middleware\ble/cy_ble_gap.h **** 
 463:Generated_Source\PSoC6\pdl\middleware\ble/cy_ble_gap.h **** /* Write mode for Cy_BLE_StoreAppData */
 464:Generated_Source\PSoC6\pdl\middleware\ble/cy_ble_gap.h **** #define CY_BLE_STORE_DATA_MODE_BLOCKING                 (0x0u)      /**< Blocking write */
 465:Generated_Source\PSoC6\pdl\middleware\ble/cy_ble_gap.h **** #define CY_BLE_STORE_DATA_MODE_NON_BLOCKING             (0x1u)      /**< Non-blocking write */
 466:Generated_Source\PSoC6\pdl\middleware\ble/cy_ble_gap.h **** 
 467:Generated_Source\PSoC6\pdl\middleware\ble/cy_ble_gap.h **** /** @} group_ble_common_api_macros */
 468:Generated_Source\PSoC6\pdl\middleware\ble/cy_ble_gap.h **** 
 469:Generated_Source\PSoC6\pdl\middleware\ble/cy_ble_gap.h **** /***************************************
 470:Generated_Source\PSoC6\pdl\middleware\ble/cy_ble_gap.h **** * Private Function Prototypes
 471:Generated_Source\PSoC6\pdl\middleware\ble/cy_ble_gap.h **** ***************************************/
 472:Generated_Source\PSoC6\pdl\middleware\ble/cy_ble_gap.h **** void Cy_BLE_ServiceInit(void);
 473:Generated_Source\PSoC6\pdl\middleware\ble/cy_ble_gap.h **** uint32_t Cy_BLE_GetDiscoveryIdx(cy_stc_ble_conn_handle_t connHandle);
 474:Generated_Source\PSoC6\pdl\middleware\ble/cy_ble_gap.h **** 
 475:Generated_Source\PSoC6\pdl\middleware\ble/cy_ble_gap.h **** /***************************************
 476:Generated_Source\PSoC6\pdl\middleware\ble/cy_ble_gap.h **** * Function Prototypes
 477:Generated_Source\PSoC6\pdl\middleware\ble/cy_ble_gap.h **** ***************************************/
 478:Generated_Source\PSoC6\pdl\middleware\ble/cy_ble_gap.h **** /**
 479:Generated_Source\PSoC6\pdl\middleware\ble/cy_ble_gap.h ****  * \addtogroup group_ble_common_api_functions
 480:Generated_Source\PSoC6\pdl\middleware\ble/cy_ble_gap.h ****  * @{
 481:Generated_Source\PSoC6\pdl\middleware\ble/cy_ble_gap.h ****  */
 482:Generated_Source\PSoC6\pdl\middleware\ble/cy_ble_gap.h **** 
 483:Generated_Source\PSoC6\pdl\middleware\ble/cy_ble_gap.h **** cy_en_ble_api_result_t Cy_BLE_StoreAppData(const cy_stc_ble_app_flash_param_t *param);
 484:Generated_Source\PSoC6\pdl\middleware\ble/cy_ble_gap.h **** 
 485:Generated_Source\PSoC6\pdl\middleware\ble/cy_ble_gap.h **** #if ((CY_BLE_GAP_ROLE_PERIPHERAL || CY_BLE_GAP_ROLE_CENTRAL) && (CY_BLE_BONDING_REQUIREMENT == CY_B
 486:Generated_Source\PSoC6\pdl\middleware\ble/cy_ble_gap.h **** cy_en_ble_api_result_t Cy_BLE_StoreBondingData(void);
 487:Generated_Source\PSoC6\pdl\middleware\ble/cy_ble_gap.h **** cy_en_ble_api_result_t Cy_BLE_GAP_RemoveBondedDevice(cy_stc_ble_gap_bd_addr_t* bdAddr);
 488:Generated_Source\PSoC6\pdl\middleware\ble/cy_ble_gap.h **** #endif /* (CY_BLE_GAP_ROLE_PERIPHERAL || CY_BLE_GAP_ROLE_CENTRAL) && (CY_BLE_BONDING_REQUIREMENT ==
 489:Generated_Source\PSoC6\pdl\middleware\ble/cy_ble_gap.h **** 
 490:Generated_Source\PSoC6\pdl\middleware\ble/cy_ble_gap.h **** #if (CY_BLE_GAP_ROLE_PERIPHERAL || CY_BLE_GAP_ROLE_CENTRAL)
 491:Generated_Source\PSoC6\pdl\middleware\ble/cy_ble_gap.h **** bool Cy_BLE_IsPeerConnected(uint8_t *bdAddr);
 492:Generated_Source\PSoC6\pdl\middleware\ble/cy_ble_gap.h **** bool Cy_BLE_IsDevicePaired(cy_stc_ble_conn_handle_t *connHandle);
 493:Generated_Source\PSoC6\pdl\middleware\ble/cy_ble_gap.h **** uint8_t Cy_BLE_GetDeviceRole(cy_stc_ble_conn_handle_t *connHandle);
 494:Generated_Source\PSoC6\pdl\middleware\ble/cy_ble_gap.h **** 
 495:Generated_Source\PSoC6\pdl\middleware\ble/cy_ble_gap.h **** cy_en_ble_api_result_t Cy_BLE_GetRssiPeer(uint8_t  bdHandle);
 496:Generated_Source\PSoC6\pdl\middleware\ble/cy_ble_gap.h **** #endif /* (CY_BLE_GAP_ROLE_PERIPHERAL || CY_BLE_GAP_ROLE_CENTRAL) */
 497:Generated_Source\PSoC6\pdl\middleware\ble/cy_ble_gap.h **** /** @} group_ble_common_api_functions */
 498:Generated_Source\PSoC6\pdl\middleware\ble/cy_ble_gap.h **** 
 499:Generated_Source\PSoC6\pdl\middleware\ble/cy_ble_gap.h **** /**
 500:Generated_Source\PSoC6\pdl\middleware\ble/cy_ble_gap.h ****  * \addtogroup group_ble_common_api_gap_peripheral_functions
ARM GAS  C:\Users\hkmnt\AppData\Local\Temp\ccBdSSuH.s 			page 27


 501:Generated_Source\PSoC6\pdl\middleware\ble/cy_ble_gap.h ****  * @{
 502:Generated_Source\PSoC6\pdl\middleware\ble/cy_ble_gap.h ****  */
 503:Generated_Source\PSoC6\pdl\middleware\ble/cy_ble_gap.h ****  
 504:Generated_Source\PSoC6\pdl\middleware\ble/cy_ble_gap.h **** #if (CY_BLE_GAP_ROLE_PERIPHERAL || CY_BLE_GAP_ROLE_BROADCASTER)
 505:Generated_Source\PSoC6\pdl\middleware\ble/cy_ble_gap.h **** cy_en_ble_api_result_t Cy_BLE_GAPP_StartAdvertisement(uint8_t advertisingIntervalType, uint8_t adve
 506:Generated_Source\PSoC6\pdl\middleware\ble/cy_ble_gap.h **** cy_en_ble_api_result_t Cy_BLE_GAPP_StopAdvertisement(void);
 507:Generated_Source\PSoC6\pdl\middleware\ble/cy_ble_gap.h **** 
 508:Generated_Source\PSoC6\pdl\middleware\ble/cy_ble_gap.h **** /** \cond IGNORE */
 509:Generated_Source\PSoC6\pdl\middleware\ble/cy_ble_gap.h **** void Cy_BLE_ChangeAdDeviceAddress(const cy_stc_ble_gap_bd_addr_t* bdAddr, uint8_t dest);
 510:Generated_Source\PSoC6\pdl\middleware\ble/cy_ble_gap.h **** /** \endcond */
 511:Generated_Source\PSoC6\pdl\middleware\ble/cy_ble_gap.h **** 
 512:Generated_Source\PSoC6\pdl\middleware\ble/cy_ble_gap.h **** #endif /* CY_BLE_GAP_ROLE_PERIPHERAL */
 513:Generated_Source\PSoC6\pdl\middleware\ble/cy_ble_gap.h **** 
 514:Generated_Source\PSoC6\pdl\middleware\ble/cy_ble_gap.h **** /** @} group_ble_common_api_gap_peripheral_functions */
 515:Generated_Source\PSoC6\pdl\middleware\ble/cy_ble_gap.h **** 
 516:Generated_Source\PSoC6\pdl\middleware\ble/cy_ble_gap.h **** /**
 517:Generated_Source\PSoC6\pdl\middleware\ble/cy_ble_gap.h ****  * \addtogroup group_ble_common_api_gap_central_functions
 518:Generated_Source\PSoC6\pdl\middleware\ble/cy_ble_gap.h ****  * @{
 519:Generated_Source\PSoC6\pdl\middleware\ble/cy_ble_gap.h ****  */
 520:Generated_Source\PSoC6\pdl\middleware\ble/cy_ble_gap.h ****  
 521:Generated_Source\PSoC6\pdl\middleware\ble/cy_ble_gap.h **** #if (CY_BLE_GAP_ROLE_CENTRAL || CY_BLE_GAP_ROLE_OBSERVER)
 522:Generated_Source\PSoC6\pdl\middleware\ble/cy_ble_gap.h **** cy_en_ble_api_result_t Cy_BLE_GAPC_StartScan(uint8_t scanningIntervalType, uint8_t scanParamIndex);
 523:Generated_Source\PSoC6\pdl\middleware\ble/cy_ble_gap.h **** cy_en_ble_api_result_t Cy_BLE_GAPC_StopScan(void);
 524:Generated_Source\PSoC6\pdl\middleware\ble/cy_ble_gap.h **** #endif /* CY_BLE_GAP_ROLE_CENTRAL || CY_BLE_GAP_ROLE_OBSERVER */
 525:Generated_Source\PSoC6\pdl\middleware\ble/cy_ble_gap.h **** 
 526:Generated_Source\PSoC6\pdl\middleware\ble/cy_ble_gap.h **** #if (CY_BLE_GAP_ROLE_CENTRAL)
 527:Generated_Source\PSoC6\pdl\middleware\ble/cy_ble_gap.h **** cy_en_ble_api_result_t Cy_BLE_GAPC_ConnectDevice(const cy_stc_ble_gap_bd_addr_t * address, uint8_t 
 528:Generated_Source\PSoC6\pdl\middleware\ble/cy_ble_gap.h **** cy_en_ble_api_result_t Cy_BLE_GAPC_CancelDeviceConnection(void);
 529:Generated_Source\PSoC6\pdl\middleware\ble/cy_ble_gap.h **** #endif /* CY_BLE_GAP_ROLE_CENTRAL */
 530:Generated_Source\PSoC6\pdl\middleware\ble/cy_ble_gap.h **** 
 531:Generated_Source\PSoC6\pdl\middleware\ble/cy_ble_gap.h **** /** @} group_ble_common_api_gap_central_functions */
 532:Generated_Source\PSoC6\pdl\middleware\ble/cy_ble_gap.h **** 
 533:Generated_Source\PSoC6\pdl\middleware\ble/cy_ble_gap.h **** /***************************************
 534:Generated_Source\PSoC6\pdl\middleware\ble/cy_ble_gap.h **** * External data references
 535:Generated_Source\PSoC6\pdl\middleware\ble/cy_ble_gap.h **** ***************************************/
 536:Generated_Source\PSoC6\pdl\middleware\ble/cy_ble_gap.h **** extern volatile uint8_t cy_ble_eventHandlerFlag;
 537:Generated_Source\PSoC6\pdl\middleware\ble/cy_ble_gap.h **** extern cy_stc_ble_gap_bd_addr_t *cy_ble_sflashDeviceAddress;
 538:Generated_Source\PSoC6\pdl\middleware\ble/cy_ble_gap.h **** extern cy_stc_ble_gap_bd_addr_t cy_ble_deviceAddress;
 539:Generated_Source\PSoC6\pdl\middleware\ble/cy_ble_gap.h **** extern cy_en_ble_state_t cy_ble_state;
 540:Generated_Source\PSoC6\pdl\middleware\ble/cy_ble_gap.h **** 
 541:Generated_Source\PSoC6\pdl\middleware\ble/cy_ble_gap.h **** #if ((CY_BLE_GAP_ROLE_PERIPHERAL || CY_BLE_GAP_ROLE_CENTRAL))
 542:Generated_Source\PSoC6\pdl\middleware\ble/cy_ble_gap.h **** extern cy_stc_ble_gap_auth_info_t cy_ble_authInfo[CY_BLE_AUTH_INFO_COUNT];
 543:Generated_Source\PSoC6\pdl\middleware\ble/cy_ble_gap.h **** #endif /* ((CY_BLE_GAP_ROLE_PERIPHERAL || CY_BLE_GAP_ROLE_CENTRAL)) */
 544:Generated_Source\PSoC6\pdl\middleware\ble/cy_ble_gap.h **** 
 545:Generated_Source\PSoC6\pdl\middleware\ble/cy_ble_gap.h **** #if (CY_BLE_GAP_ROLE_PERIPHERAL || CY_BLE_GAP_ROLE_BROADCASTER)
 546:Generated_Source\PSoC6\pdl\middleware\ble/cy_ble_gap.h **** extern cy_en_ble_adv_state_t cy_ble_advState;
 547:Generated_Source\PSoC6\pdl\middleware\ble/cy_ble_gap.h **** extern uint8_t cy_ble_advIndex;
 548:Generated_Source\PSoC6\pdl\middleware\ble/cy_ble_gap.h **** #endif  /* (CY_BLE_GAP_ROLE_PERIPHERAL || CY_BLE_GAP_ROLE_BROADCASTER) */
 549:Generated_Source\PSoC6\pdl\middleware\ble/cy_ble_gap.h **** 
 550:Generated_Source\PSoC6\pdl\middleware\ble/cy_ble_gap.h **** #if (CY_BLE_GAP_ROLE_CENTRAL || CY_BLE_GAP_ROLE_OBSERVER)
 551:Generated_Source\PSoC6\pdl\middleware\ble/cy_ble_gap.h **** extern cy_en_ble_scan_state_t cy_ble_scanState;
 552:Generated_Source\PSoC6\pdl\middleware\ble/cy_ble_gap.h **** extern uint8_t cy_ble_scanIndex;
 553:Generated_Source\PSoC6\pdl\middleware\ble/cy_ble_gap.h **** #endif /* (CY_BLE_GAP_ROLE_CENTRAL || CY_BLE_GAP_ROLE_OBSERVER) */
 554:Generated_Source\PSoC6\pdl\middleware\ble/cy_ble_gap.h **** 
 555:Generated_Source\PSoC6\pdl\middleware\ble/cy_ble_gap.h **** #if ((CY_BLE_GAP_ROLE_PERIPHERAL || CY_BLE_GAP_ROLE_CENTRAL))
 556:Generated_Source\PSoC6\pdl\middleware\ble/cy_ble_gap.h **** extern cy_stc_ble_conn_handle_t cy_ble_connHandle[CY_BLE_CONN_COUNT];
 557:Generated_Source\PSoC6\pdl\middleware\ble/cy_ble_gap.h **** extern cy_en_ble_conn_state_t cy_ble_connState[CY_BLE_CONN_COUNT];
ARM GAS  C:\Users\hkmnt\AppData\Local\Temp\ccBdSSuH.s 			page 28


 558:Generated_Source\PSoC6\pdl\middleware\ble/cy_ble_gap.h **** 
 559:Generated_Source\PSoC6\pdl\middleware\ble/cy_ble_gap.h **** extern volatile uint8_t cy_ble_devConnRole[CY_BLE_CONN_COUNT];                                     
 560:Generated_Source\PSoC6\pdl\middleware\ble/cy_ble_gap.h **** extern volatile bool cy_ble_pairStatus[CY_BLE_CONN_COUNT];
 561:Generated_Source\PSoC6\pdl\middleware\ble/cy_ble_gap.h **** 
 562:Generated_Source\PSoC6\pdl\middleware\ble/cy_ble_gap.h **** #endif /* ((CY_BLE_GAP_ROLE_PERIPHERAL || CY_BLE_GAP_ROLE_CENTRAL)) */
 563:Generated_Source\PSoC6\pdl\middleware\ble/cy_ble_gap.h **** 
 564:Generated_Source\PSoC6\pdl\middleware\ble/cy_ble_gap.h **** #if (CY_BLE_GAP_ROLE_CENTRAL || CY_BLE_GAP_ROLE_OBSERVER)
 565:Generated_Source\PSoC6\pdl\middleware\ble/cy_ble_gap.h **** extern cy_stc_ble_gapc_disc_info_t cy_ble_discoveryInfo[CY_BLE_GAPC_CONF_COUNT];
 566:Generated_Source\PSoC6\pdl\middleware\ble/cy_ble_gap.h **** #endif /* CY_BLE_GAP_ROLE_CENTRAL || CY_BLE_GAP_ROLE_OBSERVER */
 567:Generated_Source\PSoC6\pdl\middleware\ble/cy_ble_gap.h **** 
 568:Generated_Source\PSoC6\pdl\middleware\ble/cy_ble_gap.h **** #if (CY_BLE_GAP_ROLE_CENTRAL)
 569:Generated_Source\PSoC6\pdl\middleware\ble/cy_ble_gap.h **** extern cy_stc_ble_gapc_conn_info_t cy_ble_connectionParameters;
 570:Generated_Source\PSoC6\pdl\middleware\ble/cy_ble_gap.h **** extern cy_stc_ble_timer_info_t cy_ble_connectingTimeout;
 571:Generated_Source\PSoC6\pdl\middleware\ble/cy_ble_gap.h **** #endif /* CY_BLE_GAP_ROLE_CENTRAL */
 572:Generated_Source\PSoC6\pdl\middleware\ble/cy_ble_gap.h **** 
 573:Generated_Source\PSoC6\pdl\middleware\ble/cy_ble_gap.h **** #if (CY_BLE_GAP_ROLE_PERIPHERAL || CY_BLE_GAP_ROLE_BROADCASTER)
 574:Generated_Source\PSoC6\pdl\middleware\ble/cy_ble_gap.h **** extern cy_stc_ble_gapp_disc_mode_info_t cy_ble_discoveryModeInfo[CY_BLE_GAPP_CONF_COUNT];
 575:Generated_Source\PSoC6\pdl\middleware\ble/cy_ble_gap.h **** extern cy_stc_ble_gapp_disc_param_t cy_ble_discoveryParam[CY_BLE_GAPP_CONF_COUNT];
 576:Generated_Source\PSoC6\pdl\middleware\ble/cy_ble_gap.h **** extern cy_stc_ble_gapp_disc_data_t cy_ble_discoveryData[CY_BLE_GAPP_CONF_COUNT];
 577:Generated_Source\PSoC6\pdl\middleware\ble/cy_ble_gap.h **** extern cy_stc_ble_gapp_scan_rsp_data_t cy_ble_scanRspData[CY_BLE_GAPP_CONF_COUNT];
 578:Generated_Source\PSoC6\pdl\middleware\ble/cy_ble_gap.h **** #endif /* CY_BLE_GAP_ROLE_PERIPHERAL || CY_BLE_GAP_ROLE_BROADCASTER */
 579:Generated_Source\PSoC6\pdl\middleware\ble/cy_ble_gap.h **** 
 580:Generated_Source\PSoC6\pdl\middleware\ble/cy_ble_gap.h **** #if ((CY_BLE_GAP_ROLE_PERIPHERAL || CY_BLE_GAP_ROLE_CENTRAL) && (CY_BLE_BONDING_REQUIREMENT == CY_B
 581:Generated_Source\PSoC6\pdl\middleware\ble/cy_ble_gap.h **** 
 582:Generated_Source\PSoC6\pdl\middleware\ble/cy_ble_gap.h **** /**
 583:Generated_Source\PSoC6\pdl\middleware\ble/cy_ble_gap.h ****  * \addtogroup group_ble_common_api_global_variables
 584:Generated_Source\PSoC6\pdl\middleware\ble/cy_ble_gap.h ****  * @{
 585:Generated_Source\PSoC6\pdl\middleware\ble/cy_ble_gap.h ****  */  
 586:Generated_Source\PSoC6\pdl\middleware\ble/cy_ble_gap.h **** /** This is a two-bit variable that contains status of pending write to flash operation.
 587:Generated_Source\PSoC6\pdl\middleware\ble/cy_ble_gap.h ****  * This variable is initialized to zero in Cy_BLE_Init().
 588:Generated_Source\PSoC6\pdl\middleware\ble/cy_ble_gap.h ****  * CY_BLE_PENDING_CCCD_FLASH_WRITE_BIT flag is set after write to CCCD event when a
 589:Generated_Source\PSoC6\pdl\middleware\ble/cy_ble_gap.h ****  * peer device supports bonding (cy_ble_peerBonding[eventParam->connHandle.attId] == CY_BLE_GAP_BON
 590:Generated_Source\PSoC6\pdl\middleware\ble/cy_ble_gap.h ****  * CY_BLE_PENDING_STACK_FLASH_WRITE_BIT flag is set after CY_BLE_EVT_PENDING_FLASH_WRITE event.
 591:Generated_Source\PSoC6\pdl\middleware\ble/cy_ble_gap.h ****  * Cy_BLE_StoreBondingData() should be called to store pending bonding data.
 592:Generated_Source\PSoC6\pdl\middleware\ble/cy_ble_gap.h ****  * This function automatically clears pending bits after write operation is complete.
 593:Generated_Source\PSoC6\pdl\middleware\ble/cy_ble_gap.h ****  */
 594:Generated_Source\PSoC6\pdl\middleware\ble/cy_ble_gap.h **** extern uint8_t cy_ble_pendingFlashWrite;
 595:Generated_Source\PSoC6\pdl\middleware\ble/cy_ble_gap.h **** /** @} group_ble_common_api_global_variables */
 596:Generated_Source\PSoC6\pdl\middleware\ble/cy_ble_gap.h ****     
 597:Generated_Source\PSoC6\pdl\middleware\ble/cy_ble_gap.h **** /** Bonding type setting of peer device, CY_BLE_GAP_BONDING_NONE or CY_BLE_GAP_BONDING.
 598:Generated_Source\PSoC6\pdl\middleware\ble/cy_ble_gap.h ****  * It is initialized after pairing with peer device and used for cy_ble_pendingFlashWrite variable
 599:Generated_Source\PSoC6\pdl\middleware\ble/cy_ble_gap.h ****  * setting.
 600:Generated_Source\PSoC6\pdl\middleware\ble/cy_ble_gap.h ****  */
 601:Generated_Source\PSoC6\pdl\middleware\ble/cy_ble_gap.h **** extern uint8_t cy_ble_peerBonding[CY_BLE_CONN_COUNT];
 602:Generated_Source\PSoC6\pdl\middleware\ble/cy_ble_gap.h **** 
 603:Generated_Source\PSoC6\pdl\middleware\ble/cy_ble_gap.h **** #endif  /* (CY_BLE_BONDING_REQUIREMENT == CY_BLE_BONDING_YES) */
 604:Generated_Source\PSoC6\pdl\middleware\ble/cy_ble_gap.h **** 
 605:Generated_Source\PSoC6\pdl\middleware\ble/cy_ble_gap.h **** 
 606:Generated_Source\PSoC6\pdl\middleware\ble/cy_ble_gap.h **** /***************************************
 607:Generated_Source\PSoC6\pdl\middleware\ble/cy_ble_gap.h **** * Exported Functions (MACROS)
 608:Generated_Source\PSoC6\pdl\middleware\ble/cy_ble_gap.h **** ***************************************/
 609:Generated_Source\PSoC6\pdl\middleware\ble/cy_ble_gap.h **** #if ((CY_BLE_GAP_ROLE_PERIPHERAL || CY_BLE_GAP_ROLE_CENTRAL))
 610:Generated_Source\PSoC6\pdl\middleware\ble/cy_ble_gap.h ****    
 611:Generated_Source\PSoC6\pdl\middleware\ble/cy_ble_gap.h **** /******************************************************************************
 612:Generated_Source\PSoC6\pdl\middleware\ble/cy_ble_gap.h **** * Function Name: Cy_BLE_GetConnHandleIdx
 613:Generated_Source\PSoC6\pdl\middleware\ble/cy_ble_gap.h **** ***************************************************************************//**
 614:Generated_Source\PSoC6\pdl\middleware\ble/cy_ble_gap.h **** *
ARM GAS  C:\Users\hkmnt\AppData\Local\Temp\ccBdSSuH.s 			page 29


 615:Generated_Source\PSoC6\pdl\middleware\ble/cy_ble_gap.h **** *  This function searches the array of connection handles (cy_ble_connHandle[])
 616:Generated_Source\PSoC6\pdl\middleware\ble/cy_ble_gap.h **** *  for the location (index) of a handle that corresponds to the input parameter
 617:Generated_Source\PSoC6\pdl\middleware\ble/cy_ble_gap.h **** *  connHandle. bdHandle.
 618:Generated_Source\PSoC6\pdl\middleware\ble/cy_ble_gap.h **** *
 619:Generated_Source\PSoC6\pdl\middleware\ble/cy_ble_gap.h **** *  This function is designated for internal usage. 
 620:Generated_Source\PSoC6\pdl\middleware\ble/cy_ble_gap.h **** *    
 621:Generated_Source\PSoC6\pdl\middleware\ble/cy_ble_gap.h **** *  \param connHandle: The connection handle.
 622:Generated_Source\PSoC6\pdl\middleware\ble/cy_ble_gap.h **** *
 623:Generated_Source\PSoC6\pdl\middleware\ble/cy_ble_gap.h **** *  \return
 624:Generated_Source\PSoC6\pdl\middleware\ble/cy_ble_gap.h **** *  retValue: the index of connHandle  
 625:Generated_Source\PSoC6\pdl\middleware\ble/cy_ble_gap.h **** *    
 626:Generated_Source\PSoC6\pdl\middleware\ble/cy_ble_gap.h **** ******************************************************************************/
 627:Generated_Source\PSoC6\pdl\middleware\ble/cy_ble_gap.h **** __STATIC_INLINE uint8_t Cy_BLE_GetConnHandleIdx(cy_stc_ble_conn_handle_t connHandle)
 628:Generated_Source\PSoC6\pdl\middleware\ble/cy_ble_gap.h **** {
 629:Generated_Source\PSoC6\pdl\middleware\ble/cy_ble_gap.h ****     uint8_t idx;
 630:Generated_Source\PSoC6\pdl\middleware\ble/cy_ble_gap.h ****     uint8_t retValue = CY_BLE_CONN_COUNT;
 631:Generated_Source\PSoC6\pdl\middleware\ble/cy_ble_gap.h **** 
 632:Generated_Source\PSoC6\pdl\middleware\ble/cy_ble_gap.h ****     for(idx = 0u; idx < CY_BLE_CONN_COUNT; idx++)
 633:Generated_Source\PSoC6\pdl\middleware\ble/cy_ble_gap.h ****     {
 634:Generated_Source\PSoC6\pdl\middleware\ble/cy_ble_gap.h ****         if(cy_ble_connHandle[idx].bdHandle == connHandle.bdHandle)
 635:Generated_Source\PSoC6\pdl\middleware\ble/cy_ble_gap.h ****         {
 636:Generated_Source\PSoC6\pdl\middleware\ble/cy_ble_gap.h ****             retValue = idx;
 637:Generated_Source\PSoC6\pdl\middleware\ble/cy_ble_gap.h ****             break;
 638:Generated_Source\PSoC6\pdl\middleware\ble/cy_ble_gap.h ****         }
 639:Generated_Source\PSoC6\pdl\middleware\ble/cy_ble_gap.h ****     }
 640:Generated_Source\PSoC6\pdl\middleware\ble/cy_ble_gap.h ****     if(retValue == CY_BLE_CONN_COUNT)
 641:Generated_Source\PSoC6\pdl\middleware\ble/cy_ble_gap.h ****     {
 642:Generated_Source\PSoC6\pdl\middleware\ble/cy_ble_gap.h ****         /* HALT in debug mode */
 643:Generated_Source\PSoC6\pdl\middleware\ble/cy_ble_gap.h ****         CY_ASSERT(retValue != CY_BLE_CONN_COUNT);
 644:Generated_Source\PSoC6\pdl\middleware\ble/cy_ble_gap.h ****         retValue = 0u;
 645:Generated_Source\PSoC6\pdl\middleware\ble/cy_ble_gap.h ****     }
 646:Generated_Source\PSoC6\pdl\middleware\ble/cy_ble_gap.h **** 
 647:Generated_Source\PSoC6\pdl\middleware\ble/cy_ble_gap.h ****     return(retValue);
 648:Generated_Source\PSoC6\pdl\middleware\ble/cy_ble_gap.h **** }
 649:Generated_Source\PSoC6\pdl\middleware\ble/cy_ble_gap.h **** #endif  /* ((CY_BLE_GAP_ROLE_PERIPHERAL || CY_BLE_GAP_ROLE_CENTRAL)) */
 650:Generated_Source\PSoC6\pdl\middleware\ble/cy_ble_gap.h **** 
 651:Generated_Source\PSoC6\pdl\middleware\ble/cy_ble_gap.h **** /**
 652:Generated_Source\PSoC6\pdl\middleware\ble/cy_ble_gap.h ****  * \addtogroup group_ble_common_api_functions
 653:Generated_Source\PSoC6\pdl\middleware\ble/cy_ble_gap.h ****  * @{
 654:Generated_Source\PSoC6\pdl\middleware\ble/cy_ble_gap.h **** */
 655:Generated_Source\PSoC6\pdl\middleware\ble/cy_ble_gap.h **** /******************************************************************************
 656:Generated_Source\PSoC6\pdl\middleware\ble/cy_ble_gap.h **** * Function Name: Cy_BLE_GetState
 657:Generated_Source\PSoC6\pdl\middleware\ble/cy_ble_gap.h **** ***************************************************************************//**
 658:Generated_Source\PSoC6\pdl\middleware\ble/cy_ble_gap.h **** *
 659:Generated_Source\PSoC6\pdl\middleware\ble/cy_ble_gap.h **** *  This function is used to determine the current state of the BLE Middleware
 660:Generated_Source\PSoC6\pdl\middleware\ble/cy_ble_gap.h **** *  state machine :
 661:Generated_Source\PSoC6\pdl\middleware\ble/cy_ble_gap.h **** *
 662:Generated_Source\PSoC6\pdl\middleware\ble/cy_ble_gap.h **** *  \image html ble_middleware_state_machine.png
 663:Generated_Source\PSoC6\pdl\middleware\ble/cy_ble_gap.h **** *
 664:Generated_Source\PSoC6\pdl\middleware\ble/cy_ble_gap.h **** *  The BLE Middleware is in the state #CY_BLE_STATE_INITIALIZING after the 
 665:Generated_Source\PSoC6\pdl\middleware\ble/cy_ble_gap.h **** *  Cy_BLE_Enable() is called and until the #CY_BLE_EVT_STACK_ON event is not 
 666:Generated_Source\PSoC6\pdl\middleware\ble/cy_ble_gap.h **** *  received. After successful initialization the state is changed to 
 667:Generated_Source\PSoC6\pdl\middleware\ble/cy_ble_gap.h **** *  #CY_BLE_STATE_ON.
 668:Generated_Source\PSoC6\pdl\middleware\ble/cy_ble_gap.h **** *
 669:Generated_Source\PSoC6\pdl\middleware\ble/cy_ble_gap.h **** *  The BLE Middleware is in the state #CY_BLE_STATE_STOPPED 
 670:Generated_Source\PSoC6\pdl\middleware\ble/cy_ble_gap.h **** *  when the #CY_BLE_EVT_STACK_SHUTDOWN_COMPLETE event is received (after the 
 671:Generated_Source\PSoC6\pdl\middleware\ble/cy_ble_gap.h **** *  Cy_BLE_Disable() is called).
ARM GAS  C:\Users\hkmnt\AppData\Local\Temp\ccBdSSuH.s 			page 30


 672:Generated_Source\PSoC6\pdl\middleware\ble/cy_ble_gap.h **** *  
 673:Generated_Source\PSoC6\pdl\middleware\ble/cy_ble_gap.h **** *  For GAP Central role when the Cy_BLE_GAPC_ConnectDevice() is called, the state
 674:Generated_Source\PSoC6\pdl\middleware\ble/cy_ble_gap.h **** *  is changed to #CY_BLE_STATE_CONNECTING. After successful connection indicated
 675:Generated_Source\PSoC6\pdl\middleware\ble/cy_ble_gap.h **** *  by #CY_BLE_EVT_GAP_DEVICE_CONNECTED or #CY_BLE_EVT_GAP_ENHANCE_CONN_COMPLETE
 676:Generated_Source\PSoC6\pdl\middleware\ble/cy_ble_gap.h **** *  event or the timeout indicated by #CY_BLE_EVT_TIMEOUT event, the state is
 677:Generated_Source\PSoC6\pdl\middleware\ble/cy_ble_gap.h **** *  changed to #CY_BLE_STATE_ON.
 678:Generated_Source\PSoC6\pdl\middleware\ble/cy_ble_gap.h **** *
 679:Generated_Source\PSoC6\pdl\middleware\ble/cy_ble_gap.h **** * \return
 680:Generated_Source\PSoC6\pdl\middleware\ble/cy_ble_gap.h **** * \ref cy_en_ble_state_t : The current BLE Middleware state. The following are 
 681:Generated_Source\PSoC6\pdl\middleware\ble/cy_ble_gap.h **** *                         possible states:
 682:Generated_Source\PSoC6\pdl\middleware\ble/cy_ble_gap.h **** *
 683:Generated_Source\PSoC6\pdl\middleware\ble/cy_ble_gap.h **** *   State                      | Description
 684:Generated_Source\PSoC6\pdl\middleware\ble/cy_ble_gap.h **** *   -------------------------- | -----------
 685:Generated_Source\PSoC6\pdl\middleware\ble/cy_ble_gap.h **** *   CY_BLE_STATE_STOPPED       | BLE is turned off.
 686:Generated_Source\PSoC6\pdl\middleware\ble/cy_ble_gap.h **** *   CY_BLE_STATE_INITIALIZING  | BLE is initializing (waiting for #CY_BLE_EVT_STACK_ON event).
 687:Generated_Source\PSoC6\pdl\middleware\ble/cy_ble_gap.h **** *   CY_BLE_STATE_ON            | BLE is turned on.
 688:Generated_Source\PSoC6\pdl\middleware\ble/cy_ble_gap.h **** *   CY_BLE_STATE_CONNECTING    | BLE is connecting.
 689:Generated_Source\PSoC6\pdl\middleware\ble/cy_ble_gap.h **** 
 690:Generated_Source\PSoC6\pdl\middleware\ble/cy_ble_gap.h **** ******************************************************************************/
 691:Generated_Source\PSoC6\pdl\middleware\ble/cy_ble_gap.h **** #define Cy_BLE_GetState()    (cy_ble_state)
 692:Generated_Source\PSoC6\pdl\middleware\ble/cy_ble_gap.h **** 
 693:Generated_Source\PSoC6\pdl\middleware\ble/cy_ble_gap.h **** /** \cond IGNORE */
 694:Generated_Source\PSoC6\pdl\middleware\ble/cy_ble_gap.h **** /******************************************************************************
 695:Generated_Source\PSoC6\pdl\middleware\ble/cy_ble_gap.h **** * Function Name: Cy_BLE_SetState
 696:Generated_Source\PSoC6\pdl\middleware\ble/cy_ble_gap.h **** ***************************************************************************//**
 697:Generated_Source\PSoC6\pdl\middleware\ble/cy_ble_gap.h **** *
 698:Generated_Source\PSoC6\pdl\middleware\ble/cy_ble_gap.h **** *  Used to set the BLE Middleware state machine's state.
 699:Generated_Source\PSoC6\pdl\middleware\ble/cy_ble_gap.h **** *
 700:Generated_Source\PSoC6\pdl\middleware\ble/cy_ble_gap.h **** *  \param state: The desired state to which the event handler's
 701:Generated_Source\PSoC6\pdl\middleware\ble/cy_ble_gap.h **** *   state machine should be set. The parameter state is a variable
 702:Generated_Source\PSoC6\pdl\middleware\ble/cy_ble_gap.h **** *   of type cy_en_ble_state_t.
 703:Generated_Source\PSoC6\pdl\middleware\ble/cy_ble_gap.h **** *
 704:Generated_Source\PSoC6\pdl\middleware\ble/cy_ble_gap.h **** * \return
 705:Generated_Source\PSoC6\pdl\middleware\ble/cy_ble_gap.h **** *  None
 706:Generated_Source\PSoC6\pdl\middleware\ble/cy_ble_gap.h **** *
 707:Generated_Source\PSoC6\pdl\middleware\ble/cy_ble_gap.h **** ******************************************************************************/
 708:Generated_Source\PSoC6\pdl\middleware\ble/cy_ble_gap.h **** #define Cy_BLE_SetState(state)    (cy_ble_state = (state))
 709:Generated_Source\PSoC6\pdl\middleware\ble/cy_ble_gap.h **** /** \endcond */
 710:Generated_Source\PSoC6\pdl\middleware\ble/cy_ble_gap.h **** 
 711:Generated_Source\PSoC6\pdl\middleware\ble/cy_ble_gap.h **** #if (CY_BLE_GAP_ROLE_PERIPHERAL || CY_BLE_GAP_ROLE_BROADCASTER)
 712:Generated_Source\PSoC6\pdl\middleware\ble/cy_ble_gap.h **** 
 713:Generated_Source\PSoC6\pdl\middleware\ble/cy_ble_gap.h **** 
 714:Generated_Source\PSoC6\pdl\middleware\ble/cy_ble_gap.h **** /******************************************************************************
 715:Generated_Source\PSoC6\pdl\middleware\ble/cy_ble_gap.h **** * Function Name: Cy_BLE_GetAdvertisementState
 716:Generated_Source\PSoC6\pdl\middleware\ble/cy_ble_gap.h **** ***************************************************************************//**
 717:Generated_Source\PSoC6\pdl\middleware\ble/cy_ble_gap.h **** *    
 718:Generated_Source\PSoC6\pdl\middleware\ble/cy_ble_gap.h **** *  This function returns the state of the link layer hardware advertisement
 719:Generated_Source\PSoC6\pdl\middleware\ble/cy_ble_gap.h **** *  engine.
 720:Generated_Source\PSoC6\pdl\middleware\ble/cy_ble_gap.h **** *
 721:Generated_Source\PSoC6\pdl\middleware\ble/cy_ble_gap.h **** *  \image html ble_advertisement_state_machine.png
 722:Generated_Source\PSoC6\pdl\middleware\ble/cy_ble_gap.h **** *
 723:Generated_Source\PSoC6\pdl\middleware\ble/cy_ble_gap.h **** *  When Cy_BLE_GAPP_StartAdvertisement() is called, the state is set to
 724:Generated_Source\PSoC6\pdl\middleware\ble/cy_ble_gap.h **** *  #CY_BLE_ADV_STATE_ADV_INITIATED. It automatically changes to
 725:Generated_Source\PSoC6\pdl\middleware\ble/cy_ble_gap.h **** *  #CY_BLE_ADV_STATE_ADVERTISING when #CY_BLE_EVT_GAPP_ADVERTISEMENT_START_STOP
 726:Generated_Source\PSoC6\pdl\middleware\ble/cy_ble_gap.h **** *  event is received. When Cy_BLE_GAPP_StopAdvertisement() is called, the
 727:Generated_Source\PSoC6\pdl\middleware\ble/cy_ble_gap.h **** *  state is set to #CY_BLE_ADV_STATE_STOP_INITIATED. It automatically changes
 728:Generated_Source\PSoC6\pdl\middleware\ble/cy_ble_gap.h **** *  to #CY_BLE_ADV_STATE_STOPPED when the #CY_BLE_EVT_GAPP_ADVERTISEMENT_START_STOP
ARM GAS  C:\Users\hkmnt\AppData\Local\Temp\ccBdSSuH.s 			page 31


 729:Generated_Source\PSoC6\pdl\middleware\ble/cy_ble_gap.h **** *  event is received.
 730:Generated_Source\PSoC6\pdl\middleware\ble/cy_ble_gap.h **** *
 731:Generated_Source\PSoC6\pdl\middleware\ble/cy_ble_gap.h **** * \return
 732:Generated_Source\PSoC6\pdl\middleware\ble/cy_ble_gap.h **** * \ref cy_en_ble_adv_state_t :The current advertising state. The following are 
 733:Generated_Source\PSoC6\pdl\middleware\ble/cy_ble_gap.h **** *                              possible states.
 734:Generated_Source\PSoC6\pdl\middleware\ble/cy_ble_gap.h **** *
 735:Generated_Source\PSoC6\pdl\middleware\ble/cy_ble_gap.h **** *               State                |         Description
 736:Generated_Source\PSoC6\pdl\middleware\ble/cy_ble_gap.h **** *   -------------------------------- | -----------------------------
 737:Generated_Source\PSoC6\pdl\middleware\ble/cy_ble_gap.h **** *   CY_BLE_ADV_STATE_STOPPED         | Advertising is stopped.
 738:Generated_Source\PSoC6\pdl\middleware\ble/cy_ble_gap.h **** *   CY_BLE_ADV_STATE_ADV_INITIATED   | Advertising is initiated.
 739:Generated_Source\PSoC6\pdl\middleware\ble/cy_ble_gap.h **** *   CY_BLE_ADV_STATE_ADVERTISING     | Advertising is initiated.
 740:Generated_Source\PSoC6\pdl\middleware\ble/cy_ble_gap.h **** *   CY_BLE_ADV_STATE_STOP_INITIATED  | Stop advertising is initiated.
 741:Generated_Source\PSoC6\pdl\middleware\ble/cy_ble_gap.h **** *
 742:Generated_Source\PSoC6\pdl\middleware\ble/cy_ble_gap.h **** ******************************************************************************/
 743:Generated_Source\PSoC6\pdl\middleware\ble/cy_ble_gap.h **** __STATIC_INLINE cy_en_ble_adv_state_t Cy_BLE_GetAdvertisementState(void)
 744:Generated_Source\PSoC6\pdl\middleware\ble/cy_ble_gap.h **** {
 745:Generated_Source\PSoC6\pdl\middleware\ble/cy_ble_gap.h ****     return(cy_ble_advState);
 746:Generated_Source\PSoC6\pdl\middleware\ble/cy_ble_gap.h **** }
 747:Generated_Source\PSoC6\pdl\middleware\ble/cy_ble_gap.h **** 
 748:Generated_Source\PSoC6\pdl\middleware\ble/cy_ble_gap.h **** /** \cond IGNORE */
 749:Generated_Source\PSoC6\pdl\middleware\ble/cy_ble_gap.h **** /******************************************************************************
 750:Generated_Source\PSoC6\pdl\middleware\ble/cy_ble_gap.h **** * Function Name: Cy_BLE_SetAdvertisementState
 751:Generated_Source\PSoC6\pdl\middleware\ble/cy_ble_gap.h **** ***************************************************************************//**
 752:Generated_Source\PSoC6\pdl\middleware\ble/cy_ble_gap.h **** *
 753:Generated_Source\PSoC6\pdl\middleware\ble/cy_ble_gap.h **** *  Used to set the state of the link layer hardware advertisement engine.
 754:Generated_Source\PSoC6\pdl\middleware\ble/cy_ble_gap.h **** *
 755:Generated_Source\PSoC6\pdl\middleware\ble/cy_ble_gap.h **** *  \param state: The desired state.
 756:Generated_Source\PSoC6\pdl\middleware\ble/cy_ble_gap.h **** *
 757:Generated_Source\PSoC6\pdl\middleware\ble/cy_ble_gap.h **** * \return
 758:Generated_Source\PSoC6\pdl\middleware\ble/cy_ble_gap.h **** *  None
 759:Generated_Source\PSoC6\pdl\middleware\ble/cy_ble_gap.h **** *
 760:Generated_Source\PSoC6\pdl\middleware\ble/cy_ble_gap.h **** ******************************************************************************/
 761:Generated_Source\PSoC6\pdl\middleware\ble/cy_ble_gap.h **** __STATIC_INLINE void Cy_BLE_SetAdvertisementState(cy_en_ble_adv_state_t state)
 762:Generated_Source\PSoC6\pdl\middleware\ble/cy_ble_gap.h **** {
 763:Generated_Source\PSoC6\pdl\middleware\ble/cy_ble_gap.h ****     cy_ble_advState = state;
 559              		.loc 2 763 0
 560 01e6 4F4A     		ldr	r2, .L103+20
 561 01e8 1370     		strb	r3, [r2]
 562              	.LVL50:
 563              	.LBE83:
 564              	.LBE82:
 391:Generated_Source\PSoC6\pdl\middleware\ble/cy_ble_event_handler.c **** 
 392:Generated_Source\PSoC6\pdl\middleware\ble/cy_ble_event_handler.c ****             #if (CY_BLE_GAP_ROLE_PERIPHERAL || CY_BLE_GAP_ROLE_BROADCASTER)
 393:Generated_Source\PSoC6\pdl\middleware\ble/cy_ble_event_handler.c ****             Cy_BLE_SetAdvertisementState(CY_BLE_ADV_STATE_STOPPED);
 394:Generated_Source\PSoC6\pdl\middleware\ble/cy_ble_event_handler.c ****             #endif  /* (CY_BLE_GAP_ROLE_PERIPHERAL || CY_BLE_GAP_ROLE_BROADCASTER) */
 395:Generated_Source\PSoC6\pdl\middleware\ble/cy_ble_event_handler.c **** 
 396:Generated_Source\PSoC6\pdl\middleware\ble/cy_ble_event_handler.c ****             #if (CY_BLE_GAP_ROLE_CENTRAL || CY_BLE_GAP_ROLE_OBSERVER)
 397:Generated_Source\PSoC6\pdl\middleware\ble/cy_ble_event_handler.c ****             Cy_BLE_SetScanState(CY_BLE_SCAN_STATE_STOPPED);
 398:Generated_Source\PSoC6\pdl\middleware\ble/cy_ble_event_handler.c ****             #endif /* (CY_BLE_GAP_ROLE_CENTRAL || CY_BLE_GAP_ROLE_OBSERVER) */
 399:Generated_Source\PSoC6\pdl\middleware\ble/cy_ble_event_handler.c ****             
 400:Generated_Source\PSoC6\pdl\middleware\ble/cy_ble_event_handler.c ****             /* Clean pair status */
 401:Generated_Source\PSoC6\pdl\middleware\ble/cy_ble_event_handler.c ****             #if ((CY_BLE_GAP_ROLE_PERIPHERAL || CY_BLE_GAP_ROLE_CENTRAL))
 402:Generated_Source\PSoC6\pdl\middleware\ble/cy_ble_event_handler.c ****             (void)memset((uint8_t*)cy_ble_pairStatus, 0, sizeof(cy_ble_pairStatus));
 565              		.loc 1 402 0
 566 01ea 4F4A     		ldr	r2, .L103+24
 567 01ec 1370     		strb	r3, [r2]
 403:Generated_Source\PSoC6\pdl\middleware\ble/cy_ble_event_handler.c ****             #endif /*((CY_BLE_GAP_ROLE_PERIPHERAL || CY_BLE_GAP_ROLE_CENTRAL))*/
ARM GAS  C:\Users\hkmnt\AppData\Local\Temp\ccBdSSuH.s 			page 32


 404:Generated_Source\PSoC6\pdl\middleware\ble/cy_ble_event_handler.c **** 
 405:Generated_Source\PSoC6\pdl\middleware\ble/cy_ble_event_handler.c ****             /* Adding a delay of 10ms to ensure that the controller is completely 
 406:Generated_Source\PSoC6\pdl\middleware\ble/cy_ble_event_handler.c ****              * shut-down before generating the event to the application.
 407:Generated_Source\PSoC6\pdl\middleware\ble/cy_ble_event_handler.c ****              * Refer to CY_BLE_EVT_STACK_SHUTDOWN_COMPLETE event documentation. */
 408:Generated_Source\PSoC6\pdl\middleware\ble/cy_ble_event_handler.c ****             #if(CY_BLE_STACK_MODE_HOST_IPC)
 409:Generated_Source\PSoC6\pdl\middleware\ble/cy_ble_event_handler.c ****                 Cy_SysLib_Delay(10u);
 568              		.loc 1 409 0
 569 01ee 0A20     		movs	r0, #10
 570              	.LVL51:
 571 01f0 FFF7FEFF 		bl	Cy_SysLib_Delay
 572              	.LVL52:
 410:Generated_Source\PSoC6\pdl\middleware\ble/cy_ble_event_handler.c ****             #endif /* CY_BLE_STACK_MODE_HOST_IPC */  
 411:Generated_Source\PSoC6\pdl\middleware\ble/cy_ble_event_handler.c **** 
 412:Generated_Source\PSoC6\pdl\middleware\ble/cy_ble_event_handler.c ****             if ( event == CY_BLE_EVT_STACK_SHUTDOWN_COMPLETE)
 573              		.loc 1 412 0
 574 01f4 43F21203 		movw	r3, #12306
 575 01f8 9C42     		cmp	r4, r3
 576 01fa 40F0EF81 		bne	.L34
 413:Generated_Source\PSoC6\pdl\middleware\ble/cy_ble_event_handler.c ****             {
 414:Generated_Source\PSoC6\pdl\middleware\ble/cy_ble_event_handler.c ****                 /* Unregister BLE callback for Deepsleep/Sleep */
 415:Generated_Source\PSoC6\pdl\middleware\ble/cy_ble_event_handler.c ****                 Cy_BLE_UnregisterHostPMCallbacks();
 577              		.loc 1 415 0
 578 01fe FFF7FEFF 		bl	Cy_BLE_UnregisterHostPMCallbacks
 579              	.LVL53:
 580 0202 EBE1     		b	.L34
 581              	.LVL54:
 582              	.L44:
 416:Generated_Source\PSoC6\pdl\middleware\ble/cy_ble_event_handler.c ****             }
 417:Generated_Source\PSoC6\pdl\middleware\ble/cy_ble_event_handler.c ****             break;
 418:Generated_Source\PSoC6\pdl\middleware\ble/cy_ble_event_handler.c **** 
 419:Generated_Source\PSoC6\pdl\middleware\ble/cy_ble_event_handler.c ****         case CY_BLE_EVT_LE_SET_EVENT_MASK_COMPLETE:
 420:Generated_Source\PSoC6\pdl\middleware\ble/cy_ble_event_handler.c ****         #if (CY_BLE_MODE_PROFILE)
 421:Generated_Source\PSoC6\pdl\middleware\ble/cy_ble_event_handler.c ****             {
 422:Generated_Source\PSoC6\pdl\middleware\ble/cy_ble_event_handler.c ****                 if((cy_ble_cmdStatus & CY_BLE_STATUS_SET_TX_PWR_LVL) == 0u)
 583              		.loc 1 422 0
 584 0204 494B     		ldr	r3, .L103+28
 585 0206 1B68     		ldr	r3, [r3]
 586 0208 13F0010F 		tst	r3, #1
 587 020c 40F0E681 		bne	.L34
 588              	.LBB84:
 423:Generated_Source\PSoC6\pdl\middleware\ble/cy_ble_event_handler.c ****                 {
 424:Generated_Source\PSoC6\pdl\middleware\ble/cy_ble_event_handler.c ****                     cy_stc_ble_tx_pwr_lvl_info_t bleSsPowerLevel = { .pwrConfigParam.bdHandle = 0x0
 589              		.loc 1 424 0
 590 0210 0023     		movs	r3, #0
 591 0212 ADF81030 		strh	r3, [sp, #16]	@ movhi
 592 0216 8DF81230 		strb	r3, [sp, #18]
 425:Generated_Source\PSoC6\pdl\middleware\ble/cy_ble_event_handler.c **** 
 426:Generated_Source\PSoC6\pdl\middleware\ble/cy_ble_event_handler.c ****                     /* Set the Tx Power Level for advertising and connection channels */
 427:Generated_Source\PSoC6\pdl\middleware\ble/cy_ble_event_handler.c ****                     bleSsPowerLevel.blePwrLevel = cy_ble_configPtr->params->txPowerLevelAdv;
 593              		.loc 1 427 0
 594 021a 3F4E     		ldr	r6, .L103+8
 595 021c 3368     		ldr	r3, [r6]
 596 021e 9B6A     		ldr	r3, [r3, #40]
 597 0220 93F90030 		ldrsb	r3, [r3]
 598 0224 8DF81030 		strb	r3, [sp, #16]
 428:Generated_Source\PSoC6\pdl\middleware\ble/cy_ble_event_handler.c ****                     bleSsPowerLevel.pwrConfigParam.bleSsChId = CY_BLE_LL_ADV_CH_TYPE;
 429:Generated_Source\PSoC6\pdl\middleware\ble/cy_ble_event_handler.c ****                     (void)Cy_BLE_SetTxPowerLevel(&bleSsPowerLevel);
ARM GAS  C:\Users\hkmnt\AppData\Local\Temp\ccBdSSuH.s 			page 33


 599              		.loc 1 429 0
 600 0228 04A8     		add	r0, sp, #16
 601              	.LVL55:
 602 022a FFF7FEFF 		bl	Cy_BLE_SetTxPowerLevel
 603              	.LVL56:
 430:Generated_Source\PSoC6\pdl\middleware\ble/cy_ble_event_handler.c **** 
 431:Generated_Source\PSoC6\pdl\middleware\ble/cy_ble_event_handler.c ****                     bleSsPowerLevel.blePwrLevel = cy_ble_configPtr->params->txPowerLevelConn;
 604              		.loc 1 431 0
 605 022e 3368     		ldr	r3, [r6]
 606 0230 9B6A     		ldr	r3, [r3, #40]
 607 0232 93F90130 		ldrsb	r3, [r3, #1]
 608 0236 8DF81030 		strb	r3, [sp, #16]
 432:Generated_Source\PSoC6\pdl\middleware\ble/cy_ble_event_handler.c ****                     bleSsPowerLevel.pwrConfigParam.bleSsChId = CY_BLE_LL_CONN_CH_TYPE;
 609              		.loc 1 432 0
 610 023a 0123     		movs	r3, #1
 611 023c 8DF81130 		strb	r3, [sp, #17]
 433:Generated_Source\PSoC6\pdl\middleware\ble/cy_ble_event_handler.c ****                     bleSsPowerLevel.pwrConfigParam.bdHandle = 0xFFu; /* Set the tx power level valu
 612              		.loc 1 433 0
 613 0240 FF23     		movs	r3, #255
 614 0242 8DF81230 		strb	r3, [sp, #18]
 434:Generated_Source\PSoC6\pdl\middleware\ble/cy_ble_event_handler.c ****                     (void)Cy_BLE_SetTxPowerLevel(&bleSsPowerLevel);
 615              		.loc 1 434 0
 616 0246 04A8     		add	r0, sp, #16
 617 0248 FFF7FEFF 		bl	Cy_BLE_SetTxPowerLevel
 618              	.LVL57:
 435:Generated_Source\PSoC6\pdl\middleware\ble/cy_ble_event_handler.c ****                     
 436:Generated_Source\PSoC6\pdl\middleware\ble/cy_ble_event_handler.c ****                     /* Set flag that executed Cy_BLE_SetTxPowerLevel during BLE start-up  */
 437:Generated_Source\PSoC6\pdl\middleware\ble/cy_ble_event_handler.c ****                     cy_ble_cmdStatus |= CY_BLE_STATUS_SET_TX_PWR_LVL;
 619              		.loc 1 437 0
 620 024c 374A     		ldr	r2, .L103+28
 621 024e 1368     		ldr	r3, [r2]
 622 0250 43F00103 		orr	r3, r3, #1
 623 0254 1360     		str	r3, [r2]
 624 0256 C1E1     		b	.L34
 625              	.LVL58:
 626              	.L42:
 627              	.LBE84:
 438:Generated_Source\PSoC6\pdl\middleware\ble/cy_ble_event_handler.c ****                 }
 439:Generated_Source\PSoC6\pdl\middleware\ble/cy_ble_event_handler.c ****             }
 440:Generated_Source\PSoC6\pdl\middleware\ble/cy_ble_event_handler.c ****         #endif /* CY_BLE_MODE_PROFILE */
 441:Generated_Source\PSoC6\pdl\middleware\ble/cy_ble_event_handler.c ****             break;
 442:Generated_Source\PSoC6\pdl\middleware\ble/cy_ble_event_handler.c ****             
 443:Generated_Source\PSoC6\pdl\middleware\ble/cy_ble_event_handler.c ****         case CY_BLE_EVT_TIMEOUT:
 444:Generated_Source\PSoC6\pdl\middleware\ble/cy_ble_event_handler.c ****             Cy_BLE_TimeOutEventHandler((cy_stc_ble_timeout_param_t*)evParam);
 445:Generated_Source\PSoC6\pdl\middleware\ble/cy_ble_event_handler.c ****         #if (CY_BLE_GAP_ROLE_PERIPHERAL || CY_BLE_GAP_ROLE_CENTRAL)
 446:Generated_Source\PSoC6\pdl\middleware\ble/cy_ble_event_handler.c ****             (void)Cy_BLE_InvokeServiceEventHandler((uint32_t)event, (void*)evParam);
 628              		.loc 1 446 0
 629 0258 FFF7FEFF 		bl	Cy_BLE_InvokeServiceEventHandler
 630              	.LVL59:
 447:Generated_Source\PSoC6\pdl\middleware\ble/cy_ble_event_handler.c ****         #endif /*(CY_BLE_GAP_ROLE_PERIPHERAL || CY_BLE_GAP_ROLE_CENTRAL)*/
 448:Generated_Source\PSoC6\pdl\middleware\ble/cy_ble_event_handler.c ****             break;
 631              		.loc 1 448 0
 632 025c BEE1     		b	.L34
 633              	.LVL60:
 634              	.L39:
 449:Generated_Source\PSoC6\pdl\middleware\ble/cy_ble_event_handler.c **** 
 450:Generated_Source\PSoC6\pdl\middleware\ble/cy_ble_event_handler.c ****         case CY_BLE_EVT_STACK_BUSY_STATUS:
ARM GAS  C:\Users\hkmnt\AppData\Local\Temp\ccBdSSuH.s 			page 34


 451:Generated_Source\PSoC6\pdl\middleware\ble/cy_ble_event_handler.c ****         #if (CY_BLE_GAP_ROLE_PERIPHERAL || CY_BLE_GAP_ROLE_CENTRAL)
 452:Generated_Source\PSoC6\pdl\middleware\ble/cy_ble_event_handler.c ****             cy_ble_busyStatus[Cy_BLE_GetConnHandleByBdHandle(((cy_stc_ble_l2cap_state_info_t*)evPar
 635              		.loc 1 452 0
 636 025e 4978     		ldrb	r1, [r1, #1]	@ zero_extendqisi2
 637              	.LVL61:
 638              	.LBB85:
 639              	.LBB86:
 764:Generated_Source\PSoC6\pdl\middleware\ble/cy_ble_gap.h **** }
 765:Generated_Source\PSoC6\pdl\middleware\ble/cy_ble_gap.h **** /** \endcond */
 766:Generated_Source\PSoC6\pdl\middleware\ble/cy_ble_gap.h **** 
 767:Generated_Source\PSoC6\pdl\middleware\ble/cy_ble_gap.h **** #endif /* (CY_BLE_GAP_ROLE_PERIPHERAL || CY_BLE_GAP_ROLE_BROADCASTER) */
 768:Generated_Source\PSoC6\pdl\middleware\ble/cy_ble_gap.h **** 
 769:Generated_Source\PSoC6\pdl\middleware\ble/cy_ble_gap.h **** #if (CY_BLE_GAP_ROLE_CENTRAL || CY_BLE_GAP_ROLE_OBSERVER)
 770:Generated_Source\PSoC6\pdl\middleware\ble/cy_ble_gap.h **** 
 771:Generated_Source\PSoC6\pdl\middleware\ble/cy_ble_gap.h **** /******************************************************************************
 772:Generated_Source\PSoC6\pdl\middleware\ble/cy_ble_gap.h **** * Function Name: Cy_BLE_GetScanState
 773:Generated_Source\PSoC6\pdl\middleware\ble/cy_ble_gap.h **** ***************************************************************************//**
 774:Generated_Source\PSoC6\pdl\middleware\ble/cy_ble_gap.h **** *    
 775:Generated_Source\PSoC6\pdl\middleware\ble/cy_ble_gap.h **** *  This returns the state of the link layer hardware scan engine.
 776:Generated_Source\PSoC6\pdl\middleware\ble/cy_ble_gap.h **** *
 777:Generated_Source\PSoC6\pdl\middleware\ble/cy_ble_gap.h **** *  \image html ble_scanning_state_machine.png
 778:Generated_Source\PSoC6\pdl\middleware\ble/cy_ble_gap.h **** *   
 779:Generated_Source\PSoC6\pdl\middleware\ble/cy_ble_gap.h **** *  When Cy_BLE_GAPC_StartScan() is called the state is set to
 780:Generated_Source\PSoC6\pdl\middleware\ble/cy_ble_gap.h **** *  #CY_BLE_SCAN_STATE_SCAN_INITIATED. It automatically changes to
 781:Generated_Source\PSoC6\pdl\middleware\ble/cy_ble_gap.h **** *  #CY_BLE_SCAN_STATE_SCANNING when the #CY_BLE_EVT_GAPC_SCAN_START_STOP event is
 782:Generated_Source\PSoC6\pdl\middleware\ble/cy_ble_gap.h **** *  received. 
 783:Generated_Source\PSoC6\pdl\middleware\ble/cy_ble_gap.h **** *  When Cy_BLE_GAPC_StopScan() is called, the state is set to
 784:Generated_Source\PSoC6\pdl\middleware\ble/cy_ble_gap.h **** *  #CY_BLE_SCAN_STATE_STOP_INITIATED. It automatically changes to
 785:Generated_Source\PSoC6\pdl\middleware\ble/cy_ble_gap.h **** *  #CY_BLE_SCAN_STATE_STOPPED when the #CY_BLE_EVT_GAPC_SCAN_START_STOP event is
 786:Generated_Source\PSoC6\pdl\middleware\ble/cy_ble_gap.h **** *  received.
 787:Generated_Source\PSoC6\pdl\middleware\ble/cy_ble_gap.h **** *
 788:Generated_Source\PSoC6\pdl\middleware\ble/cy_ble_gap.h **** *  \return
 789:Generated_Source\PSoC6\pdl\middleware\ble/cy_ble_gap.h **** *  \ref cy_en_ble_scan_state_t : The current scan state. The following are 
 790:Generated_Source\PSoC6\pdl\middleware\ble/cy_ble_gap.h **** *                                possible states.
 791:Generated_Source\PSoC6\pdl\middleware\ble/cy_ble_gap.h **** *
 792:Generated_Source\PSoC6\pdl\middleware\ble/cy_ble_gap.h **** *               State                |         Description
 793:Generated_Source\PSoC6\pdl\middleware\ble/cy_ble_gap.h **** *   -------------------------------- | -----------------------------
 794:Generated_Source\PSoC6\pdl\middleware\ble/cy_ble_gap.h **** *   CY_BLE_SCAN_STATE_STOPPED        | Scanning is stopped.
 795:Generated_Source\PSoC6\pdl\middleware\ble/cy_ble_gap.h **** *   CY_BLE_SCAN_STATE_SCAN_INITIATED | Scanning is initiated.
 796:Generated_Source\PSoC6\pdl\middleware\ble/cy_ble_gap.h **** *   CY_BLE_SCAN_STATE_SCANNING       | Scanning process.
 797:Generated_Source\PSoC6\pdl\middleware\ble/cy_ble_gap.h **** *   CY_BLE_SCAN_STATE_STOP_INITIATED | Stop scanning is initiated.
 798:Generated_Source\PSoC6\pdl\middleware\ble/cy_ble_gap.h **** *
 799:Generated_Source\PSoC6\pdl\middleware\ble/cy_ble_gap.h **** ******************************************************************************/
 800:Generated_Source\PSoC6\pdl\middleware\ble/cy_ble_gap.h **** __STATIC_INLINE cy_en_ble_scan_state_t Cy_BLE_GetScanState(void)
 801:Generated_Source\PSoC6\pdl\middleware\ble/cy_ble_gap.h **** {
 802:Generated_Source\PSoC6\pdl\middleware\ble/cy_ble_gap.h ****     return(cy_ble_scanState);
 803:Generated_Source\PSoC6\pdl\middleware\ble/cy_ble_gap.h **** }
 804:Generated_Source\PSoC6\pdl\middleware\ble/cy_ble_gap.h **** 
 805:Generated_Source\PSoC6\pdl\middleware\ble/cy_ble_gap.h **** /** \cond IGNORE */
 806:Generated_Source\PSoC6\pdl\middleware\ble/cy_ble_gap.h **** /******************************************************************************
 807:Generated_Source\PSoC6\pdl\middleware\ble/cy_ble_gap.h **** * Function Name: Cy_BLE_SetScanState
 808:Generated_Source\PSoC6\pdl\middleware\ble/cy_ble_gap.h **** ***************************************************************************//**
 809:Generated_Source\PSoC6\pdl\middleware\ble/cy_ble_gap.h **** *
 810:Generated_Source\PSoC6\pdl\middleware\ble/cy_ble_gap.h **** *  Used to set the state of the link layer hardware scan engine.
 811:Generated_Source\PSoC6\pdl\middleware\ble/cy_ble_gap.h **** *
 812:Generated_Source\PSoC6\pdl\middleware\ble/cy_ble_gap.h **** *  \param state: The desired state.
 813:Generated_Source\PSoC6\pdl\middleware\ble/cy_ble_gap.h **** *
ARM GAS  C:\Users\hkmnt\AppData\Local\Temp\ccBdSSuH.s 			page 35


 814:Generated_Source\PSoC6\pdl\middleware\ble/cy_ble_gap.h **** *  \return
 815:Generated_Source\PSoC6\pdl\middleware\ble/cy_ble_gap.h **** *  None
 816:Generated_Source\PSoC6\pdl\middleware\ble/cy_ble_gap.h **** *
 817:Generated_Source\PSoC6\pdl\middleware\ble/cy_ble_gap.h **** ******************************************************************************/
 818:Generated_Source\PSoC6\pdl\middleware\ble/cy_ble_gap.h **** __STATIC_INLINE void Cy_BLE_SetScanState(cy_en_ble_scan_state_t state)
 819:Generated_Source\PSoC6\pdl\middleware\ble/cy_ble_gap.h **** {
 820:Generated_Source\PSoC6\pdl\middleware\ble/cy_ble_gap.h ****     cy_ble_scanState = state;
 821:Generated_Source\PSoC6\pdl\middleware\ble/cy_ble_gap.h **** }
 822:Generated_Source\PSoC6\pdl\middleware\ble/cy_ble_gap.h **** /** \endcond */
 823:Generated_Source\PSoC6\pdl\middleware\ble/cy_ble_gap.h **** 
 824:Generated_Source\PSoC6\pdl\middleware\ble/cy_ble_gap.h **** #endif  /* (CY_BLE_GAP_ROLE_CENTRAL || CY_BLE_GAP_ROLE_OBSERVER) */
 825:Generated_Source\PSoC6\pdl\middleware\ble/cy_ble_gap.h **** 
 826:Generated_Source\PSoC6\pdl\middleware\ble/cy_ble_gap.h ****  
 827:Generated_Source\PSoC6\pdl\middleware\ble/cy_ble_gap.h **** #if ((CY_BLE_GAP_ROLE_PERIPHERAL || CY_BLE_GAP_ROLE_CENTRAL))
 828:Generated_Source\PSoC6\pdl\middleware\ble/cy_ble_gap.h **** 
 829:Generated_Source\PSoC6\pdl\middleware\ble/cy_ble_gap.h **** /******************************************************************************
 830:Generated_Source\PSoC6\pdl\middleware\ble/cy_ble_gap.h **** * Function Name: Cy_BLE_GetConnectionState
 831:Generated_Source\PSoC6\pdl\middleware\ble/cy_ble_gap.h **** ***************************************************************************//**
 832:Generated_Source\PSoC6\pdl\middleware\ble/cy_ble_gap.h **** *  This function returns the state of the BLE link for the specified connection
 833:Generated_Source\PSoC6\pdl\middleware\ble/cy_ble_gap.h **** *  handle.
 834:Generated_Source\PSoC6\pdl\middleware\ble/cy_ble_gap.h **** *
 835:Generated_Source\PSoC6\pdl\middleware\ble/cy_ble_gap.h **** *  The state is set to #CY_BLE_CONN_STATE_CONNECTED when #CY_BLE_EVT_GATT_CONNECT_IND
 836:Generated_Source\PSoC6\pdl\middleware\ble/cy_ble_gap.h **** *  event is received with the corresponding connection handle.
 837:Generated_Source\PSoC6\pdl\middleware\ble/cy_ble_gap.h **** *  The state is set to #CY_BLE_CONN_STATE_DISCONNECTED when the
 838:Generated_Source\PSoC6\pdl\middleware\ble/cy_ble_gap.h **** *  #CY_BLE_EVT_GATT_DISCONNECT_IND event is received.
 839:Generated_Source\PSoC6\pdl\middleware\ble/cy_ble_gap.h **** *
 840:Generated_Source\PSoC6\pdl\middleware\ble/cy_ble_gap.h **** *  For GATT Client role when Cy_BLE_GATTC_StartDiscovery() is called, the state
 841:Generated_Source\PSoC6\pdl\middleware\ble/cy_ble_gap.h **** *  indicates the current flow of the discovery procedure by
 842:Generated_Source\PSoC6\pdl\middleware\ble/cy_ble_gap.h **** *  #CY_BLE_CONN_STATE_CLIENT_SRVC_DISCOVERING,
 843:Generated_Source\PSoC6\pdl\middleware\ble/cy_ble_gap.h **** *  #CY_BLE_CONN_STATE_CLIENT_INCL_DISCOVERING,
 844:Generated_Source\PSoC6\pdl\middleware\ble/cy_ble_gap.h **** *  #CY_BLE_CONN_STATE_CLIENT_CHAR_DISCOVERING,
 845:Generated_Source\PSoC6\pdl\middleware\ble/cy_ble_gap.h **** *  #CY_BLE_CONN_STATE_CLIENT_DESCR_DISCOVERING and changes to
 846:Generated_Source\PSoC6\pdl\middleware\ble/cy_ble_gap.h **** *  #CY_BLE_CONN_STATE_CLIENT_DISCOVERED when the procedure successfully completes.
 847:Generated_Source\PSoC6\pdl\middleware\ble/cy_ble_gap.h **** *
 848:Generated_Source\PSoC6\pdl\middleware\ble/cy_ble_gap.h **** *  The state changes from #CY_BLE_CONN_STATE_CLIENT_DISCOVERED to
 849:Generated_Source\PSoC6\pdl\middleware\ble/cy_ble_gap.h **** *  #CY_BLE_CONN_STATE_CLIENT_DISCONNECTED_DISCOVERED when
 850:Generated_Source\PSoC6\pdl\middleware\ble/cy_ble_gap.h **** *  the #CY_BLE_EVT_GATT_DISCONNECT_IND event is received.
 851:Generated_Source\PSoC6\pdl\middleware\ble/cy_ble_gap.h **** *  The state comes backs to #CY_BLE_CONN_STATE_CLIENT_DISCOVERED when
 852:Generated_Source\PSoC6\pdl\middleware\ble/cy_ble_gap.h **** *  #CY_BLE_EVT_GATT_CONNECT_IND event is received and resolvable device
 853:Generated_Source\PSoC6\pdl\middleware\ble/cy_ble_gap.h **** *  address is not changed.
 854:Generated_Source\PSoC6\pdl\middleware\ble/cy_ble_gap.h **** *
 855:Generated_Source\PSoC6\pdl\middleware\ble/cy_ble_gap.h **** *  \param connHandle: The connection handle.
 856:Generated_Source\PSoC6\pdl\middleware\ble/cy_ble_gap.h **** *
 857:Generated_Source\PSoC6\pdl\middleware\ble/cy_ble_gap.h **** * \return
 858:Generated_Source\PSoC6\pdl\middleware\ble/cy_ble_gap.h **** * \ref cy_en_ble_conn_state_t : The current client state. The following are 
 859:Generated_Source\PSoC6\pdl\middleware\ble/cy_ble_gap.h **** *                               possible states.
 860:Generated_Source\PSoC6\pdl\middleware\ble/cy_ble_gap.h **** *
 861:Generated_Source\PSoC6\pdl\middleware\ble/cy_ble_gap.h **** *               State                                |         Description
 862:Generated_Source\PSoC6\pdl\middleware\ble/cy_ble_gap.h **** *   ------------------------------------------------ | -----------------------------
 863:Generated_Source\PSoC6\pdl\middleware\ble/cy_ble_gap.h **** *   CY_BLE_CONN_STATE_DISCONNECTED                   | Essentially idle state
 864:Generated_Source\PSoC6\pdl\middleware\ble/cy_ble_gap.h **** *   CY_BLE_CONN_STATE_CLIENT_DISCONNECTED_DISCOVERED | Server is disconnected but discovered.
 865:Generated_Source\PSoC6\pdl\middleware\ble/cy_ble_gap.h **** *   CY_BLE_CONN_STATE_CONNECTED                      | Peer device is connected for this and follow
 866:Generated_Source\PSoC6\pdl\middleware\ble/cy_ble_gap.h **** *   CY_BLE_CONN_STATE_CLIENT_SRVC_DISCOVERING        | Server services are being discovered.
 867:Generated_Source\PSoC6\pdl\middleware\ble/cy_ble_gap.h **** *   CY_BLE_CONN_STATE_CLIENT_INCL_DISCOVERING        | Server included services are being discovere
 868:Generated_Source\PSoC6\pdl\middleware\ble/cy_ble_gap.h **** *   CY_BLE_CONN_STATE_CLIENT_CHAR_DISCOVERING        | Server characteristics are being discovered
 869:Generated_Source\PSoC6\pdl\middleware\ble/cy_ble_gap.h **** *   CY_BLE_CONN_STATE_CLIENT_DESCR_DISCOVERING       | Server char. descriptors are being discovere
 870:Generated_Source\PSoC6\pdl\middleware\ble/cy_ble_gap.h **** *   CY_BLE_CONN_STATE_CLIENT_DISCOVERED              | Server is discovered   
ARM GAS  C:\Users\hkmnt\AppData\Local\Temp\ccBdSSuH.s 			page 36


 871:Generated_Source\PSoC6\pdl\middleware\ble/cy_ble_gap.h **** *
 872:Generated_Source\PSoC6\pdl\middleware\ble/cy_ble_gap.h **** *  \funcusage 
 873:Generated_Source\PSoC6\pdl\middleware\ble/cy_ble_gap.h **** *  \snippet ble\3.0\snippet\main.c BLE Common API: Cy_BLE_GetConnectionState()
 874:Generated_Source\PSoC6\pdl\middleware\ble/cy_ble_gap.h **** *
 875:Generated_Source\PSoC6\pdl\middleware\ble/cy_ble_gap.h **** ******************************************************************************/
 876:Generated_Source\PSoC6\pdl\middleware\ble/cy_ble_gap.h **** __STATIC_INLINE cy_en_ble_conn_state_t Cy_BLE_GetConnectionState(cy_stc_ble_conn_handle_t connHandl
 877:Generated_Source\PSoC6\pdl\middleware\ble/cy_ble_gap.h **** {
 878:Generated_Source\PSoC6\pdl\middleware\ble/cy_ble_gap.h ****     return((connHandle.attId < CY_BLE_CONN_COUNT) ? cy_ble_connState[connHandle.attId] : CY_BLE_CON
 879:Generated_Source\PSoC6\pdl\middleware\ble/cy_ble_gap.h **** }
 880:Generated_Source\PSoC6\pdl\middleware\ble/cy_ble_gap.h **** 
 881:Generated_Source\PSoC6\pdl\middleware\ble/cy_ble_gap.h **** /** \cond IGNORE */
 882:Generated_Source\PSoC6\pdl\middleware\ble/cy_ble_gap.h **** /******************************************************************************
 883:Generated_Source\PSoC6\pdl\middleware\ble/cy_ble_gap.h **** * Function Name: Cy_BLE_SetConnectionState
 884:Generated_Source\PSoC6\pdl\middleware\ble/cy_ble_gap.h **** ***************************************************************************//**
 885:Generated_Source\PSoC6\pdl\middleware\ble/cy_ble_gap.h **** *
 886:Generated_Source\PSoC6\pdl\middleware\ble/cy_ble_gap.h **** *  Used to set BLE link state for the specified connection handle.
 887:Generated_Source\PSoC6\pdl\middleware\ble/cy_ble_gap.h **** *
 888:Generated_Source\PSoC6\pdl\middleware\ble/cy_ble_gap.h **** *  \param connHandle: Peer device handle
 889:Generated_Source\PSoC6\pdl\middleware\ble/cy_ble_gap.h **** *  \param state:  The state that is desired to be set
 890:Generated_Source\PSoC6\pdl\middleware\ble/cy_ble_gap.h **** *
 891:Generated_Source\PSoC6\pdl\middleware\ble/cy_ble_gap.h **** ******************************************************************************/
 892:Generated_Source\PSoC6\pdl\middleware\ble/cy_ble_gap.h **** __STATIC_INLINE void Cy_BLE_SetConnectionState(cy_stc_ble_conn_handle_t connHandle,
 893:Generated_Source\PSoC6\pdl\middleware\ble/cy_ble_gap.h ****                                                cy_en_ble_conn_state_t state)
 894:Generated_Source\PSoC6\pdl\middleware\ble/cy_ble_gap.h **** {
 895:Generated_Source\PSoC6\pdl\middleware\ble/cy_ble_gap.h ****     if(connHandle.attId < CY_BLE_CONN_COUNT)
 896:Generated_Source\PSoC6\pdl\middleware\ble/cy_ble_gap.h ****     {
 897:Generated_Source\PSoC6\pdl\middleware\ble/cy_ble_gap.h ****         cy_ble_connState[connHandle.attId] = state;
 898:Generated_Source\PSoC6\pdl\middleware\ble/cy_ble_gap.h ****     }
 899:Generated_Source\PSoC6\pdl\middleware\ble/cy_ble_gap.h ****     else
 900:Generated_Source\PSoC6\pdl\middleware\ble/cy_ble_gap.h ****     {
 901:Generated_Source\PSoC6\pdl\middleware\ble/cy_ble_gap.h ****         /* Halt in debug mode*/
 902:Generated_Source\PSoC6\pdl\middleware\ble/cy_ble_gap.h ****         CY_ASSERT(connHandle.attId >= CY_BLE_CONN_COUNT);
 903:Generated_Source\PSoC6\pdl\middleware\ble/cy_ble_gap.h ****     }
 904:Generated_Source\PSoC6\pdl\middleware\ble/cy_ble_gap.h **** }
 905:Generated_Source\PSoC6\pdl\middleware\ble/cy_ble_gap.h **** /** \endcond */
 906:Generated_Source\PSoC6\pdl\middleware\ble/cy_ble_gap.h **** 
 907:Generated_Source\PSoC6\pdl\middleware\ble/cy_ble_gap.h **** /******************************************************************************
 908:Generated_Source\PSoC6\pdl\middleware\ble/cy_ble_gap.h **** * Function Name: Cy_BLE_GetNumOfActiveConn
 909:Generated_Source\PSoC6\pdl\middleware\ble/cy_ble_gap.h **** ***************************************************************************//**
 910:Generated_Source\PSoC6\pdl\middleware\ble/cy_ble_gap.h **** *
 911:Generated_Source\PSoC6\pdl\middleware\ble/cy_ble_gap.h **** *  Used to get active number of connections.
 912:Generated_Source\PSoC6\pdl\middleware\ble/cy_ble_gap.h **** *
 913:Generated_Source\PSoC6\pdl\middleware\ble/cy_ble_gap.h **** *  \return
 914:Generated_Source\PSoC6\pdl\middleware\ble/cy_ble_gap.h **** *  connNum - number of active connections
 915:Generated_Source\PSoC6\pdl\middleware\ble/cy_ble_gap.h **** *
 916:Generated_Source\PSoC6\pdl\middleware\ble/cy_ble_gap.h **** ******************************************************************************/
 917:Generated_Source\PSoC6\pdl\middleware\ble/cy_ble_gap.h **** __STATIC_INLINE uint8_t Cy_BLE_GetNumOfActiveConn(void)
 918:Generated_Source\PSoC6\pdl\middleware\ble/cy_ble_gap.h **** {
 919:Generated_Source\PSoC6\pdl\middleware\ble/cy_ble_gap.h ****     uint32_t i;
 920:Generated_Source\PSoC6\pdl\middleware\ble/cy_ble_gap.h ****     uint8_t connNum = 0u;
 921:Generated_Source\PSoC6\pdl\middleware\ble/cy_ble_gap.h **** 
 922:Generated_Source\PSoC6\pdl\middleware\ble/cy_ble_gap.h ****     for(i = 0u; i < CY_BLE_CONN_COUNT; i++)
 923:Generated_Source\PSoC6\pdl\middleware\ble/cy_ble_gap.h ****     {
 924:Generated_Source\PSoC6\pdl\middleware\ble/cy_ble_gap.h ****         if(cy_ble_connState[i] >= CY_BLE_CONN_STATE_CONNECTED)
 925:Generated_Source\PSoC6\pdl\middleware\ble/cy_ble_gap.h ****         {
 926:Generated_Source\PSoC6\pdl\middleware\ble/cy_ble_gap.h ****             connNum++;
 927:Generated_Source\PSoC6\pdl\middleware\ble/cy_ble_gap.h ****         }
ARM GAS  C:\Users\hkmnt\AppData\Local\Temp\ccBdSSuH.s 			page 37


 928:Generated_Source\PSoC6\pdl\middleware\ble/cy_ble_gap.h ****     }
 929:Generated_Source\PSoC6\pdl\middleware\ble/cy_ble_gap.h **** 
 930:Generated_Source\PSoC6\pdl\middleware\ble/cy_ble_gap.h ****     return(connNum);
 931:Generated_Source\PSoC6\pdl\middleware\ble/cy_ble_gap.h **** }
 932:Generated_Source\PSoC6\pdl\middleware\ble/cy_ble_gap.h **** 
 933:Generated_Source\PSoC6\pdl\middleware\ble/cy_ble_gap.h **** 
 934:Generated_Source\PSoC6\pdl\middleware\ble/cy_ble_gap.h **** /******************************************************************************
 935:Generated_Source\PSoC6\pdl\middleware\ble/cy_ble_gap.h **** * Function Name: Cy_BLE_GetConnHandleByBdHandle
 936:Generated_Source\PSoC6\pdl\middleware\ble/cy_ble_gap.h **** ***************************************************************************//**
 937:Generated_Source\PSoC6\pdl\middleware\ble/cy_ble_gap.h **** *
 938:Generated_Source\PSoC6\pdl\middleware\ble/cy_ble_gap.h **** *  Used to get connection handle by bdHandle
 939:Generated_Source\PSoC6\pdl\middleware\ble/cy_ble_gap.h **** *  This function halts in debug mode if bdHandle does not exist in the connected device
 940:Generated_Source\PSoC6\pdl\middleware\ble/cy_ble_gap.h **** *  list
 941:Generated_Source\PSoC6\pdl\middleware\ble/cy_ble_gap.h **** *
 942:Generated_Source\PSoC6\pdl\middleware\ble/cy_ble_gap.h **** *  \param bdHandle: Peer device handle
 943:Generated_Source\PSoC6\pdl\middleware\ble/cy_ble_gap.h **** *
 944:Generated_Source\PSoC6\pdl\middleware\ble/cy_ble_gap.h **** *  \return
 945:Generated_Source\PSoC6\pdl\middleware\ble/cy_ble_gap.h **** *  * connHandle: Full connection handle.
 946:Generated_Source\PSoC6\pdl\middleware\ble/cy_ble_gap.h **** *  * connHandle.attId = CY_BLE_INVALID_CONN_HANDLE_VALUE: invalid bdHandle
 947:Generated_Source\PSoC6\pdl\middleware\ble/cy_ble_gap.h **** *
 948:Generated_Source\PSoC6\pdl\middleware\ble/cy_ble_gap.h **** ******************************************************************************/
 949:Generated_Source\PSoC6\pdl\middleware\ble/cy_ble_gap.h **** __STATIC_INLINE cy_stc_ble_conn_handle_t Cy_BLE_GetConnHandleByBdHandle(uint8_t bdHandle)
 950:Generated_Source\PSoC6\pdl\middleware\ble/cy_ble_gap.h **** {
 951:Generated_Source\PSoC6\pdl\middleware\ble/cy_ble_gap.h ****     uint32_t i;
 952:Generated_Source\PSoC6\pdl\middleware\ble/cy_ble_gap.h ****     cy_stc_ble_conn_handle_t cHandle =
 640              		.loc 2 952 0
 641 0260 334B     		ldr	r3, .L103+32
 642 0262 1B88     		ldrh	r3, [r3]	@ unaligned
 643 0264 ADF81030 		strh	r3, [sp, #16]	@ unaligned
 644              	.LVL62:
 953:Generated_Source\PSoC6\pdl\middleware\ble/cy_ble_gap.h ****     {
 954:Generated_Source\PSoC6\pdl\middleware\ble/cy_ble_gap.h ****         .attId    = CY_BLE_INVALID_CONN_HANDLE_VALUE,
 955:Generated_Source\PSoC6\pdl\middleware\ble/cy_ble_gap.h ****         .bdHandle = CY_BLE_INVALID_CONN_HANDLE_VALUE
 956:Generated_Source\PSoC6\pdl\middleware\ble/cy_ble_gap.h ****     };
 957:Generated_Source\PSoC6\pdl\middleware\ble/cy_ble_gap.h **** 
 958:Generated_Source\PSoC6\pdl\middleware\ble/cy_ble_gap.h ****     for(i = 0u; i < CY_BLE_CONN_COUNT; i++)
 645              		.loc 2 958 0
 646 0268 0023     		movs	r3, #0
 647 026a 19E0     		b	.L67
 648              	.LVL63:
 649              	.L71:
 650 026c 314A     		ldr	r2, .L103+36
 651 026e 32F81320 		ldrh	r2, [r2, r3, lsl #1]	@ unaligned
 652 0272 ADF80820 		strh	r2, [sp, #8]	@ unaligned
 653              	.LBB87:
 654              	.LBB88:
 878:Generated_Source\PSoC6\pdl\middleware\ble/cy_ble_gap.h **** }
 655              		.loc 2 878 0
 656 0276 9DF80920 		ldrb	r2, [sp, #9]	@ zero_extendqisi2
 657 027a 12B9     		cbnz	r2, .L99
 658 027c 2E48     		ldr	r0, .L103+40
 659 027e 825C     		ldrb	r2, [r0, r2]	@ zero_extendqisi2
 660 0280 00E0     		b	.L68
 661              	.L99:
 662 0282 0022     		movs	r2, #0
 663              	.L68:
 664              	.LBE88:
ARM GAS  C:\Users\hkmnt\AppData\Local\Temp\ccBdSSuH.s 			page 38


 665              	.LBE87:
 959:Generated_Source\PSoC6\pdl\middleware\ble/cy_ble_gap.h ****     {
 960:Generated_Source\PSoC6\pdl\middleware\ble/cy_ble_gap.h ****         if((Cy_BLE_GetConnectionState(cy_ble_connHandle[i]) >= CY_BLE_CONN_STATE_CONNECTED) &&
 666              		.loc 2 960 0
 667 0284 012A     		cmp	r2, #1
 668 0286 0AD9     		bls	.L69
 961:Generated_Source\PSoC6\pdl\middleware\ble/cy_ble_gap.h ****                 (cy_ble_connHandle[i].bdHandle == bdHandle))
 669              		.loc 2 961 0
 670 0288 2A4A     		ldr	r2, .L103+36
 671 028a 12F81320 		ldrb	r2, [r2, r3, lsl #1]	@ zero_extendqisi2
 960:Generated_Source\PSoC6\pdl\middleware\ble/cy_ble_gap.h ****                 (cy_ble_connHandle[i].bdHandle == bdHandle))
 672              		.loc 2 960 0
 673 028e 9142     		cmp	r1, r2
 674 0290 05D1     		bne	.L69
 962:Generated_Source\PSoC6\pdl\middleware\ble/cy_ble_gap.h ****         {
 963:Generated_Source\PSoC6\pdl\middleware\ble/cy_ble_gap.h ****             cHandle = cy_ble_connHandle[i];
 675              		.loc 2 963 0
 676 0292 284A     		ldr	r2, .L103+36
 677 0294 32F81330 		ldrh	r3, [r2, r3, lsl #1]	@ unaligned
 678              	.LVL64:
 679 0298 ADF81030 		strh	r3, [sp, #16]	@ unaligned
 680 029c 02E0     		b	.L70
 681              	.LVL65:
 682              	.L69:
 958:Generated_Source\PSoC6\pdl\middleware\ble/cy_ble_gap.h ****     {
 683              		.loc 2 958 0
 684 029e 0133     		adds	r3, r3, #1
 685              	.LVL66:
 686              	.L67:
 687 02a0 002B     		cmp	r3, #0
 688 02a2 E3D0     		beq	.L71
 689              	.LVL67:
 690              	.L70:
 964:Generated_Source\PSoC6\pdl\middleware\ble/cy_ble_gap.h ****             break;
 965:Generated_Source\PSoC6\pdl\middleware\ble/cy_ble_gap.h ****         }
 966:Generated_Source\PSoC6\pdl\middleware\ble/cy_ble_gap.h ****     }
 967:Generated_Source\PSoC6\pdl\middleware\ble/cy_ble_gap.h ****     if(cHandle.attId == CY_BLE_INVALID_CONN_HANDLE_VALUE)
 691              		.loc 2 967 0
 692 02a4 9DF81130 		ldrb	r3, [sp, #17]	@ zero_extendqisi2
 693 02a8 FF2B     		cmp	r3, #255
 694 02aa 05D1     		bne	.L72
 968:Generated_Source\PSoC6\pdl\middleware\ble/cy_ble_gap.h ****     {
 969:Generated_Source\PSoC6\pdl\middleware\ble/cy_ble_gap.h ****         /* HALT in debug mode */
 970:Generated_Source\PSoC6\pdl\middleware\ble/cy_ble_gap.h ****         CY_ASSERT(cHandle.attId != CY_BLE_INVALID_CONN_HANDLE_VALUE);
 695              		.loc 2 970 0
 696 02ac 04D1     		bne	.L72
 697 02ae 40F2CA31 		movw	r1, #970
 698              	.LVL68:
 699 02b2 2248     		ldr	r0, .L103+44
 700 02b4 FFF7FEFF 		bl	Cy_SysLib_AssertFailed
 701              	.LVL69:
 702              	.L72:
 971:Generated_Source\PSoC6\pdl\middleware\ble/cy_ble_gap.h ****     }
 972:Generated_Source\PSoC6\pdl\middleware\ble/cy_ble_gap.h **** 
 973:Generated_Source\PSoC6\pdl\middleware\ble/cy_ble_gap.h ****     return cHandle;
 703              		.loc 2 973 0
 704 02b8 BDF81030 		ldrh	r3, [sp, #16]
ARM GAS  C:\Users\hkmnt\AppData\Local\Temp\ccBdSSuH.s 			page 39


 705 02bc ADF81C30 		strh	r3, [sp, #28]	@ movhi
 706 02c0 ADF81830 		strh	r3, [sp, #24]	@ movhi
 707              	.LBE86:
 708              	.LBE85:
 709              		.loc 1 452 0
 710 02c4 C3F30723 		ubfx	r3, r3, #8, #8
 453:Generated_Source\PSoC6\pdl\middleware\ble/cy_ble_event_handler.c ****                 ((cy_stc_ble_l2cap_state_info_t*)evParam)->flowState;
 711              		.loc 1 453 0
 712 02c8 2978     		ldrb	r1, [r5]	@ zero_extendqisi2
 452:Generated_Source\PSoC6\pdl\middleware\ble/cy_ble_event_handler.c ****                 ((cy_stc_ble_l2cap_state_info_t*)evParam)->flowState;
 713              		.loc 1 452 0
 714 02ca 1D4A     		ldr	r2, .L103+48
 715 02cc D154     		strb	r1, [r2, r3]
 454:Generated_Source\PSoC6\pdl\middleware\ble/cy_ble_event_handler.c ****         #endif /*(CY_BLE_GAP_ROLE_PERIPHERAL || CY_BLE_GAP_ROLE_CENTRAL)*/
 455:Generated_Source\PSoC6\pdl\middleware\ble/cy_ble_event_handler.c ****             break;
 716              		.loc 1 455 0
 717 02ce 85E1     		b	.L34
 718              	.LVL70:
 719              	.L43:
 720              	.LBB89:
 456:Generated_Source\PSoC6\pdl\middleware\ble/cy_ble_event_handler.c **** 
 457:Generated_Source\PSoC6\pdl\middleware\ble/cy_ble_event_handler.c ****         case CY_BLE_EVT_MEMORY_REQUEST:
 458:Generated_Source\PSoC6\pdl\middleware\ble/cy_ble_event_handler.c ****         #if (CY_BLE_MODE_PROFILE)
 459:Generated_Source\PSoC6\pdl\middleware\ble/cy_ble_event_handler.c ****             {
 460:Generated_Source\PSoC6\pdl\middleware\ble/cy_ble_event_handler.c ****                 cy_stc_ble_memory_request_t *memReq = (cy_stc_ble_memory_request_t*)evParam;
 461:Generated_Source\PSoC6\pdl\middleware\ble/cy_ble_event_handler.c ****                 if(memReq->request == CY_BLE_PREPARED_WRITE_REQUEST)
 721              		.loc 1 461 0
 722 02d0 0B78     		ldrb	r3, [r1]	@ zero_extendqisi2
 723 02d2 002B     		cmp	r3, #0
 724 02d4 40F08281 		bne	.L34
 462:Generated_Source\PSoC6\pdl\middleware\ble/cy_ble_event_handler.c ****                 {
 463:Generated_Source\PSoC6\pdl\middleware\ble/cy_ble_event_handler.c ****             #if (CY_BLE_GATT_ENABLE_EXTERNAL_PREP_WRITE_BUFF == 0u)
 464:Generated_Source\PSoC6\pdl\middleware\ble/cy_ble_event_handler.c ****                     /* Stack requests to provide memory to process a remote request */
 465:Generated_Source\PSoC6\pdl\middleware\ble/cy_ble_event_handler.c ****                     if(memReq->allocFree == CY_BLE_ALLOC_MEMORY)
 725              		.loc 1 465 0
 726 02d8 0B7A     		ldrb	r3, [r1, #8]	@ zero_extendqisi2
 727 02da 3BB9     		cbnz	r3, .L73
 728              	.LBB90:
 466:Generated_Source\PSoC6\pdl\middleware\ble/cy_ble_event_handler.c ****                     {
 467:Generated_Source\PSoC6\pdl\middleware\ble/cy_ble_event_handler.c ****                         static cy_stc_ble_prepare_write_request_memory_t gPrepWriteReqMem;
 468:Generated_Source\PSoC6\pdl\middleware\ble/cy_ble_event_handler.c **** 
 469:Generated_Source\PSoC6\pdl\middleware\ble/cy_ble_event_handler.c ****                         /* Configure and return a statically allocated buffer at the end of the cy_
 470:Generated_Source\PSoC6\pdl\middleware\ble/cy_ble_event_handler.c ****                         gPrepWriteReqMem.prepareWriteQueueSize = CY_BLE_GATT_MAX_PREPARE_BUFF_COUNT
 729              		.loc 1 470 0
 730 02dc 194B     		ldr	r3, .L103+52
 731 02de 0322     		movs	r2, #3
 732 02e0 DA80     		strh	r2, [r3, #6]	@ movhi
 471:Generated_Source\PSoC6\pdl\middleware\ble/cy_ble_event_handler.c ****                         gPrepWriteReqMem.totalAttrValueLength = CY_BLE_GATT_PREPARE_LENGTH_ALIGN;
 733              		.loc 1 471 0
 734 02e2 2822     		movs	r2, #40
 735 02e4 9A80     		strh	r2, [r3, #4]	@ movhi
 472:Generated_Source\PSoC6\pdl\middleware\ble/cy_ble_event_handler.c ****                         gPrepWriteReqMem.queueBuffer = &cy_ble_stackMemoryRam[(CY_BLE_STACK_RAM_SIZ
 736              		.loc 1 472 0
 737 02e6 184A     		ldr	r2, .L103+56
 738 02e8 1A60     		str	r2, [r3]
 473:Generated_Source\PSoC6\pdl\middleware\ble/cy_ble_event_handler.c ****                                                                               CY_BLE_GATT_PREPARE_W
 474:Generated_Source\PSoC6\pdl\middleware\ble/cy_ble_event_handler.c ****                         memReq->configMemory = &gPrepWriteReqMem;
ARM GAS  C:\Users\hkmnt\AppData\Local\Temp\ccBdSSuH.s 			page 40


 739              		.loc 1 474 0
 740 02ea 4B60     		str	r3, [r1, #4]
 741              	.L73:
 742              	.LBE90:
 475:Generated_Source\PSoC6\pdl\middleware\ble/cy_ble_event_handler.c ****                     }
 476:Generated_Source\PSoC6\pdl\middleware\ble/cy_ble_event_handler.c ****                     /* Clear the CY_BLE_CALLBACK flag not to provide a handled event to the applica
 477:Generated_Source\PSoC6\pdl\middleware\ble/cy_ble_event_handler.c ****                     cy_ble_eventHandlerFlag &= (uint8_t) ~CY_BLE_CALLBACK;
 743              		.loc 1 477 0
 744 02ec 084A     		ldr	r2, .L103
 745 02ee 1378     		ldrb	r3, [r2]	@ zero_extendqisi2
 746 02f0 03F0FE03 		and	r3, r3, #254
 747 02f4 1370     		strb	r3, [r2]
 748 02f6 71E1     		b	.L34
 749              	.LVL71:
 750              	.L45:
 751              	.LBE89:
 478:Generated_Source\PSoC6\pdl\middleware\ble/cy_ble_event_handler.c ****             #endif  /* CY_BLE_GATT_ENABLE_EXTERNAL_PREP_WRITE_BUFF == 0u */
 479:Generated_Source\PSoC6\pdl\middleware\ble/cy_ble_event_handler.c ****                 }
 480:Generated_Source\PSoC6\pdl\middleware\ble/cy_ble_event_handler.c ****             }
 481:Generated_Source\PSoC6\pdl\middleware\ble/cy_ble_event_handler.c ****         #endif /* CY_BLE_MODE_PROFILE */
 482:Generated_Source\PSoC6\pdl\middleware\ble/cy_ble_event_handler.c ****             break;
 483:Generated_Source\PSoC6\pdl\middleware\ble/cy_ble_event_handler.c **** 
 484:Generated_Source\PSoC6\pdl\middleware\ble/cy_ble_event_handler.c ****         /**********************************************************
 485:Generated_Source\PSoC6\pdl\middleware\ble/cy_ble_event_handler.c ****          * GAP events
 486:Generated_Source\PSoC6\pdl\middleware\ble/cy_ble_event_handler.c ****          ************************************************************/
 487:Generated_Source\PSoC6\pdl\middleware\ble/cy_ble_event_handler.c ****         case CY_BLE_EVT_GAP_AUTH_REQ:
 488:Generated_Source\PSoC6\pdl\middleware\ble/cy_ble_event_handler.c ****             break;
 489:Generated_Source\PSoC6\pdl\middleware\ble/cy_ble_event_handler.c **** 
 490:Generated_Source\PSoC6\pdl\middleware\ble/cy_ble_event_handler.c ****         case CY_BLE_EVT_GAP_AUTH_COMPLETE:
 491:Generated_Source\PSoC6\pdl\middleware\ble/cy_ble_event_handler.c ****         #if ((CY_BLE_GAP_ROLE_PERIPHERAL || CY_BLE_GAP_ROLE_CENTRAL) && (CY_BLE_BONDING_REQUIREMENT
 492:Generated_Source\PSoC6\pdl\middleware\ble/cy_ble_event_handler.c ****             {
 493:Generated_Source\PSoC6\pdl\middleware\ble/cy_ble_event_handler.c ****                 cy_stc_ble_conn_handle_t connectedHandle;
 494:Generated_Source\PSoC6\pdl\middleware\ble/cy_ble_event_handler.c ****                 connectedHandle = Cy_BLE_GetConnHandleByBdHandle(((cy_stc_ble_gap_auth_info_t*)evPa
 495:Generated_Source\PSoC6\pdl\middleware\ble/cy_ble_event_handler.c ****                 cy_ble_peerBonding[connectedHandle.attId] = ((cy_stc_ble_gap_auth_info_t*)evParam)-
 496:Generated_Source\PSoC6\pdl\middleware\ble/cy_ble_event_handler.c ****             }
 497:Generated_Source\PSoC6\pdl\middleware\ble/cy_ble_event_handler.c ****         #endif  /* CY_BLE_BONDING_REQUIREMENT == CY_BLE_BONDING_YES */
 498:Generated_Source\PSoC6\pdl\middleware\ble/cy_ble_event_handler.c ****         
 499:Generated_Source\PSoC6\pdl\middleware\ble/cy_ble_event_handler.c ****         #if ((CY_BLE_GAP_ROLE_PERIPHERAL || CY_BLE_GAP_ROLE_CENTRAL))
 500:Generated_Source\PSoC6\pdl\middleware\ble/cy_ble_event_handler.c ****             if(((cy_stc_ble_gap_auth_info_t *)evParam)->authErr == CY_BLE_GAP_AUTH_ERROR_NONE)
 752              		.loc 1 500 0
 753 02f8 CB78     		ldrb	r3, [r1, #3]	@ zero_extendqisi2
 754 02fa 002B     		cmp	r3, #0
 755 02fc 40F06E81 		bne	.L34
 756              	.LBB91:
 501:Generated_Source\PSoC6\pdl\middleware\ble/cy_ble_event_handler.c ****             {
 502:Generated_Source\PSoC6\pdl\middleware\ble/cy_ble_event_handler.c ****                 cy_stc_ble_conn_handle_t connectedHandle;
 503:Generated_Source\PSoC6\pdl\middleware\ble/cy_ble_event_handler.c ****                 connectedHandle = Cy_BLE_GetConnHandleByBdHandle(((cy_stc_ble_gap_auth_info_t *)evP
 757              		.loc 1 503 0
 758 0300 4979     		ldrb	r1, [r1, #5]	@ zero_extendqisi2
 759              	.LVL72:
 760              	.LBB92:
 761              	.LBB93:
 952:Generated_Source\PSoC6\pdl\middleware\ble/cy_ble_gap.h ****     {
 762              		.loc 2 952 0
 763 0302 0B4B     		ldr	r3, .L103+32
 764 0304 1B88     		ldrh	r3, [r3]	@ unaligned
 765 0306 ADF81030 		strh	r3, [sp, #16]	@ unaligned
ARM GAS  C:\Users\hkmnt\AppData\Local\Temp\ccBdSSuH.s 			page 41


 766              	.LVL73:
 958:Generated_Source\PSoC6\pdl\middleware\ble/cy_ble_gap.h ****     {
 767              		.loc 2 958 0
 768 030a 0023     		movs	r3, #0
 769 030c 38E0     		b	.L74
 770              	.L104:
 771 030e 00BF     		.align	2
 772              	.L103:
 773 0310 00000000 		.word	cy_ble_eventHandlerFlag
 774 0314 00000000 		.word	cy_ble_sflashDeviceAddress
 775 0318 00000000 		.word	cy_ble_configPtr
 776 031c 00000000 		.word	.LANCHOR0
 777 0320 00000000 		.word	cy_ble_state
 778 0324 00000000 		.word	cy_ble_advState
 779 0328 00000000 		.word	cy_ble_pairStatus
 780 032c 00000000 		.word	cy_ble_cmdStatus
 781 0330 08000000 		.word	.LANCHOR0+8
 782 0334 00000000 		.word	cy_ble_connHandle
 783 0338 00000000 		.word	cy_ble_connState
 784 033c 00000000 		.word	.LC2
 785 0340 00000000 		.word	cy_ble_busyStatus
 786 0344 00000000 		.word	.LANCHOR1
 787 0348 D81C0000 		.word	cy_ble_stackMemoryRam+7384
 788              	.LVL74:
 789              	.L78:
 790 034c AC4A     		ldr	r2, .L105
 791 034e 32F81320 		ldrh	r2, [r2, r3, lsl #1]	@ unaligned
 792 0352 ADF80C20 		strh	r2, [sp, #12]	@ unaligned
 793              	.LBB94:
 794              	.LBB95:
 878:Generated_Source\PSoC6\pdl\middleware\ble/cy_ble_gap.h **** }
 795              		.loc 2 878 0
 796 0356 9DF80D20 		ldrb	r2, [sp, #13]	@ zero_extendqisi2
 797 035a 12B9     		cbnz	r2, .L100
 798 035c A948     		ldr	r0, .L105+4
 799 035e 825C     		ldrb	r2, [r0, r2]	@ zero_extendqisi2
 800 0360 00E0     		b	.L75
 801              	.L100:
 802 0362 0022     		movs	r2, #0
 803              	.L75:
 804              	.LBE95:
 805              	.LBE94:
 960:Generated_Source\PSoC6\pdl\middleware\ble/cy_ble_gap.h ****                 (cy_ble_connHandle[i].bdHandle == bdHandle))
 806              		.loc 2 960 0
 807 0364 012A     		cmp	r2, #1
 808 0366 0AD9     		bls	.L76
 961:Generated_Source\PSoC6\pdl\middleware\ble/cy_ble_gap.h ****         {
 809              		.loc 2 961 0
 810 0368 A54A     		ldr	r2, .L105
 811 036a 12F81320 		ldrb	r2, [r2, r3, lsl #1]	@ zero_extendqisi2
 960:Generated_Source\PSoC6\pdl\middleware\ble/cy_ble_gap.h ****                 (cy_ble_connHandle[i].bdHandle == bdHandle))
 812              		.loc 2 960 0
 813 036e 9142     		cmp	r1, r2
 814 0370 05D1     		bne	.L76
 963:Generated_Source\PSoC6\pdl\middleware\ble/cy_ble_gap.h ****             break;
 815              		.loc 2 963 0
 816 0372 A34A     		ldr	r2, .L105
ARM GAS  C:\Users\hkmnt\AppData\Local\Temp\ccBdSSuH.s 			page 42


 817 0374 32F81330 		ldrh	r3, [r2, r3, lsl #1]	@ unaligned
 818              	.LVL75:
 819 0378 ADF81030 		strh	r3, [sp, #16]	@ unaligned
 820 037c 02E0     		b	.L77
 821              	.LVL76:
 822              	.L76:
 958:Generated_Source\PSoC6\pdl\middleware\ble/cy_ble_gap.h ****     {
 823              		.loc 2 958 0
 824 037e 0133     		adds	r3, r3, #1
 825              	.LVL77:
 826              	.L74:
 827 0380 002B     		cmp	r3, #0
 828 0382 E3D0     		beq	.L78
 829              	.LVL78:
 830              	.L77:
 967:Generated_Source\PSoC6\pdl\middleware\ble/cy_ble_gap.h ****     {
 831              		.loc 2 967 0
 832 0384 9DF81130 		ldrb	r3, [sp, #17]	@ zero_extendqisi2
 833 0388 FF2B     		cmp	r3, #255
 834 038a 05D1     		bne	.L79
 970:Generated_Source\PSoC6\pdl\middleware\ble/cy_ble_gap.h ****     }
 835              		.loc 2 970 0
 836 038c 04D1     		bne	.L79
 837 038e 40F2CA31 		movw	r1, #970
 838              	.LVL79:
 839 0392 9D48     		ldr	r0, .L105+8
 840 0394 FFF7FEFF 		bl	Cy_SysLib_AssertFailed
 841              	.LVL80:
 842              	.L79:
 843              		.loc 2 973 0
 844 0398 BDF81030 		ldrh	r3, [sp, #16]
 845 039c ADF82030 		strh	r3, [sp, #32]	@ movhi
 846 03a0 ADF81030 		strh	r3, [sp, #16]	@ movhi
 847              	.LBE93:
 848              	.LBE92:
 504:Generated_Source\PSoC6\pdl\middleware\ble/cy_ble_event_handler.c ****                 cy_ble_pairStatus[connectedHandle.attId] = true;
 849              		.loc 1 504 0
 850 03a4 C3F30723 		ubfx	r3, r3, #8, #8
 851 03a8 0121     		movs	r1, #1
 852 03aa 984A     		ldr	r2, .L105+12
 853 03ac D154     		strb	r1, [r2, r3]
 854 03ae 15E1     		b	.L34
 855              	.LVL81:
 856              	.L54:
 857              	.LBE91:
 505:Generated_Source\PSoC6\pdl\middleware\ble/cy_ble_event_handler.c ****             }
 506:Generated_Source\PSoC6\pdl\middleware\ble/cy_ble_event_handler.c ****         #endif /* ((CY_BLE_GAP_ROLE_PERIPHERAL || CY_BLE_GAP_ROLE_CENTRAL)) */ 
 507:Generated_Source\PSoC6\pdl\middleware\ble/cy_ble_event_handler.c ****             break;
 508:Generated_Source\PSoC6\pdl\middleware\ble/cy_ble_event_handler.c **** 
 509:Generated_Source\PSoC6\pdl\middleware\ble/cy_ble_event_handler.c ****         case CY_BLE_EVT_GAP_CONNECTION_UPDATE_COMPLETE:
 510:Generated_Source\PSoC6\pdl\middleware\ble/cy_ble_event_handler.c ****         #if (CY_BLE_GAP_ROLE_PERIPHERAL || CY_BLE_GAP_ROLE_CENTRAL)
 511:Generated_Source\PSoC6\pdl\middleware\ble/cy_ble_event_handler.c ****             (void)Cy_BLE_InvokeServiceEventHandler((uint32_t)event, (void*)evParam);
 858              		.loc 1 511 0
 859 03b0 FFF7FEFF 		bl	Cy_BLE_InvokeServiceEventHandler
 860              	.LVL82:
 512:Generated_Source\PSoC6\pdl\middleware\ble/cy_ble_event_handler.c ****         #endif /*(CY_BLE_GAP_ROLE_PERIPHERAL || CY_BLE_GAP_ROLE_CENTRAL) */
 513:Generated_Source\PSoC6\pdl\middleware\ble/cy_ble_event_handler.c ****             break;
ARM GAS  C:\Users\hkmnt\AppData\Local\Temp\ccBdSSuH.s 			page 43


 861              		.loc 1 513 0
 862 03b4 12E1     		b	.L34
 863              	.LVL83:
 864              	.L49:
 865              	.LBB96:
 514:Generated_Source\PSoC6\pdl\middleware\ble/cy_ble_event_handler.c ****     
 515:Generated_Source\PSoC6\pdl\middleware\ble/cy_ble_event_handler.c ****         case CY_BLE_EVT_GAP_ENHANCE_CONN_COMPLETE:
 516:Generated_Source\PSoC6\pdl\middleware\ble/cy_ble_event_handler.c ****         case CY_BLE_EVT_GAP_DEVICE_CONNECTED:
 517:Generated_Source\PSoC6\pdl\middleware\ble/cy_ble_event_handler.c ****             {           
 518:Generated_Source\PSoC6\pdl\middleware\ble/cy_ble_event_handler.c ****             #if (CY_BLE_LL_PRIVACY_FEATURE != 0u)
 519:Generated_Source\PSoC6\pdl\middleware\ble/cy_ble_event_handler.c ****                 cy_stc_ble_gap_enhance_conn_complete_param_t *tEvParam = 
 520:Generated_Source\PSoC6\pdl\middleware\ble/cy_ble_event_handler.c ****                     (cy_stc_ble_gap_enhance_conn_complete_param_t *)evParam;
 521:Generated_Source\PSoC6\pdl\middleware\ble/cy_ble_event_handler.c ****             #else
 522:Generated_Source\PSoC6\pdl\middleware\ble/cy_ble_event_handler.c ****                 cy_stc_ble_gap_connected_param_t *tEvParam = (cy_stc_ble_gap_connected_param_t *)ev
 523:Generated_Source\PSoC6\pdl\middleware\ble/cy_ble_event_handler.c ****             #endif /* (CY_BLE_LL_PRIVACY_FEATURE != 0u) */    
 524:Generated_Source\PSoC6\pdl\middleware\ble/cy_ble_event_handler.c ****                 if(tEvParam->status == CY_BLE_HCI_SUCCESS)
 866              		.loc 1 524 0
 867 03b6 AB7E     		ldrb	r3, [r5, #26]	@ zero_extendqisi2
 868 03b8 002B     		cmp	r3, #0
 869 03ba 3FD1     		bne	.L80
 525:Generated_Source\PSoC6\pdl\middleware\ble/cy_ble_event_handler.c ****                 {
 526:Generated_Source\PSoC6\pdl\middleware\ble/cy_ble_event_handler.c ****                     /* Advertising is automatically stopped if a Slave is connected,
 527:Generated_Source\PSoC6\pdl\middleware\ble/cy_ble_event_handler.c ****                        so update the adv state to CY_BLE_ADV_STATE_STOPPED  */
 528:Generated_Source\PSoC6\pdl\middleware\ble/cy_ble_event_handler.c ****                     #if (CY_BLE_GAP_ROLE_PERIPHERAL || CY_BLE_GAP_ROLE_BROADCASTER)
 529:Generated_Source\PSoC6\pdl\middleware\ble/cy_ble_event_handler.c ****                         if(tEvParam->role == CY_BLE_GAP_LL_ROLE_SLAVE)
 870              		.loc 1 529 0
 871 03bc 2B7E     		ldrb	r3, [r5, #24]	@ zero_extendqisi2
 872 03be 012B     		cmp	r3, #1
 873 03c0 02D1     		bne	.L81
 874              	.LVL84:
 875              	.LBB97:
 876              	.LBB98:
 763:Generated_Source\PSoC6\pdl\middleware\ble/cy_ble_gap.h **** }
 877              		.loc 2 763 0
 878 03c2 0022     		movs	r2, #0
 879 03c4 924B     		ldr	r3, .L105+16
 880 03c6 1A70     		strb	r2, [r3]
 881              	.LVL85:
 882              	.L81:
 883              	.LBE98:
 884              	.LBE97:
 885              	.LBB99:
 530:Generated_Source\PSoC6\pdl\middleware\ble/cy_ble_event_handler.c ****                         {
 531:Generated_Source\PSoC6\pdl\middleware\ble/cy_ble_event_handler.c ****                             Cy_BLE_SetAdvertisementState(CY_BLE_ADV_STATE_STOPPED);
 532:Generated_Source\PSoC6\pdl\middleware\ble/cy_ble_event_handler.c ****                         }
 533:Generated_Source\PSoC6\pdl\middleware\ble/cy_ble_event_handler.c ****                     #endif /* (CY_BLE_GAP_ROLE_PERIPHERAL || CY_BLE_GAP_ROLE_BROADCASTER) */
 534:Generated_Source\PSoC6\pdl\middleware\ble/cy_ble_event_handler.c ****                     
 535:Generated_Source\PSoC6\pdl\middleware\ble/cy_ble_event_handler.c ****                     /* Stop Timer in central mode (if timer was started) */
 536:Generated_Source\PSoC6\pdl\middleware\ble/cy_ble_event_handler.c ****                     #if (CY_BLE_GAP_ROLE_CENTRAL)
 537:Generated_Source\PSoC6\pdl\middleware\ble/cy_ble_event_handler.c ****                         if(cy_ble_connectingTimeout.timeout != 0u)
 538:Generated_Source\PSoC6\pdl\middleware\ble/cy_ble_event_handler.c ****                         {
 539:Generated_Source\PSoC6\pdl\middleware\ble/cy_ble_event_handler.c ****                             (void)Cy_BLE_StopTimer(&cy_ble_connectingTimeout);
 540:Generated_Source\PSoC6\pdl\middleware\ble/cy_ble_event_handler.c ****                         }
 541:Generated_Source\PSoC6\pdl\middleware\ble/cy_ble_event_handler.c ****                     #endif /* CY_BLE_GAP_ROLE_CENTRAL */
 542:Generated_Source\PSoC6\pdl\middleware\ble/cy_ble_event_handler.c ****                     
 543:Generated_Source\PSoC6\pdl\middleware\ble/cy_ble_event_handler.c ****                     /* Store information about role of device connected (Master/Slave)*/
 544:Generated_Source\PSoC6\pdl\middleware\ble/cy_ble_event_handler.c ****                     #if ((CY_BLE_GAP_ROLE_PERIPHERAL || CY_BLE_GAP_ROLE_CENTRAL))
ARM GAS  C:\Users\hkmnt\AppData\Local\Temp\ccBdSSuH.s 			page 44


 545:Generated_Source\PSoC6\pdl\middleware\ble/cy_ble_event_handler.c ****                     {   
 546:Generated_Source\PSoC6\pdl\middleware\ble/cy_ble_event_handler.c ****                         cy_stc_ble_conn_handle_t tconnHandle = Cy_BLE_GetConnHandleByBdHandle(tEvPa
 886              		.loc 1 546 0
 887 03c8 E97E     		ldrb	r1, [r5, #27]	@ zero_extendqisi2
 888              	.LVL86:
 889              	.LBB100:
 890              	.LBB101:
 952:Generated_Source\PSoC6\pdl\middleware\ble/cy_ble_gap.h ****     {
 891              		.loc 2 952 0
 892 03ca 924B     		ldr	r3, .L105+20
 893 03cc 1B88     		ldrh	r3, [r3]	@ unaligned
 894 03ce ADF80C30 		strh	r3, [sp, #12]	@ unaligned
 895              	.LVL87:
 958:Generated_Source\PSoC6\pdl\middleware\ble/cy_ble_gap.h ****     {
 896              		.loc 2 958 0
 897 03d2 0023     		movs	r3, #0
 898 03d4 19E0     		b	.L82
 899              	.LVL88:
 900              	.L86:
 901 03d6 8A4A     		ldr	r2, .L105
 902 03d8 32F81320 		ldrh	r2, [r2, r3, lsl #1]	@ unaligned
 903 03dc ADF81020 		strh	r2, [sp, #16]	@ unaligned
 904              	.LBB102:
 905              	.LBB103:
 878:Generated_Source\PSoC6\pdl\middleware\ble/cy_ble_gap.h **** }
 906              		.loc 2 878 0
 907 03e0 9DF81120 		ldrb	r2, [sp, #17]	@ zero_extendqisi2
 908 03e4 12B9     		cbnz	r2, .L101
 909 03e6 8748     		ldr	r0, .L105+4
 910 03e8 825C     		ldrb	r2, [r0, r2]	@ zero_extendqisi2
 911 03ea 00E0     		b	.L83
 912              	.L101:
 913 03ec 0022     		movs	r2, #0
 914              	.L83:
 915              	.LBE103:
 916              	.LBE102:
 960:Generated_Source\PSoC6\pdl\middleware\ble/cy_ble_gap.h ****                 (cy_ble_connHandle[i].bdHandle == bdHandle))
 917              		.loc 2 960 0
 918 03ee 012A     		cmp	r2, #1
 919 03f0 0AD9     		bls	.L84
 961:Generated_Source\PSoC6\pdl\middleware\ble/cy_ble_gap.h ****         {
 920              		.loc 2 961 0
 921 03f2 834A     		ldr	r2, .L105
 922 03f4 12F81320 		ldrb	r2, [r2, r3, lsl #1]	@ zero_extendqisi2
 960:Generated_Source\PSoC6\pdl\middleware\ble/cy_ble_gap.h ****                 (cy_ble_connHandle[i].bdHandle == bdHandle))
 923              		.loc 2 960 0
 924 03f8 9142     		cmp	r1, r2
 925 03fa 05D1     		bne	.L84
 963:Generated_Source\PSoC6\pdl\middleware\ble/cy_ble_gap.h ****             break;
 926              		.loc 2 963 0
 927 03fc 804A     		ldr	r2, .L105
 928 03fe 32F81330 		ldrh	r3, [r2, r3, lsl #1]	@ unaligned
 929              	.LVL89:
 930 0402 ADF80C30 		strh	r3, [sp, #12]	@ unaligned
 931 0406 02E0     		b	.L85
 932              	.LVL90:
 933              	.L84:
ARM GAS  C:\Users\hkmnt\AppData\Local\Temp\ccBdSSuH.s 			page 45


 958:Generated_Source\PSoC6\pdl\middleware\ble/cy_ble_gap.h ****     {
 934              		.loc 2 958 0
 935 0408 0133     		adds	r3, r3, #1
 936              	.LVL91:
 937              	.L82:
 938 040a 002B     		cmp	r3, #0
 939 040c E3D0     		beq	.L86
 940              	.LVL92:
 941              	.L85:
 967:Generated_Source\PSoC6\pdl\middleware\ble/cy_ble_gap.h ****     {
 942              		.loc 2 967 0
 943 040e 9DF80D30 		ldrb	r3, [sp, #13]	@ zero_extendqisi2
 944 0412 FF2B     		cmp	r3, #255
 945 0414 05D1     		bne	.L87
 970:Generated_Source\PSoC6\pdl\middleware\ble/cy_ble_gap.h ****     }
 946              		.loc 2 970 0
 947 0416 04D1     		bne	.L87
 948 0418 40F2CA31 		movw	r1, #970
 949              	.LVL93:
 950 041c 7A48     		ldr	r0, .L105+8
 951 041e FFF7FEFF 		bl	Cy_SysLib_AssertFailed
 952              	.LVL94:
 953              	.L87:
 954              		.loc 2 973 0
 955 0422 BDF80C30 		ldrh	r3, [sp, #12]
 956 0426 ADF82430 		strh	r3, [sp, #36]	@ movhi
 957 042a ADF80C30 		strh	r3, [sp, #12]	@ movhi
 958              	.LBE101:
 959              	.LBE100:
 547:Generated_Source\PSoC6\pdl\middleware\ble/cy_ble_event_handler.c ****                         if( tconnHandle.attId != CY_BLE_INVALID_CONN_HANDLE_VALUE)   
 960              		.loc 1 547 0
 961 042e C3F30723 		ubfx	r3, r3, #8, #8
 962 0432 FF2B     		cmp	r3, #255
 963 0434 02D0     		beq	.L80
 548:Generated_Source\PSoC6\pdl\middleware\ble/cy_ble_event_handler.c ****                         {
 549:Generated_Source\PSoC6\pdl\middleware\ble/cy_ble_event_handler.c ****                             cy_ble_devConnRole[tconnHandle.attId] = tEvParam->role;
 964              		.loc 1 549 0
 965 0436 297E     		ldrb	r1, [r5, #24]	@ zero_extendqisi2
 966 0438 774A     		ldr	r2, .L105+24
 967 043a D154     		strb	r1, [r2, r3]
 968              	.L80:
 969              	.LBE99:
 550:Generated_Source\PSoC6\pdl\middleware\ble/cy_ble_event_handler.c ****                         }
 551:Generated_Source\PSoC6\pdl\middleware\ble/cy_ble_event_handler.c ****                     }
 552:Generated_Source\PSoC6\pdl\middleware\ble/cy_ble_event_handler.c ****                     #endif /*((CY_BLE_GAP_ROLE_PERIPHERAL || CY_BLE_GAP_ROLE_CENTRAL))*/
 553:Generated_Source\PSoC6\pdl\middleware\ble/cy_ble_event_handler.c ****                 }
 554:Generated_Source\PSoC6\pdl\middleware\ble/cy_ble_event_handler.c ****                 Cy_BLE_SetState(CY_BLE_STATE_ON);
 970              		.loc 1 554 0
 971 043c 0222     		movs	r2, #2
 972 043e 774B     		ldr	r3, .L105+28
 973 0440 1A70     		strb	r2, [r3]
 974              	.LBE96:
 555:Generated_Source\PSoC6\pdl\middleware\ble/cy_ble_event_handler.c ****             }
 556:Generated_Source\PSoC6\pdl\middleware\ble/cy_ble_event_handler.c ****             break;
 975              		.loc 1 556 0
 976 0442 CBE0     		b	.L34
 977              	.LVL95:
ARM GAS  C:\Users\hkmnt\AppData\Local\Temp\ccBdSSuH.s 			page 46


 978              	.L35:
 557:Generated_Source\PSoC6\pdl\middleware\ble/cy_ble_event_handler.c **** 
 558:Generated_Source\PSoC6\pdl\middleware\ble/cy_ble_event_handler.c ****         case CY_BLE_EVT_GAP_DEVICE_DISCONNECTED:
 559:Generated_Source\PSoC6\pdl\middleware\ble/cy_ble_event_handler.c ****             Cy_BLE_SetState(CY_BLE_STATE_ON);
 979              		.loc 1 559 0
 980 0444 0222     		movs	r2, #2
 981 0446 754B     		ldr	r3, .L105+28
 982 0448 1A70     		strb	r2, [r3]
 560:Generated_Source\PSoC6\pdl\middleware\ble/cy_ble_event_handler.c ****             break;
 983              		.loc 1 560 0
 984 044a C7E0     		b	.L34
 985              	.L48:
 561:Generated_Source\PSoC6\pdl\middleware\ble/cy_ble_event_handler.c ****         
 562:Generated_Source\PSoC6\pdl\middleware\ble/cy_ble_event_handler.c ****         #if (CY_BLE_GAP_ROLE_PERIPHERAL || CY_BLE_GAP_ROLE_BROADCASTER)
 563:Generated_Source\PSoC6\pdl\middleware\ble/cy_ble_event_handler.c ****         case CY_BLE_EVT_GAPP_ADVERTISEMENT_START_STOP:
 564:Generated_Source\PSoC6\pdl\middleware\ble/cy_ble_event_handler.c ****         #if (CY_BLE_GAP_ROLE_PERIPHERAL || CY_BLE_GAP_ROLE_CENTRAL)
 565:Generated_Source\PSoC6\pdl\middleware\ble/cy_ble_event_handler.c ****             (void)Cy_BLE_InvokeServiceEventHandler((uint32_t)event, (void*)evParam);
 986              		.loc 1 565 0
 987 044c FFF7FEFF 		bl	Cy_BLE_InvokeServiceEventHandler
 988              	.LVL96:
 566:Generated_Source\PSoC6\pdl\middleware\ble/cy_ble_event_handler.c ****         #endif /* (CY_BLE_GAP_ROLE_PERIPHERAL || CY_BLE_GAP_ROLE_CENTRAL) */
 567:Generated_Source\PSoC6\pdl\middleware\ble/cy_ble_event_handler.c **** 
 568:Generated_Source\PSoC6\pdl\middleware\ble/cy_ble_event_handler.c ****             if((cy_ble_eventHandlerFlag & CY_BLE_CALLBACK) != 0u)
 989              		.loc 1 568 0
 990 0450 734B     		ldr	r3, .L105+32
 991 0452 1B78     		ldrb	r3, [r3]	@ zero_extendqisi2
 992 0454 13F0010F 		tst	r3, #1
 993 0458 00F0C080 		beq	.L34
 994              	.LBB104:
 995              	.LBB105:
 745:Generated_Source\PSoC6\pdl\middleware\ble/cy_ble_gap.h **** }
 996              		.loc 2 745 0
 997 045c 6C4B     		ldr	r3, .L105+16
 998 045e 1B78     		ldrb	r3, [r3]	@ zero_extendqisi2
 999              	.LBE105:
 1000              	.LBE104:
 569:Generated_Source\PSoC6\pdl\middleware\ble/cy_ble_event_handler.c ****             {
 570:Generated_Source\PSoC6\pdl\middleware\ble/cy_ble_event_handler.c ****                 /* After Cy_BLE_GAPP_StartAdvertisement, the first event indicates that advertising
 571:Generated_Source\PSoC6\pdl\middleware\ble/cy_ble_event_handler.c ****                 if(Cy_BLE_GetAdvertisementState() == CY_BLE_ADV_STATE_ADV_INITIATED)
 1001              		.loc 1 571 0
 1002 0460 012B     		cmp	r3, #1
 1003 0462 03D1     		bne	.L89
 1004              	.LVL97:
 1005              	.LBB106:
 1006              	.LBB107:
 763:Generated_Source\PSoC6\pdl\middleware\ble/cy_ble_gap.h **** }
 1007              		.loc 2 763 0
 1008 0464 0222     		movs	r2, #2
 1009 0466 6A4B     		ldr	r3, .L105+16
 1010 0468 1A70     		strb	r2, [r3]
 1011 046a B7E0     		b	.L34
 1012              	.LVL98:
 1013              	.L89:
 1014              	.LBE107:
 1015              	.LBE106:
 572:Generated_Source\PSoC6\pdl\middleware\ble/cy_ble_event_handler.c ****                 {
 573:Generated_Source\PSoC6\pdl\middleware\ble/cy_ble_event_handler.c ****                     Cy_BLE_SetAdvertisementState(CY_BLE_ADV_STATE_ADVERTISING);
ARM GAS  C:\Users\hkmnt\AppData\Local\Temp\ccBdSSuH.s 			page 47


 574:Generated_Source\PSoC6\pdl\middleware\ble/cy_ble_event_handler.c ****                 }
 575:Generated_Source\PSoC6\pdl\middleware\ble/cy_ble_event_handler.c ****                 /* When the application initiated a stop advertisement */
 576:Generated_Source\PSoC6\pdl\middleware\ble/cy_ble_event_handler.c ****                 else if(Cy_BLE_GetAdvertisementState() == CY_BLE_ADV_STATE_STOP_INITIATED)
 1016              		.loc 1 576 0
 1017 046c 032B     		cmp	r3, #3
 1018 046e 03D1     		bne	.L90
 1019              	.LVL99:
 1020              	.LBB108:
 1021              	.LBB109:
 763:Generated_Source\PSoC6\pdl\middleware\ble/cy_ble_gap.h **** }
 1022              		.loc 2 763 0
 1023 0470 0022     		movs	r2, #0
 1024 0472 674B     		ldr	r3, .L105+16
 1025 0474 1A70     		strb	r2, [r3]
 1026 0476 B1E0     		b	.L34
 1027              	.LVL100:
 1028              	.L90:
 1029              	.LBE109:
 1030              	.LBE108:
 577:Generated_Source\PSoC6\pdl\middleware\ble/cy_ble_event_handler.c ****                 {
 578:Generated_Source\PSoC6\pdl\middleware\ble/cy_ble_event_handler.c ****                     Cy_BLE_SetAdvertisementState(CY_BLE_ADV_STATE_STOPPED);
 579:Generated_Source\PSoC6\pdl\middleware\ble/cy_ble_event_handler.c ****                 }
 580:Generated_Source\PSoC6\pdl\middleware\ble/cy_ble_event_handler.c ****                 else /* The following event indicates that advertising has been stopped */
 581:Generated_Source\PSoC6\pdl\middleware\ble/cy_ble_event_handler.c ****                 {
 582:Generated_Source\PSoC6\pdl\middleware\ble/cy_ble_event_handler.c ****                     if(Cy_BLE_GetAdvertisementState() == CY_BLE_ADV_STATE_ADVERTISING)
 1031              		.loc 1 582 0
 1032 0478 022B     		cmp	r3, #2
 1033 047a 40F0AF80 		bne	.L34
 1034              	.LVL101:
 1035              	.LBB110:
 1036              	.LBB111:
 763:Generated_Source\PSoC6\pdl\middleware\ble/cy_ble_gap.h **** }
 1037              		.loc 2 763 0
 1038 047e 0022     		movs	r2, #0
 1039 0480 634B     		ldr	r3, .L105+16
 1040 0482 1A70     		strb	r2, [r3]
 1041              	.LVL102:
 1042              	.LBE111:
 1043              	.LBE110:
 583:Generated_Source\PSoC6\pdl\middleware\ble/cy_ble_event_handler.c ****                     {
 584:Generated_Source\PSoC6\pdl\middleware\ble/cy_ble_event_handler.c ****                         Cy_BLE_SetAdvertisementState(CY_BLE_ADV_STATE_STOPPED);
 585:Generated_Source\PSoC6\pdl\middleware\ble/cy_ble_event_handler.c ****                         if((cy_ble_configPtr->gappAdvParams[cy_ble_advIndex].slowAdvEnable != 0u) &
 1044              		.loc 1 585 0
 1045 0484 674B     		ldr	r3, .L105+36
 1046 0486 1B68     		ldr	r3, [r3]
 1047 0488 5B68     		ldr	r3, [r3, #4]
 1048 048a 674A     		ldr	r2, .L105+40
 1049 048c 1178     		ldrb	r1, [r2]	@ zero_extendqisi2
 1050 048e C1EBC102 		rsb	r2, r1, r1, lsl #3
 1051 0492 03EB4203 		add	r3, r3, r2, lsl #1
 1052 0496 9A79     		ldrb	r2, [r3, #6]	@ zero_extendqisi2
 1053 0498 002A     		cmp	r2, #0
 1054 049a 00F09F80 		beq	.L34
 586:Generated_Source\PSoC6\pdl\middleware\ble/cy_ble_event_handler.c ****                            (cy_ble_configPtr->gappAdvParams[cy_ble_advIndex].fastAdvTimeOut != 0u))
 1055              		.loc 1 586 0 discriminator 1
 1056 049e 9B88     		ldrh	r3, [r3, #4]
 585:Generated_Source\PSoC6\pdl\middleware\ble/cy_ble_event_handler.c ****                            (cy_ble_configPtr->gappAdvParams[cy_ble_advIndex].fastAdvTimeOut != 0u))
ARM GAS  C:\Users\hkmnt\AppData\Local\Temp\ccBdSSuH.s 			page 48


 1057              		.loc 1 585 0 discriminator 1
 1058 04a0 002B     		cmp	r3, #0
 1059 04a2 00F09B80 		beq	.L34
 587:Generated_Source\PSoC6\pdl\middleware\ble/cy_ble_event_handler.c ****                         {
 588:Generated_Source\PSoC6\pdl\middleware\ble/cy_ble_event_handler.c ****                             if(cy_ble_advertisingIntervalType == CY_BLE_ADVERTISING_FAST)
 1060              		.loc 1 588 0
 1061 04a6 614B     		ldr	r3, .L105+44
 1062 04a8 1B78     		ldrb	r3, [r3]	@ zero_extendqisi2
 1063 04aa 002B     		cmp	r3, #0
 1064 04ac 40F09680 		bne	.L34
 589:Generated_Source\PSoC6\pdl\middleware\ble/cy_ble_event_handler.c ****                             {
 590:Generated_Source\PSoC6\pdl\middleware\ble/cy_ble_event_handler.c ****                                 /* When fast advertising time out occur: Start slow advertising */
 591:Generated_Source\PSoC6\pdl\middleware\ble/cy_ble_event_handler.c ****                                 if(Cy_BLE_GAPP_StartAdvertisement(CY_BLE_ADVERTISING_SLOW, cy_ble_a
 1065              		.loc 1 591 0
 1066 04b0 0120     		movs	r0, #1
 1067 04b2 FFF7FEFF 		bl	Cy_BLE_GAPP_StartAdvertisement
 1068              	.LVL103:
 1069 04b6 0028     		cmp	r0, #0
 1070 04b8 40F09080 		bne	.L34
 1071              	.LVL104:
 1072              	.LBB112:
 1073              	.LBB113:
 763:Generated_Source\PSoC6\pdl\middleware\ble/cy_ble_gap.h **** }
 1074              		.loc 2 763 0
 1075 04bc 0122     		movs	r2, #1
 1076 04be 544B     		ldr	r3, .L105+16
 1077 04c0 1A70     		strb	r2, [r3]
 1078 04c2 8BE0     		b	.L34
 1079              	.LVL105:
 1080              	.L62:
 1081              	.LBE113:
 1082              	.LBE112:
 592:Generated_Source\PSoC6\pdl\middleware\ble/cy_ble_event_handler.c ****                                    CY_BLE_SUCCESS)
 593:Generated_Source\PSoC6\pdl\middleware\ble/cy_ble_event_handler.c ****                                 {
 594:Generated_Source\PSoC6\pdl\middleware\ble/cy_ble_event_handler.c ****                                     Cy_BLE_SetAdvertisementState(CY_BLE_ADV_STATE_ADV_INITIATED);
 595:Generated_Source\PSoC6\pdl\middleware\ble/cy_ble_event_handler.c ****                                 }
 596:Generated_Source\PSoC6\pdl\middleware\ble/cy_ble_event_handler.c ****                             }
 597:Generated_Source\PSoC6\pdl\middleware\ble/cy_ble_event_handler.c ****                         }
 598:Generated_Source\PSoC6\pdl\middleware\ble/cy_ble_event_handler.c ****                     }
 599:Generated_Source\PSoC6\pdl\middleware\ble/cy_ble_event_handler.c ****                 }
 600:Generated_Source\PSoC6\pdl\middleware\ble/cy_ble_event_handler.c ****             }
 601:Generated_Source\PSoC6\pdl\middleware\ble/cy_ble_event_handler.c ****             break;
 602:Generated_Source\PSoC6\pdl\middleware\ble/cy_ble_event_handler.c ****         #endif /* CY_BLE_GAP_ROLE_PERIPHERAL || CY_BLE_GAP_ROLE_BROADCASTER */
 603:Generated_Source\PSoC6\pdl\middleware\ble/cy_ble_event_handler.c **** 
 604:Generated_Source\PSoC6\pdl\middleware\ble/cy_ble_event_handler.c ****         #if (CY_BLE_GAP_ROLE_CENTRAL || CY_BLE_GAP_ROLE_OBSERVER)
 605:Generated_Source\PSoC6\pdl\middleware\ble/cy_ble_event_handler.c ****         case CY_BLE_EVT_GAPC_SCAN_START_STOP:
 606:Generated_Source\PSoC6\pdl\middleware\ble/cy_ble_event_handler.c ****         #if (CY_BLE_GAP_ROLE_CENTRAL)
 607:Generated_Source\PSoC6\pdl\middleware\ble/cy_ble_event_handler.c ****             (void)Cy_BLE_InvokeServiceEventHandler((uint32_t)event, (void*)evParam);
 608:Generated_Source\PSoC6\pdl\middleware\ble/cy_ble_event_handler.c ****         #endif /* (CY_BLE_GAP_ROLE_CENTRAL) */
 609:Generated_Source\PSoC6\pdl\middleware\ble/cy_ble_event_handler.c **** 
 610:Generated_Source\PSoC6\pdl\middleware\ble/cy_ble_event_handler.c ****             if((cy_ble_eventHandlerFlag & CY_BLE_CALLBACK) != 0u)
 611:Generated_Source\PSoC6\pdl\middleware\ble/cy_ble_event_handler.c ****             {
 612:Generated_Source\PSoC6\pdl\middleware\ble/cy_ble_event_handler.c ****                 /* After Cy_BLE_GAPC_StartScan, the first event indicates that scanning has been st
 613:Generated_Source\PSoC6\pdl\middleware\ble/cy_ble_event_handler.c ****                 if(Cy_BLE_GetScanState() == CY_BLE_SCAN_STATE_SCAN_INITIATED)
 614:Generated_Source\PSoC6\pdl\middleware\ble/cy_ble_event_handler.c ****                 {
 615:Generated_Source\PSoC6\pdl\middleware\ble/cy_ble_event_handler.c ****                     Cy_BLE_SetScanState(CY_BLE_SCAN_STATE_SCANNING);
 616:Generated_Source\PSoC6\pdl\middleware\ble/cy_ble_event_handler.c ****                 }
ARM GAS  C:\Users\hkmnt\AppData\Local\Temp\ccBdSSuH.s 			page 49


 617:Generated_Source\PSoC6\pdl\middleware\ble/cy_ble_event_handler.c ****                 /* When the application initiated stop scanning */
 618:Generated_Source\PSoC6\pdl\middleware\ble/cy_ble_event_handler.c ****                 else if(Cy_BLE_GetScanState() == CY_BLE_SCAN_STATE_STOP_INITIATED)
 619:Generated_Source\PSoC6\pdl\middleware\ble/cy_ble_event_handler.c ****                 {
 620:Generated_Source\PSoC6\pdl\middleware\ble/cy_ble_event_handler.c ****                     Cy_BLE_SetScanState(CY_BLE_SCAN_STATE_STOPPED);
 621:Generated_Source\PSoC6\pdl\middleware\ble/cy_ble_event_handler.c ****                 }
 622:Generated_Source\PSoC6\pdl\middleware\ble/cy_ble_event_handler.c ****                 else /* The following event indicates that scanning has been stopped by BLE Stack *
 623:Generated_Source\PSoC6\pdl\middleware\ble/cy_ble_event_handler.c ****                 {
 624:Generated_Source\PSoC6\pdl\middleware\ble/cy_ble_event_handler.c ****                     if(Cy_BLE_GetScanState() == CY_BLE_SCAN_STATE_SCANNING)
 625:Generated_Source\PSoC6\pdl\middleware\ble/cy_ble_event_handler.c ****                     {
 626:Generated_Source\PSoC6\pdl\middleware\ble/cy_ble_event_handler.c ****                         Cy_BLE_SetScanState(CY_BLE_SCAN_STATE_STOPPED);
 627:Generated_Source\PSoC6\pdl\middleware\ble/cy_ble_event_handler.c ****                         if((cy_ble_configPtr->gapcScanParams[cy_ble_scanIndex].slowScanEnabled != 0
 628:Generated_Source\PSoC6\pdl\middleware\ble/cy_ble_event_handler.c ****                            (cy_ble_configPtr->gapcScanParams[cy_ble_scanIndex].fastScanTimeOut != 0
 629:Generated_Source\PSoC6\pdl\middleware\ble/cy_ble_event_handler.c ****                         {
 630:Generated_Source\PSoC6\pdl\middleware\ble/cy_ble_event_handler.c ****                             if(cy_ble_scanningIntervalType == CY_BLE_SCANNING_FAST)
 631:Generated_Source\PSoC6\pdl\middleware\ble/cy_ble_event_handler.c ****                             {
 632:Generated_Source\PSoC6\pdl\middleware\ble/cy_ble_event_handler.c ****                                 /* When a fast scanning timeout occurs: Start slow scanning */
 633:Generated_Source\PSoC6\pdl\middleware\ble/cy_ble_event_handler.c ****                                 if(Cy_BLE_GAPC_StartScan(CY_BLE_SCANNING_SLOW, cy_ble_scanIndex) ==
 634:Generated_Source\PSoC6\pdl\middleware\ble/cy_ble_event_handler.c ****                                 {
 635:Generated_Source\PSoC6\pdl\middleware\ble/cy_ble_event_handler.c ****                                     Cy_BLE_SetScanState(CY_BLE_SCAN_STATE_SCAN_INITIATED);
 636:Generated_Source\PSoC6\pdl\middleware\ble/cy_ble_event_handler.c ****                                 }
 637:Generated_Source\PSoC6\pdl\middleware\ble/cy_ble_event_handler.c ****                             }
 638:Generated_Source\PSoC6\pdl\middleware\ble/cy_ble_event_handler.c ****                         }
 639:Generated_Source\PSoC6\pdl\middleware\ble/cy_ble_event_handler.c ****                     }
 640:Generated_Source\PSoC6\pdl\middleware\ble/cy_ble_event_handler.c ****                 }
 641:Generated_Source\PSoC6\pdl\middleware\ble/cy_ble_event_handler.c ****             }
 642:Generated_Source\PSoC6\pdl\middleware\ble/cy_ble_event_handler.c ****             break;
 643:Generated_Source\PSoC6\pdl\middleware\ble/cy_ble_event_handler.c ****         #endif /* CY_BLE_GAP_ROLE_CENTRAL || CY_BLE_GAP_ROLE_OBSERVER */
 644:Generated_Source\PSoC6\pdl\middleware\ble/cy_ble_event_handler.c **** 
 645:Generated_Source\PSoC6\pdl\middleware\ble/cy_ble_event_handler.c ****         /**********************************************************
 646:Generated_Source\PSoC6\pdl\middleware\ble/cy_ble_event_handler.c ****          * L2AP events
 647:Generated_Source\PSoC6\pdl\middleware\ble/cy_ble_event_handler.c ****          ************************************************************/
 648:Generated_Source\PSoC6\pdl\middleware\ble/cy_ble_event_handler.c ****         case CY_BLE_EVT_L2CAP_CONN_PARAM_UPDATE_RSP:
 649:Generated_Source\PSoC6\pdl\middleware\ble/cy_ble_event_handler.c ****         #if (CY_BLE_GAP_ROLE_PERIPHERAL || CY_BLE_GAP_ROLE_CENTRAL)
 650:Generated_Source\PSoC6\pdl\middleware\ble/cy_ble_event_handler.c ****             (void)Cy_BLE_InvokeServiceEventHandler((uint32_t)event, (void*)evParam);
 1083              		.loc 1 650 0
 1084 04c4 FFF7FEFF 		bl	Cy_BLE_InvokeServiceEventHandler
 1085              	.LVL106:
 651:Generated_Source\PSoC6\pdl\middleware\ble/cy_ble_event_handler.c ****         #endif /* (CY_BLE_GAP_ROLE_PERIPHERAL || CY_BLE_GAP_ROLE_CENTRAL) */
 652:Generated_Source\PSoC6\pdl\middleware\ble/cy_ble_event_handler.c ****             break;
 1086              		.loc 1 652 0
 1087 04c8 88E0     		b	.L34
 1088              	.LVL107:
 1089              	.L52:
 1090 04ca 0B88     		ldrh	r3, [r1]	@ unaligned
 1091 04cc ADF80030 		strh	r3, [sp]	@ unaligned
 1092              	.LVL108:
 1093              	.LBB114:
 1094              	.LBB115:
 895:Generated_Source\PSoC6\pdl\middleware\ble/cy_ble_gap.h ****     {
 1095              		.loc 2 895 0
 1096 04d0 9DF80130 		ldrb	r3, [sp, #1]	@ zero_extendqisi2
 1097 04d4 1BB9     		cbnz	r3, .L91
 897:Generated_Source\PSoC6\pdl\middleware\ble/cy_ble_gap.h ****     }
 1098              		.loc 2 897 0
 1099 04d6 0221     		movs	r1, #2
 1100              	.LVL109:
 1101 04d8 4A4A     		ldr	r2, .L105+4
ARM GAS  C:\Users\hkmnt\AppData\Local\Temp\ccBdSSuH.s 			page 50


 1102 04da D154     		strb	r1, [r2, r3]
 1103 04dc 05E0     		b	.L92
 1104              	.LVL110:
 1105              	.L91:
 902:Generated_Source\PSoC6\pdl\middleware\ble/cy_ble_gap.h ****     }
 1106              		.loc 2 902 0
 1107 04de 23B9     		cbnz	r3, .L92
 1108 04e0 40F28631 		movw	r1, #902
 1109              	.LVL111:
 1110 04e4 4848     		ldr	r0, .L105+8
 1111              	.LVL112:
 1112 04e6 FFF7FEFF 		bl	Cy_SysLib_AssertFailed
 1113              	.LVL113:
 1114              	.L92:
 1115              	.LBE115:
 1116              	.LBE114:
 653:Generated_Source\PSoC6\pdl\middleware\ble/cy_ble_event_handler.c **** 
 654:Generated_Source\PSoC6\pdl\middleware\ble/cy_ble_event_handler.c ****             /**********************************************************
 655:Generated_Source\PSoC6\pdl\middleware\ble/cy_ble_event_handler.c ****              * GATT events
 656:Generated_Source\PSoC6\pdl\middleware\ble/cy_ble_event_handler.c ****              ************************************************************/
 657:Generated_Source\PSoC6\pdl\middleware\ble/cy_ble_event_handler.c ****         #if ((CY_BLE_GATT_ROLE_SERVER) || (CY_BLE_GATT_ROLE_CLIENT))
 658:Generated_Source\PSoC6\pdl\middleware\ble/cy_ble_event_handler.c ****         case CY_BLE_EVT_GATT_CONNECT_IND:
 659:Generated_Source\PSoC6\pdl\middleware\ble/cy_ble_event_handler.c ****         #if (CY_BLE_GATT_ROLE_CLIENT)
 660:Generated_Source\PSoC6\pdl\middleware\ble/cy_ble_event_handler.c ****             /* If connected to the same device which is already discovered */
 661:Generated_Source\PSoC6\pdl\middleware\ble/cy_ble_event_handler.c ****             if((Cy_BLE_GetConnectionState(*(cy_stc_ble_conn_handle_t*)evParam) ==
 662:Generated_Source\PSoC6\pdl\middleware\ble/cy_ble_event_handler.c ****                 CY_BLE_CONN_STATE_CLIENT_DISCONNECTED_DISCOVERED) &&
 663:Generated_Source\PSoC6\pdl\middleware\ble/cy_ble_event_handler.c ****                (((cy_stc_ble_conn_handle_t*)evParam)->bdHandle ==
 664:Generated_Source\PSoC6\pdl\middleware\ble/cy_ble_event_handler.c ****                 cy_ble_connHandle[((cy_stc_ble_conn_handle_t*)evParam)->attId].bdHandle))
 665:Generated_Source\PSoC6\pdl\middleware\ble/cy_ble_event_handler.c ****             {   /* Set a discovered state */
 666:Generated_Source\PSoC6\pdl\middleware\ble/cy_ble_event_handler.c ****                 Cy_BLE_SetConnectionState(*(cy_stc_ble_conn_handle_t*)evParam, CY_BLE_CONN_STATE_CL
 667:Generated_Source\PSoC6\pdl\middleware\ble/cy_ble_event_handler.c ****             }
 668:Generated_Source\PSoC6\pdl\middleware\ble/cy_ble_event_handler.c ****             else    /* Connected to a new device */
 669:Generated_Source\PSoC6\pdl\middleware\ble/cy_ble_event_handler.c ****         #endif /* CY_BLE_GATT_ROLE_CLIENT */
 670:Generated_Source\PSoC6\pdl\middleware\ble/cy_ble_event_handler.c ****             {
 671:Generated_Source\PSoC6\pdl\middleware\ble/cy_ble_event_handler.c ****                 /* Clear the discovery index for the Client role */
 672:Generated_Source\PSoC6\pdl\middleware\ble/cy_ble_event_handler.c ****             #if (CY_BLE_GATT_ROLE_CLIENT)
 673:Generated_Source\PSoC6\pdl\middleware\ble/cy_ble_event_handler.c ****                 (void)Cy_BLE_GATTC_RemoveConnHandle(*(cy_stc_ble_conn_handle_t*)evParam);
 674:Generated_Source\PSoC6\pdl\middleware\ble/cy_ble_event_handler.c ****             #endif /* CY_BLE_GATT_ROLE_CLIENT */
 675:Generated_Source\PSoC6\pdl\middleware\ble/cy_ble_event_handler.c ****                 Cy_BLE_SetConnectionState(*(cy_stc_ble_conn_handle_t*)evParam, CY_BLE_CONN_STATE_CO
 676:Generated_Source\PSoC6\pdl\middleware\ble/cy_ble_event_handler.c ****                 cy_ble_connHandle[((cy_stc_ble_conn_handle_t*)evParam)->attId] = *(cy_stc_ble_conn_
 1117              		.loc 1 676 0
 1118 04ea 6A78     		ldrb	r2, [r5, #1]	@ zero_extendqisi2
 1119 04ec 2988     		ldrh	r1, [r5]	@ unaligned
 1120 04ee 444B     		ldr	r3, .L105
 1121 04f0 23F81210 		strh	r1, [r3, r2, lsl #1]	@ unaligned
 677:Generated_Source\PSoC6\pdl\middleware\ble/cy_ble_event_handler.c ****             }
 678:Generated_Source\PSoC6\pdl\middleware\ble/cy_ble_event_handler.c **** 
 679:Generated_Source\PSoC6\pdl\middleware\ble/cy_ble_event_handler.c ****             cy_ble_busyStatus[((cy_stc_ble_conn_handle_t*)evParam)->attId] = CY_BLE_STACK_STATE_FRE
 1122              		.loc 1 679 0
 1123 04f4 6B78     		ldrb	r3, [r5, #1]	@ zero_extendqisi2
 1124 04f6 0021     		movs	r1, #0
 1125 04f8 4D4A     		ldr	r2, .L105+48
 1126 04fa D154     		strb	r1, [r2, r3]
 680:Generated_Source\PSoC6\pdl\middleware\ble/cy_ble_event_handler.c **** 
 681:Generated_Source\PSoC6\pdl\middleware\ble/cy_ble_event_handler.c ****         #if ((CY_BLE_GATT_ROLE_SERVER) && (CY_BLE_GATT_DB_CCCD_COUNT != 0u) && \
 682:Generated_Source\PSoC6\pdl\middleware\ble/cy_ble_event_handler.c ****             (CY_BLE_BONDING_REQUIREMENT == CY_BLE_BONDING_YES))
 683:Generated_Source\PSoC6\pdl\middleware\ble/cy_ble_event_handler.c ****             
ARM GAS  C:\Users\hkmnt\AppData\Local\Temp\ccBdSSuH.s 			page 51


 684:Generated_Source\PSoC6\pdl\middleware\ble/cy_ble_event_handler.c ****             /* Initialize the CCCD values in the RAM when bonding is enabled */
 685:Generated_Source\PSoC6\pdl\middleware\ble/cy_ble_event_handler.c ****             (void)memcpy((uint8_t*)cy_ble_attValuesCccdMultiple[((cy_stc_ble_conn_handle_t*)evParam
 686:Generated_Source\PSoC6\pdl\middleware\ble/cy_ble_event_handler.c ****                          cy_ble_configPtr->flashStorage->attValuesCCCDFlashMemory[((cy_stc_ble_conn
 687:Generated_Source\PSoC6\pdl\middleware\ble/cy_ble_event_handler.c ****                                                                                    bdHandle],
 688:Generated_Source\PSoC6\pdl\middleware\ble/cy_ble_event_handler.c ****                          CY_BLE_GATT_DB_CCCD_COUNT + CY_BLE_CCCD_CRC_BYTE);
 689:Generated_Source\PSoC6\pdl\middleware\ble/cy_ble_event_handler.c **** 
 690:Generated_Source\PSoC6\pdl\middleware\ble/cy_ble_event_handler.c ****             /* Check CRC for CCCD data */
 691:Generated_Source\PSoC6\pdl\middleware\ble/cy_ble_event_handler.c ****             {
 692:Generated_Source\PSoC6\pdl\middleware\ble/cy_ble_event_handler.c ****                 uint8_t cccdCrc = Cy_BLE_HAL_CalcCRC8(cy_ble_attValuesCccdMultiple[((cy_stc_ble_con
 693:Generated_Source\PSoC6\pdl\middleware\ble/cy_ble_event_handler.c ****                                                       CY_BLE_GATT_DB_CCCD_COUNT);
 694:Generated_Source\PSoC6\pdl\middleware\ble/cy_ble_event_handler.c **** 
 695:Generated_Source\PSoC6\pdl\middleware\ble/cy_ble_event_handler.c ****                 if(cy_ble_attValuesCccdMultiple[((cy_stc_ble_conn_handle_t*)evParam)->attId][CY_BLE
 696:Generated_Source\PSoC6\pdl\middleware\ble/cy_ble_event_handler.c ****                 {
 697:Generated_Source\PSoC6\pdl\middleware\ble/cy_ble_event_handler.c ****                     /* Inform that the CRC for CCCD is wrong */
 698:Generated_Source\PSoC6\pdl\middleware\ble/cy_ble_event_handler.c ****                     Cy_BLE_ApplCallback((uint32_t)CY_BLE_EVT_GATTS_EVT_CCCD_CORRUPT, NULL);
 699:Generated_Source\PSoC6\pdl\middleware\ble/cy_ble_event_handler.c ****                     
 700:Generated_Source\PSoC6\pdl\middleware\ble/cy_ble_event_handler.c ****                     /* Clean the CCCD buffer in the RAM */
 701:Generated_Source\PSoC6\pdl\middleware\ble/cy_ble_event_handler.c ****                     (void)memset((uint8_t*)cy_ble_attValuesCccdMultiple[((cy_stc_ble_conn_handle_t*
 702:Generated_Source\PSoC6\pdl\middleware\ble/cy_ble_event_handler.c ****                                   0, CY_BLE_GATT_DB_CCCD_COUNT + CY_BLE_CCCD_CRC_BYTE);
 703:Generated_Source\PSoC6\pdl\middleware\ble/cy_ble_event_handler.c ****                 }            
 704:Generated_Source\PSoC6\pdl\middleware\ble/cy_ble_event_handler.c ****             }        
 705:Generated_Source\PSoC6\pdl\middleware\ble/cy_ble_event_handler.c ****         #endif /* CY_BLE_GATT_ROLE_SERVER && (CY_BLE_BONDING_REQUIREMENT == CY_BLE_BONDING_YES) */
 706:Generated_Source\PSoC6\pdl\middleware\ble/cy_ble_event_handler.c **** 
 707:Generated_Source\PSoC6\pdl\middleware\ble/cy_ble_event_handler.c ****             (void)Cy_BLE_InvokeServiceEventHandler((uint32_t)event, (void*)evParam);
 1127              		.loc 1 707 0
 1128 04fc 2946     		mov	r1, r5
 1129 04fe 2046     		mov	r0, r4
 1130 0500 FFF7FEFF 		bl	Cy_BLE_InvokeServiceEventHandler
 1131              	.LVL114:
 708:Generated_Source\PSoC6\pdl\middleware\ble/cy_ble_event_handler.c ****             break;
 1132              		.loc 1 708 0
 1133 0504 6AE0     		b	.L34
 1134              	.LVL115:
 1135              	.L55:
 1136 0506 0B88     		ldrh	r3, [r1]	@ unaligned
 1137 0508 ADF80430 		strh	r3, [sp, #4]	@ unaligned
 1138              	.LVL116:
 1139              	.LBB116:
 1140              	.LBB117:
 895:Generated_Source\PSoC6\pdl\middleware\ble/cy_ble_gap.h ****     {
 1141              		.loc 2 895 0
 1142 050c 9DF80530 		ldrb	r3, [sp, #5]	@ zero_extendqisi2
 1143 0510 1BB9     		cbnz	r3, .L93
 897:Generated_Source\PSoC6\pdl\middleware\ble/cy_ble_gap.h ****     }
 1144              		.loc 2 897 0
 1145 0512 0021     		movs	r1, #0
 1146              	.LVL117:
 1147 0514 3B4A     		ldr	r2, .L105+4
 1148 0516 D154     		strb	r1, [r2, r3]
 1149 0518 05E0     		b	.L94
 1150              	.LVL118:
 1151              	.L93:
 902:Generated_Source\PSoC6\pdl\middleware\ble/cy_ble_gap.h ****     }
 1152              		.loc 2 902 0
 1153 051a 23B9     		cbnz	r3, .L94
 1154 051c 40F28631 		movw	r1, #902
 1155              	.LVL119:
ARM GAS  C:\Users\hkmnt\AppData\Local\Temp\ccBdSSuH.s 			page 52


 1156 0520 3948     		ldr	r0, .L105+8
 1157              	.LVL120:
 1158 0522 FFF7FEFF 		bl	Cy_SysLib_AssertFailed
 1159              	.LVL121:
 1160              	.L94:
 1161              	.LBE117:
 1162              	.LBE116:
 709:Generated_Source\PSoC6\pdl\middleware\ble/cy_ble_event_handler.c **** 
 710:Generated_Source\PSoC6\pdl\middleware\ble/cy_ble_event_handler.c ****         case CY_BLE_EVT_GATT_DISCONNECT_IND:
 711:Generated_Source\PSoC6\pdl\middleware\ble/cy_ble_event_handler.c ****         #if (CY_BLE_GATT_ROLE_CLIENT)
 712:Generated_Source\PSoC6\pdl\middleware\ble/cy_ble_event_handler.c ****             if((Cy_BLE_GetConnectionState(*(cy_stc_ble_conn_handle_t*)evParam) == CY_BLE_CONN_STATE
 713:Generated_Source\PSoC6\pdl\middleware\ble/cy_ble_event_handler.c ****                (CY_BLE_BONDING_REQUIREMENT == CY_BLE_BONDING_YES))
 714:Generated_Source\PSoC6\pdl\middleware\ble/cy_ble_event_handler.c ****             {
 715:Generated_Source\PSoC6\pdl\middleware\ble/cy_ble_event_handler.c ****                 Cy_BLE_SetConnectionState(*(cy_stc_ble_conn_handle_t*)evParam,
 716:Generated_Source\PSoC6\pdl\middleware\ble/cy_ble_event_handler.c ****                                           CY_BLE_CONN_STATE_CLIENT_DISCONNECTED_DISCOVERED);
 717:Generated_Source\PSoC6\pdl\middleware\ble/cy_ble_event_handler.c ****             }
 718:Generated_Source\PSoC6\pdl\middleware\ble/cy_ble_event_handler.c ****             else
 719:Generated_Source\PSoC6\pdl\middleware\ble/cy_ble_event_handler.c ****         #endif /* CY_BLE_GATT_ROLE_CLIENT */
 720:Generated_Source\PSoC6\pdl\middleware\ble/cy_ble_event_handler.c ****             {
 721:Generated_Source\PSoC6\pdl\middleware\ble/cy_ble_event_handler.c ****                 Cy_BLE_SetConnectionState(*(cy_stc_ble_conn_handle_t*)evParam, CY_BLE_CONN_STATE_DI
 722:Generated_Source\PSoC6\pdl\middleware\ble/cy_ble_event_handler.c ****             #if (CY_BLE_GATT_ROLE_CLIENT)
 723:Generated_Source\PSoC6\pdl\middleware\ble/cy_ble_event_handler.c ****                 (void)Cy_BLE_GATTC_RemoveConnHandle(*(cy_stc_ble_conn_handle_t*)evParam);
 724:Generated_Source\PSoC6\pdl\middleware\ble/cy_ble_event_handler.c ****             #endif /* CY_BLE_GATT_ROLE_CLIENT */
 725:Generated_Source\PSoC6\pdl\middleware\ble/cy_ble_event_handler.c ****             }
 726:Generated_Source\PSoC6\pdl\middleware\ble/cy_ble_event_handler.c **** 
 727:Generated_Source\PSoC6\pdl\middleware\ble/cy_ble_event_handler.c ****             #if ((CY_BLE_GAP_ROLE_PERIPHERAL || CY_BLE_GAP_ROLE_CENTRAL))
 728:Generated_Source\PSoC6\pdl\middleware\ble/cy_ble_event_handler.c ****                 cy_ble_pairStatus[(*(cy_stc_ble_conn_handle_t *)evParam).attId] = false;
 1163              		.loc 1 728 0
 1164 0526 6B78     		ldrb	r3, [r5, #1]	@ zero_extendqisi2
 1165 0528 0021     		movs	r1, #0
 1166 052a 384A     		ldr	r2, .L105+12
 1167 052c D154     		strb	r1, [r2, r3]
 729:Generated_Source\PSoC6\pdl\middleware\ble/cy_ble_event_handler.c ****             #endif /*((CY_BLE_GAP_ROLE_PERIPHERAL || CY_BLE_GAP_ROLE_CENTRAL))*/
 730:Generated_Source\PSoC6\pdl\middleware\ble/cy_ble_event_handler.c ****         
 731:Generated_Source\PSoC6\pdl\middleware\ble/cy_ble_event_handler.c ****             (void)Cy_BLE_InvokeServiceEventHandler((uint32_t)event, (void*)evParam);
 1168              		.loc 1 731 0
 1169 052e 2946     		mov	r1, r5
 1170 0530 2046     		mov	r0, r4
 1171 0532 FFF7FEFF 		bl	Cy_BLE_InvokeServiceEventHandler
 1172              	.LVL122:
 732:Generated_Source\PSoC6\pdl\middleware\ble/cy_ble_event_handler.c ****             break;
 1173              		.loc 1 732 0
 1174 0536 51E0     		b	.L34
 1175              	.LVL123:
 1176              	.L56:
 1177              	.LBB118:
 733:Generated_Source\PSoC6\pdl\middleware\ble/cy_ble_event_handler.c **** 
 734:Generated_Source\PSoC6\pdl\middleware\ble/cy_ble_event_handler.c ****         case CY_BLE_EVT_GATTS_XCNHG_MTU_REQ:
 735:Generated_Source\PSoC6\pdl\middleware\ble/cy_ble_event_handler.c ****         {
 736:Generated_Source\PSoC6\pdl\middleware\ble/cy_ble_event_handler.c ****             cy_stc_ble_gatt_xchg_mtu_param_t mtuParam;
 737:Generated_Source\PSoC6\pdl\middleware\ble/cy_ble_event_handler.c ****             mtuParam.connHandle = ((cy_stc_ble_gatt_xchg_mtu_param_t*)evParam)->connHandle;
 1178              		.loc 1 737 0
 1179 0538 0B88     		ldrh	r3, [r1]
 1180 053a ADF81030 		strh	r3, [sp, #16]	@ movhi
 738:Generated_Source\PSoC6\pdl\middleware\ble/cy_ble_event_handler.c ****             mtuParam.mtu = CY_BLE_GATT_MTU;
 1181              		.loc 1 738 0
 1182 053e 1723     		movs	r3, #23
ARM GAS  C:\Users\hkmnt\AppData\Local\Temp\ccBdSSuH.s 			page 53


 1183 0540 ADF81230 		strh	r3, [sp, #18]	@ movhi
 739:Generated_Source\PSoC6\pdl\middleware\ble/cy_ble_event_handler.c ****             
 740:Generated_Source\PSoC6\pdl\middleware\ble/cy_ble_event_handler.c ****             (void)Cy_BLE_GATTS_ExchangeMtuRsp(&mtuParam);
 1184              		.loc 1 740 0
 1185 0544 04A8     		add	r0, sp, #16
 1186              	.LVL124:
 1187 0546 FFF7FEFF 		bl	Cy_BLE_GATTS_ExchangeMtuRsp
 1188              	.LVL125:
 1189              	.LBE118:
 741:Generated_Source\PSoC6\pdl\middleware\ble/cy_ble_event_handler.c ****         }
 742:Generated_Source\PSoC6\pdl\middleware\ble/cy_ble_event_handler.c ****         break;
 1190              		.loc 1 742 0
 1191 054a 47E0     		b	.L34
 1192              	.LVL126:
 1193              	.L50:
 1194              	.LBB119:
 743:Generated_Source\PSoC6\pdl\middleware\ble/cy_ble_event_handler.c ****     #endif /* CY_BLE_GATT_ROLE_SERVER || CY_BLE_GATT_ROLE_CLIENT */
 744:Generated_Source\PSoC6\pdl\middleware\ble/cy_ble_event_handler.c **** 
 745:Generated_Source\PSoC6\pdl\middleware\ble/cy_ble_event_handler.c ****     #if (CY_BLE_GATT_ROLE_CLIENT)
 746:Generated_Source\PSoC6\pdl\middleware\ble/cy_ble_event_handler.c ****         case CY_BLE_EVT_GAPC_SCAN_PROGRESS_RESULT:
 747:Generated_Source\PSoC6\pdl\middleware\ble/cy_ble_event_handler.c ****             (void)Cy_BLE_InvokeServiceEventHandler((uint32_t)event, (void*)evParam);
 748:Generated_Source\PSoC6\pdl\middleware\ble/cy_ble_event_handler.c ****             break;
 749:Generated_Source\PSoC6\pdl\middleware\ble/cy_ble_event_handler.c ****     #endif /* CY_BLE_GATT_ROLE_CLIENT */
 750:Generated_Source\PSoC6\pdl\middleware\ble/cy_ble_event_handler.c **** 
 751:Generated_Source\PSoC6\pdl\middleware\ble/cy_ble_event_handler.c ****     #if (CY_BLE_GATT_ROLE_SERVER)
 752:Generated_Source\PSoC6\pdl\middleware\ble/cy_ble_event_handler.c ****         case CY_BLE_EVT_GATTS_WRITE_REQ:
 753:Generated_Source\PSoC6\pdl\middleware\ble/cy_ble_event_handler.c ****         {
 754:Generated_Source\PSoC6\pdl\middleware\ble/cy_ble_event_handler.c ****             cy_en_ble_gatt_err_code_t gattErr;
 755:Generated_Source\PSoC6\pdl\middleware\ble/cy_ble_event_handler.c ****             cy_ble_gatt_db_attr_handle_t attrHandle;
 756:Generated_Source\PSoC6\pdl\middleware\ble/cy_ble_event_handler.c **** 
 757:Generated_Source\PSoC6\pdl\middleware\ble/cy_ble_event_handler.c ****             /* Process GATT service */
 758:Generated_Source\PSoC6\pdl\middleware\ble/cy_ble_event_handler.c ****             gattErr = Cy_BLE_GATTS_WriteEventHandler((cy_stc_ble_gatts_write_cmd_req_param_t*)evPar
 1195              		.loc 1 758 0
 1196 054c 0846     		mov	r0, r1
 1197              	.LVL127:
 1198 054e FFF7FEFF 		bl	Cy_BLE_GATTS_WriteEventHandler
 1199              	.LVL128:
 759:Generated_Source\PSoC6\pdl\middleware\ble/cy_ble_event_handler.c ****             
 760:Generated_Source\PSoC6\pdl\middleware\ble/cy_ble_event_handler.c ****             /* Process all registered service */
 761:Generated_Source\PSoC6\pdl\middleware\ble/cy_ble_event_handler.c ****             if(gattErr == CY_BLE_GATT_ERR_NONE)
 1200              		.loc 1 761 0
 1201 0552 0146     		mov	r1, r0
 1202 0554 20B9     		cbnz	r0, .L95
 762:Generated_Source\PSoC6\pdl\middleware\ble/cy_ble_event_handler.c ****             {
 763:Generated_Source\PSoC6\pdl\middleware\ble/cy_ble_event_handler.c ****                 gattErr = Cy_BLE_InvokeServiceEventHandler((uint32_t)event, (void*)evParam);
 1203              		.loc 1 763 0
 1204 0556 2946     		mov	r1, r5
 1205 0558 2046     		mov	r0, r4
 1206              	.LVL129:
 1207 055a FFF7FEFF 		bl	Cy_BLE_InvokeServiceEventHandler
 1208              	.LVL130:
 1209 055e 0146     		mov	r1, r0
 1210              	.LVL131:
 1211              	.L95:
 764:Generated_Source\PSoC6\pdl\middleware\ble/cy_ble_event_handler.c ****             }
 765:Generated_Source\PSoC6\pdl\middleware\ble/cy_ble_event_handler.c ****             /* Send response if event was handled by the service */
 766:Generated_Source\PSoC6\pdl\middleware\ble/cy_ble_event_handler.c ****             Cy_BLE_SendWriteResponse((cy_stc_ble_gatts_write_cmd_req_param_t*)evParam, gattErr);
ARM GAS  C:\Users\hkmnt\AppData\Local\Temp\ccBdSSuH.s 			page 54


 1212              		.loc 1 766 0
 1213 0560 2846     		mov	r0, r5
 1214 0562 FFF7FEFF 		bl	Cy_BLE_SendWriteResponse
 1215              	.LVL132:
 767:Generated_Source\PSoC6\pdl\middleware\ble/cy_ble_event_handler.c **** 
 768:Generated_Source\PSoC6\pdl\middleware\ble/cy_ble_event_handler.c ****             /* Call Cy_BLE_ApplCallback if event was not processed */
 769:Generated_Source\PSoC6\pdl\middleware\ble/cy_ble_event_handler.c ****             if((cy_ble_eventHandlerFlag & (CY_BLE_CALLBACK | CY_BLE_ENABLE_ALL_EVENTS)) != 0u)
 1216              		.loc 1 769 0
 1217 0566 2E4B     		ldr	r3, .L105+32
 1218 0568 1B78     		ldrb	r3, [r3]	@ zero_extendqisi2
 1219 056a 13F0110F 		tst	r3, #17
 1220 056e 04D0     		beq	.L96
 770:Generated_Source\PSoC6\pdl\middleware\ble/cy_ble_event_handler.c ****             {
 771:Generated_Source\PSoC6\pdl\middleware\ble/cy_ble_event_handler.c ****                 Cy_BLE_ApplCallback((uint32_t)event, evParam);
 1221              		.loc 1 771 0
 1222 0570 304B     		ldr	r3, .L105+52
 1223 0572 1B68     		ldr	r3, [r3]
 1224 0574 2946     		mov	r1, r5
 1225 0576 2046     		mov	r0, r4
 1226 0578 9847     		blx	r3
 1227              	.LVL133:
 1228              	.L96:
 772:Generated_Source\PSoC6\pdl\middleware\ble/cy_ble_event_handler.c ****             }
 773:Generated_Source\PSoC6\pdl\middleware\ble/cy_ble_event_handler.c **** 
 774:Generated_Source\PSoC6\pdl\middleware\ble/cy_ble_event_handler.c ****             /* Send Error response if unknown attr handle */
 775:Generated_Source\PSoC6\pdl\middleware\ble/cy_ble_event_handler.c ****             attrHandle = ((cy_stc_ble_gatts_write_cmd_req_param_t*)evParam)->handleValPair.attrHand
 1229              		.loc 1 775 0
 1230 057a 2A89     		ldrh	r2, [r5, #8]
 1231              	.LVL134:
 776:Generated_Source\PSoC6\pdl\middleware\ble/cy_ble_event_handler.c ****             if( ((cy_ble_eventHandlerFlag & CY_BLE_CALLBACK) != 0u) && 
 1232              		.loc 1 776 0
 1233 057c 284B     		ldr	r3, .L105+32
 1234 057e 1B78     		ldrb	r3, [r3]	@ zero_extendqisi2
 1235 0580 13F0010F 		tst	r3, #1
 1236 0584 11D0     		beq	.L97
 777:Generated_Source\PSoC6\pdl\middleware\ble/cy_ble_event_handler.c ****                 ((attrHandle > CY_BLE_GATT_DB_INDEX_COUNT) || (attrHandle == 0u)))
 1237              		.loc 1 777 0 discriminator 1
 1238 0586 531E     		subs	r3, r2, #1
 1239 0588 9BB2     		uxth	r3, r3
 776:Generated_Source\PSoC6\pdl\middleware\ble/cy_ble_event_handler.c ****             if( ((cy_ble_eventHandlerFlag & CY_BLE_CALLBACK) != 0u) && 
 1240              		.loc 1 776 0 discriminator 1
 1241 058a 182B     		cmp	r3, #24
 1242 058c 0DD9     		bls	.L97
 1243              	.LBB120:
 778:Generated_Source\PSoC6\pdl\middleware\ble/cy_ble_event_handler.c ****             {
 779:Generated_Source\PSoC6\pdl\middleware\ble/cy_ble_event_handler.c ****                 /* Processing unknown attr handle (send an Error Response) */
 780:Generated_Source\PSoC6\pdl\middleware\ble/cy_ble_event_handler.c ****                 cy_stc_ble_gatt_err_param_t err_param;
 781:Generated_Source\PSoC6\pdl\middleware\ble/cy_ble_event_handler.c ****                 err_param.errInfo.opCode     = CY_BLE_GATT_WRITE_REQ;
 1244              		.loc 1 781 0
 1245 058e 1223     		movs	r3, #18
 1246 0590 8DF81430 		strb	r3, [sp, #20]
 782:Generated_Source\PSoC6\pdl\middleware\ble/cy_ble_event_handler.c ****                 err_param.errInfo.attrHandle = ((cy_stc_ble_gatts_write_cmd_req_param_t*)evParam)->
 1247              		.loc 1 782 0
 1248 0594 ADF81220 		strh	r2, [sp, #18]	@ movhi
 783:Generated_Source\PSoC6\pdl\middleware\ble/cy_ble_event_handler.c ****                 err_param.connHandle         = ((cy_stc_ble_gatts_write_cmd_req_param_t*)evParam)->
 1249              		.loc 1 783 0
 1250 0598 AB89     		ldrh	r3, [r5, #12]
ARM GAS  C:\Users\hkmnt\AppData\Local\Temp\ccBdSSuH.s 			page 55


