ARM GAS  C:\Users\hkmnt\AppData\Local\Temp\ccBdSSuH.s 			page 1


   1              		.syntax unified
   2              		.cpu cortex-m4
   3              		.eabi_attribute 27, 1
   4              		.fpu fpv4-sp-d16
   5              		.eabi_attribute 20, 1
   6              		.eabi_attribute 21, 1
   7              		.eabi_attribute 23, 3
   8              		.eabi_attribute 24, 1
   9              		.eabi_attribute 25, 1
  10              		.eabi_attribute 26, 1
  11              		.eabi_attribute 30, 1
  12              		.eabi_attribute 34, 1
  13              		.eabi_attribute 18, 4
  14              		.thumb
  15              		.syntax unified
  16              		.file	"cy_ble_event_handler.c"
  17              		.text
  18              	.Ltext0:
  19              		.cfi_sections	.debug_frame
  20              		.section	.text.Cy_BLE_SendWriteResponse,"ax",%progbits
  21              		.align	2
  22              		.thumb
  23              		.thumb_func
  24              		.type	Cy_BLE_SendWriteResponse, %function
  25              	Cy_BLE_SendWriteResponse:
  26              	.LFB257:
  27              		.file 1 "Generated_Source\\PSoC6\\pdl\\middleware\\ble\\cy_ble_event_handler.c"
   1:Generated_Source\PSoC6\pdl\middleware\ble/cy_ble_event_handler.c **** /***************************************************************************//**
   2:Generated_Source\PSoC6\pdl\middleware\ble/cy_ble_event_handler.c **** * \file cy_ble_event_handler.c
   3:Generated_Source\PSoC6\pdl\middleware\ble/cy_ble_event_handler.c **** * \version 2.60
   4:Generated_Source\PSoC6\pdl\middleware\ble/cy_ble_event_handler.c **** *
   5:Generated_Source\PSoC6\pdl\middleware\ble/cy_ble_event_handler.c **** * \brief
   6:Generated_Source\PSoC6\pdl\middleware\ble/cy_ble_event_handler.c **** *  This file contains the source code for the Event Handler State Machine
   7:Generated_Source\PSoC6\pdl\middleware\ble/cy_ble_event_handler.c **** *  of the BLE Middleware.
   8:Generated_Source\PSoC6\pdl\middleware\ble/cy_ble_event_handler.c **** *
   9:Generated_Source\PSoC6\pdl\middleware\ble/cy_ble_event_handler.c **** ********************************************************************************
  10:Generated_Source\PSoC6\pdl\middleware\ble/cy_ble_event_handler.c **** * \copyright
  11:Generated_Source\PSoC6\pdl\middleware\ble/cy_ble_event_handler.c **** * Copyright 2017-2020, Cypress Semiconductor Corporation.  All rights reserved.
  12:Generated_Source\PSoC6\pdl\middleware\ble/cy_ble_event_handler.c **** * You may use this file only in accordance with the license, terms, conditions,
  13:Generated_Source\PSoC6\pdl\middleware\ble/cy_ble_event_handler.c **** * disclaimers, and limitations in the end user license agreement accompanying
  14:Generated_Source\PSoC6\pdl\middleware\ble/cy_ble_event_handler.c **** * the software package with which this file was provided.
  15:Generated_Source\PSoC6\pdl\middleware\ble/cy_ble_event_handler.c **** *******************************************************************************/
  16:Generated_Source\PSoC6\pdl\middleware\ble/cy_ble_event_handler.c **** 
  17:Generated_Source\PSoC6\pdl\middleware\ble/cy_ble_event_handler.c **** #include "cy_ble_event_handler.h"
  18:Generated_Source\PSoC6\pdl\middleware\ble/cy_ble_event_handler.c **** 
  19:Generated_Source\PSoC6\pdl\middleware\ble/cy_ble_event_handler.c **** /* C binding of definitions if building with C++ compiler */
  20:Generated_Source\PSoC6\pdl\middleware\ble/cy_ble_event_handler.c **** #ifdef __cplusplus
  21:Generated_Source\PSoC6\pdl\middleware\ble/cy_ble_event_handler.c **** extern "C" {
  22:Generated_Source\PSoC6\pdl\middleware\ble/cy_ble_event_handler.c **** #endif /* __cplusplus */
  23:Generated_Source\PSoC6\pdl\middleware\ble/cy_ble_event_handler.c **** 
  24:Generated_Source\PSoC6\pdl\middleware\ble/cy_ble_event_handler.c **** #if (CY_BLE_MODE_PROFILE)
  25:Generated_Source\PSoC6\pdl\middleware\ble/cy_ble_event_handler.c **** 
  26:Generated_Source\PSoC6\pdl\middleware\ble/cy_ble_event_handler.c **** /***************************************
  27:Generated_Source\PSoC6\pdl\middleware\ble/cy_ble_event_handler.c **** * Private Function Prototypes
  28:Generated_Source\PSoC6\pdl\middleware\ble/cy_ble_event_handler.c **** ***************************************/
  29:Generated_Source\PSoC6\pdl\middleware\ble/cy_ble_event_handler.c **** 
  30:Generated_Source\PSoC6\pdl\middleware\ble/cy_ble_event_handler.c **** static void Cy_BLE_TimeOutEventHandler(const cy_stc_ble_timeout_param_t *eventParam);
ARM GAS  C:\Users\hkmnt\AppData\Local\Temp\ccBdSSuH.s 			page 2


  31:Generated_Source\PSoC6\pdl\middleware\ble/cy_ble_event_handler.c **** 
  32:Generated_Source\PSoC6\pdl\middleware\ble/cy_ble_event_handler.c **** #if (CY_BLE_GATT_ROLE_SERVER)
  33:Generated_Source\PSoC6\pdl\middleware\ble/cy_ble_event_handler.c **** static void Cy_BLE_SendWriteResponse(const cy_stc_ble_gatts_write_cmd_req_param_t *eventParam,
  34:Generated_Source\PSoC6\pdl\middleware\ble/cy_ble_event_handler.c ****                                      cy_en_ble_gatt_err_code_t gattErr);
  35:Generated_Source\PSoC6\pdl\middleware\ble/cy_ble_event_handler.c **** #endif /* CY_BLE_GATT_ROLE_SERVER */
  36:Generated_Source\PSoC6\pdl\middleware\ble/cy_ble_event_handler.c **** 
  37:Generated_Source\PSoC6\pdl\middleware\ble/cy_ble_event_handler.c **** #if (CY_BLE_GATT_ROLE_CLIENT)
  38:Generated_Source\PSoC6\pdl\middleware\ble/cy_ble_event_handler.c **** static void Cy_BLE_GAPC_DiscoverCharacteristicsEventHandler(cy_stc_ble_disc_char_info_t *discCharIn
  39:Generated_Source\PSoC6\pdl\middleware\ble/cy_ble_event_handler.c **** #endif /* CY_BLE_GATT_ROLE_CLIENT */
  40:Generated_Source\PSoC6\pdl\middleware\ble/cy_ble_event_handler.c **** 
  41:Generated_Source\PSoC6\pdl\middleware\ble/cy_ble_event_handler.c **** 
  42:Generated_Source\PSoC6\pdl\middleware\ble/cy_ble_event_handler.c **** /***************************************
  43:Generated_Source\PSoC6\pdl\middleware\ble/cy_ble_event_handler.c **** * Global Variables
  44:Generated_Source\PSoC6\pdl\middleware\ble/cy_ble_event_handler.c **** ***************************************/
  45:Generated_Source\PSoC6\pdl\middleware\ble/cy_ble_event_handler.c **** volatile uint8_t cy_ble_busyStatus[CY_BLE_CONN_COUNT];
  46:Generated_Source\PSoC6\pdl\middleware\ble/cy_ble_event_handler.c **** volatile uint8_t cy_ble_eventHandlerFlag;
  47:Generated_Source\PSoC6\pdl\middleware\ble/cy_ble_event_handler.c **** volatile uint32_t cy_ble_cmdStatus;
  48:Generated_Source\PSoC6\pdl\middleware\ble/cy_ble_event_handler.c **** 
  49:Generated_Source\PSoC6\pdl\middleware\ble/cy_ble_event_handler.c **** #if (CY_BLE_GAP_ROLE_PERIPHERAL || CY_BLE_GAP_ROLE_BROADCASTER)
  50:Generated_Source\PSoC6\pdl\middleware\ble/cy_ble_event_handler.c **** uint8_t cy_ble_advertisingIntervalType;
  51:Generated_Source\PSoC6\pdl\middleware\ble/cy_ble_event_handler.c **** #endif /* CY_BLE_GAP_ROLE_PERIPHERAL || CY_BLE_GAP_ROLE_BROADCASTER) */
  52:Generated_Source\PSoC6\pdl\middleware\ble/cy_ble_event_handler.c **** 
  53:Generated_Source\PSoC6\pdl\middleware\ble/cy_ble_event_handler.c **** #if (CY_BLE_GAP_ROLE_CENTRAL || CY_BLE_GAP_ROLE_OBSERVER)
  54:Generated_Source\PSoC6\pdl\middleware\ble/cy_ble_event_handler.c **** uint8_t cy_ble_scanningIntervalType;
  55:Generated_Source\PSoC6\pdl\middleware\ble/cy_ble_event_handler.c **** #endif /* CY_BLE_GAP_ROLE_CENTRAL || CY_BLE_GAP_ROLE_OBSERVER */
  56:Generated_Source\PSoC6\pdl\middleware\ble/cy_ble_event_handler.c **** 
  57:Generated_Source\PSoC6\pdl\middleware\ble/cy_ble_event_handler.c **** #if (CY_BLE_GATT_ROLE_CLIENT)
  58:Generated_Source\PSoC6\pdl\middleware\ble/cy_ble_event_handler.c **** cy_stc_ble_discovery_t cy_ble_discovery[CY_BLE_GATTC_COUNT];
  59:Generated_Source\PSoC6\pdl\middleware\ble/cy_ble_event_handler.c **** cy_stc_ble_disc_srvc_info_t cy_ble_serverInfo[CY_BLE_GATTC_COUNT][CY_BLE_SRVI_COUNT];
  60:Generated_Source\PSoC6\pdl\middleware\ble/cy_ble_event_handler.c **** #endif /* CY_BLE_GATT_ROLE_CLIENT */
  61:Generated_Source\PSoC6\pdl\middleware\ble/cy_ble_event_handler.c **** 
  62:Generated_Source\PSoC6\pdl\middleware\ble/cy_ble_event_handler.c **** #if (CY_BLE_GAP_ROLE_PERIPHERAL || CY_BLE_GAP_ROLE_CENTRAL)
  63:Generated_Source\PSoC6\pdl\middleware\ble/cy_ble_event_handler.c **** cy_stc_ble_event_handler_t cy_ble_eventHandler;
  64:Generated_Source\PSoC6\pdl\middleware\ble/cy_ble_event_handler.c **** 
  65:Generated_Source\PSoC6\pdl\middleware\ble/cy_ble_event_handler.c **** 
  66:Generated_Source\PSoC6\pdl\middleware\ble/cy_ble_event_handler.c **** /******************************************************************************
  67:Generated_Source\PSoC6\pdl\middleware\ble/cy_ble_event_handler.c **** * Function Name: Cy_BLE_RegisterServiceEventHandler
  68:Generated_Source\PSoC6\pdl\middleware\ble/cy_ble_event_handler.c **** ***************************************************************************//**
  69:Generated_Source\PSoC6\pdl\middleware\ble/cy_ble_event_handler.c **** *
  70:Generated_Source\PSoC6\pdl\middleware\ble/cy_ble_event_handler.c **** *  Registration Service Event Handler
  71:Generated_Source\PSoC6\pdl\middleware\ble/cy_ble_event_handler.c **** *
  72:Generated_Source\PSoC6\pdl\middleware\ble/cy_ble_event_handler.c **** *  \param  eventHandlerFunc: The pointer to the callback procedure.
  73:Generated_Source\PSoC6\pdl\middleware\ble/cy_ble_event_handler.c **** *
  74:Generated_Source\PSoC6\pdl\middleware\ble/cy_ble_event_handler.c **** *  \return
  75:Generated_Source\PSoC6\pdl\middleware\ble/cy_ble_event_handler.c **** *  cy_en_ble_api_result_t : Return value indicates if the function succeeded or
  76:Generated_Source\PSoC6\pdl\middleware\ble/cy_ble_event_handler.c **** *  failed. The following are possible error codes.
  77:Generated_Source\PSoC6\pdl\middleware\ble/cy_ble_event_handler.c **** *
  78:Generated_Source\PSoC6\pdl\middleware\ble/cy_ble_event_handler.c **** *   Error Codes                           | Description
  79:Generated_Source\PSoC6\pdl\middleware\ble/cy_ble_event_handler.c **** *   ------------                          | -----------
  80:Generated_Source\PSoC6\pdl\middleware\ble/cy_ble_event_handler.c **** *   CY_BLE_SUCCESS                        | The function completed successfully.
  81:Generated_Source\PSoC6\pdl\middleware\ble/cy_ble_event_handler.c **** *   CY_BLE_ERROR_INVALID_PARAMETER        | On specifying NULL as input parameter.
  82:Generated_Source\PSoC6\pdl\middleware\ble/cy_ble_event_handler.c **** *   CY_BLE_ERROR_MEMORY_ALLOCATION_FAILED | Buffer overflow in the registration callback.
  83:Generated_Source\PSoC6\pdl\middleware\ble/cy_ble_event_handler.c **** *
  84:Generated_Source\PSoC6\pdl\middleware\ble/cy_ble_event_handler.c **** ******************************************************************************/
  85:Generated_Source\PSoC6\pdl\middleware\ble/cy_ble_event_handler.c **** cy_en_ble_api_result_t Cy_BLE_RegisterServiceEventHandler(cy_ble_event_handle_t eventHandlerFunc)
  86:Generated_Source\PSoC6\pdl\middleware\ble/cy_ble_event_handler.c **** {
  87:Generated_Source\PSoC6\pdl\middleware\ble/cy_ble_event_handler.c ****     cy_en_ble_api_result_t apiResult = CY_BLE_SUCCESS;
ARM GAS  C:\Users\hkmnt\AppData\Local\Temp\ccBdSSuH.s 			page 3


  88:Generated_Source\PSoC6\pdl\middleware\ble/cy_ble_event_handler.c ****     uint8_t existFlag = 0u;
  89:Generated_Source\PSoC6\pdl\middleware\ble/cy_ble_event_handler.c **** 
  90:Generated_Source\PSoC6\pdl\middleware\ble/cy_ble_event_handler.c ****     if(eventHandlerFunc == NULL)
  91:Generated_Source\PSoC6\pdl\middleware\ble/cy_ble_event_handler.c ****     {
  92:Generated_Source\PSoC6\pdl\middleware\ble/cy_ble_event_handler.c ****         apiResult = CY_BLE_ERROR_INVALID_PARAMETER;
  93:Generated_Source\PSoC6\pdl\middleware\ble/cy_ble_event_handler.c ****     }
  94:Generated_Source\PSoC6\pdl\middleware\ble/cy_ble_event_handler.c ****     else
  95:Generated_Source\PSoC6\pdl\middleware\ble/cy_ble_event_handler.c ****     {
  96:Generated_Source\PSoC6\pdl\middleware\ble/cy_ble_event_handler.c ****         /* Check if eventHandlerFunc has been already registered */
  97:Generated_Source\PSoC6\pdl\middleware\ble/cy_ble_event_handler.c ****         uint32_t idx;
  98:Generated_Source\PSoC6\pdl\middleware\ble/cy_ble_event_handler.c ****         for(idx = 0u; (idx < cy_ble_eventHandler.count) && (existFlag == 0u); idx++)
  99:Generated_Source\PSoC6\pdl\middleware\ble/cy_ble_event_handler.c ****         {
 100:Generated_Source\PSoC6\pdl\middleware\ble/cy_ble_event_handler.c ****             if(cy_ble_eventHandler.serviceEventHandler[idx] == eventHandlerFunc)
 101:Generated_Source\PSoC6\pdl\middleware\ble/cy_ble_event_handler.c ****             {
 102:Generated_Source\PSoC6\pdl\middleware\ble/cy_ble_event_handler.c ****                 existFlag = 1u;
 103:Generated_Source\PSoC6\pdl\middleware\ble/cy_ble_event_handler.c ****             }
 104:Generated_Source\PSoC6\pdl\middleware\ble/cy_ble_event_handler.c ****         }
 105:Generated_Source\PSoC6\pdl\middleware\ble/cy_ble_event_handler.c ****     }
 106:Generated_Source\PSoC6\pdl\middleware\ble/cy_ble_event_handler.c ****     /* Register eventHandlerFunc callback */
 107:Generated_Source\PSoC6\pdl\middleware\ble/cy_ble_event_handler.c ****     if((apiResult == CY_BLE_SUCCESS) && (existFlag == 0u))
 108:Generated_Source\PSoC6\pdl\middleware\ble/cy_ble_event_handler.c ****     {
 109:Generated_Source\PSoC6\pdl\middleware\ble/cy_ble_event_handler.c ****         if(cy_ble_eventHandler.count < CY_BLE_MAX_SRVI)
 110:Generated_Source\PSoC6\pdl\middleware\ble/cy_ble_event_handler.c ****         {
 111:Generated_Source\PSoC6\pdl\middleware\ble/cy_ble_event_handler.c ****             cy_ble_eventHandler.serviceEventHandler[cy_ble_eventHandler.count] = eventHandlerFunc;
 112:Generated_Source\PSoC6\pdl\middleware\ble/cy_ble_event_handler.c ****             cy_ble_eventHandler.count += 1u;
 113:Generated_Source\PSoC6\pdl\middleware\ble/cy_ble_event_handler.c ****         }
 114:Generated_Source\PSoC6\pdl\middleware\ble/cy_ble_event_handler.c ****         else
 115:Generated_Source\PSoC6\pdl\middleware\ble/cy_ble_event_handler.c ****         {
 116:Generated_Source\PSoC6\pdl\middleware\ble/cy_ble_event_handler.c ****             apiResult = CY_BLE_ERROR_MEMORY_ALLOCATION_FAILED;
 117:Generated_Source\PSoC6\pdl\middleware\ble/cy_ble_event_handler.c ****         }
 118:Generated_Source\PSoC6\pdl\middleware\ble/cy_ble_event_handler.c ****     }
 119:Generated_Source\PSoC6\pdl\middleware\ble/cy_ble_event_handler.c **** 
 120:Generated_Source\PSoC6\pdl\middleware\ble/cy_ble_event_handler.c ****     return(apiResult);
 121:Generated_Source\PSoC6\pdl\middleware\ble/cy_ble_event_handler.c **** }
 122:Generated_Source\PSoC6\pdl\middleware\ble/cy_ble_event_handler.c **** 
 123:Generated_Source\PSoC6\pdl\middleware\ble/cy_ble_event_handler.c **** /******************************************************************************
 124:Generated_Source\PSoC6\pdl\middleware\ble/cy_ble_event_handler.c **** * Function Name: Cy_BLE_InvokeServiceEventHandler
 125:Generated_Source\PSoC6\pdl\middleware\ble/cy_ble_event_handler.c **** ***************************************************************************//**
 126:Generated_Source\PSoC6\pdl\middleware\ble/cy_ble_event_handler.c **** *
 127:Generated_Source\PSoC6\pdl\middleware\ble/cy_ble_event_handler.c **** *  Invoke registered service event handlers.
 128:Generated_Source\PSoC6\pdl\middleware\ble/cy_ble_event_handler.c **** *
 129:Generated_Source\PSoC6\pdl\middleware\ble/cy_ble_event_handler.c **** *  \param eventCode:   The event code.
 130:Generated_Source\PSoC6\pdl\middleware\ble/cy_ble_event_handler.c **** *  \param eventParam:  The event parameters.
 131:Generated_Source\PSoC6\pdl\middleware\ble/cy_ble_event_handler.c **** *
 132:Generated_Source\PSoC6\pdl\middleware\ble/cy_ble_event_handler.c **** * \return
 133:Generated_Source\PSoC6\pdl\middleware\ble/cy_ble_event_handler.c **** *  A return value of type cy_en_ble_gatt_err_code_t.
 134:Generated_Source\PSoC6\pdl\middleware\ble/cy_ble_event_handler.c **** *
 135:Generated_Source\PSoC6\pdl\middleware\ble/cy_ble_event_handler.c **** ******************************************************************************/
 136:Generated_Source\PSoC6\pdl\middleware\ble/cy_ble_event_handler.c **** cy_en_ble_gatt_err_code_t Cy_BLE_InvokeServiceEventHandler(uint32_t eventCode,
 137:Generated_Source\PSoC6\pdl\middleware\ble/cy_ble_event_handler.c ****                                                            void *eventParam)
 138:Generated_Source\PSoC6\pdl\middleware\ble/cy_ble_event_handler.c **** {
 139:Generated_Source\PSoC6\pdl\middleware\ble/cy_ble_event_handler.c ****     uint32_t idx;
 140:Generated_Source\PSoC6\pdl\middleware\ble/cy_ble_event_handler.c ****     cy_en_ble_gatt_err_code_t gattErr = CY_BLE_GATT_ERR_NONE;
 141:Generated_Source\PSoC6\pdl\middleware\ble/cy_ble_event_handler.c **** 
 142:Generated_Source\PSoC6\pdl\middleware\ble/cy_ble_event_handler.c ****     for(idx = 0u; (idx < cy_ble_eventHandler.count) && ((cy_ble_eventHandlerFlag & CY_BLE_CALLBACK)
 143:Generated_Source\PSoC6\pdl\middleware\ble/cy_ble_event_handler.c ****     {
 144:Generated_Source\PSoC6\pdl\middleware\ble/cy_ble_event_handler.c ****         gattErr = cy_ble_eventHandler.serviceEventHandler[idx](eventCode, eventParam);
ARM GAS  C:\Users\hkmnt\AppData\Local\Temp\ccBdSSuH.s 			page 4


 145:Generated_Source\PSoC6\pdl\middleware\ble/cy_ble_event_handler.c ****     }
 146:Generated_Source\PSoC6\pdl\middleware\ble/cy_ble_event_handler.c **** 
 147:Generated_Source\PSoC6\pdl\middleware\ble/cy_ble_event_handler.c ****     return(gattErr);
 148:Generated_Source\PSoC6\pdl\middleware\ble/cy_ble_event_handler.c **** }
 149:Generated_Source\PSoC6\pdl\middleware\ble/cy_ble_event_handler.c **** #endif /* CY_BLE_GAP_ROLE_PERIPHERAL || CY_BLE_GAP_ROLE_CENTRAL */
 150:Generated_Source\PSoC6\pdl\middleware\ble/cy_ble_event_handler.c **** 
 151:Generated_Source\PSoC6\pdl\middleware\ble/cy_ble_event_handler.c **** #if (CY_BLE_GATT_ROLE_SERVER)
 152:Generated_Source\PSoC6\pdl\middleware\ble/cy_ble_event_handler.c **** 
 153:Generated_Source\PSoC6\pdl\middleware\ble/cy_ble_event_handler.c **** 
 154:Generated_Source\PSoC6\pdl\middleware\ble/cy_ble_event_handler.c **** /******************************************************************************
 155:Generated_Source\PSoC6\pdl\middleware\ble/cy_ble_event_handler.c **** * Function Name: Cy_BLE_SendWriteResponse
 156:Generated_Source\PSoC6\pdl\middleware\ble/cy_ble_event_handler.c **** ***************************************************************************//**
 157:Generated_Source\PSoC6\pdl\middleware\ble/cy_ble_event_handler.c **** *
 158:Generated_Source\PSoC6\pdl\middleware\ble/cy_ble_event_handler.c **** *  Sends the Write Response to Write Request when event was handled by service.
 159:Generated_Source\PSoC6\pdl\middleware\ble/cy_ble_event_handler.c **** *
 160:Generated_Source\PSoC6\pdl\middleware\ble/cy_ble_event_handler.c **** *  \param eventParam - The event parameter.
 161:Generated_Source\PSoC6\pdl\middleware\ble/cy_ble_event_handler.c **** *  \param gattErr - The error code.
 162:Generated_Source\PSoC6\pdl\middleware\ble/cy_ble_event_handler.c **** *
 163:Generated_Source\PSoC6\pdl\middleware\ble/cy_ble_event_handler.c **** * \return
 164:Generated_Source\PSoC6\pdl\middleware\ble/cy_ble_event_handler.c **** *  None.
 165:Generated_Source\PSoC6\pdl\middleware\ble/cy_ble_event_handler.c **** *
 166:Generated_Source\PSoC6\pdl\middleware\ble/cy_ble_event_handler.c **** ******************************************************************************/
 167:Generated_Source\PSoC6\pdl\middleware\ble/cy_ble_event_handler.c **** static void Cy_BLE_SendWriteResponse(const cy_stc_ble_gatts_write_cmd_req_param_t *eventParam,
 168:Generated_Source\PSoC6\pdl\middleware\ble/cy_ble_event_handler.c ****                                      cy_en_ble_gatt_err_code_t gattErr)
 169:Generated_Source\PSoC6\pdl\middleware\ble/cy_ble_event_handler.c **** {
  28              		.loc 1 169 0
  29              		.cfi_startproc
  30              		@ args = 0, pretend = 0, frame = 8
  31              		@ frame_needed = 0, uses_anonymous_args = 0
  32              	.LVL0:
  33 0000 00B5     		push	{lr}
  34              		.cfi_def_cfa_offset 4
  35              		.cfi_offset 14, -4
  36 0002 83B0     		sub	sp, sp, #12
  37              		.cfi_def_cfa_offset 16
 170:Generated_Source\PSoC6\pdl\middleware\ble/cy_ble_event_handler.c ****     cy_stc_ble_gatt_err_param_t err_param =
  38              		.loc 1 170 0
  39 0004 0023     		movs	r3, #0
  40 0006 ADF80430 		strh	r3, [sp, #4]	@ movhi
  41 000a 8389     		ldrh	r3, [r0, #12]
  42 000c ADF80030 		strh	r3, [sp]	@ movhi
 171:Generated_Source\PSoC6\pdl\middleware\ble/cy_ble_event_handler.c ****     {
 172:Generated_Source\PSoC6\pdl\middleware\ble/cy_ble_event_handler.c ****         .errInfo.opCode     = CY_BLE_GATT_WRITE_REQ,
 173:Generated_Source\PSoC6\pdl\middleware\ble/cy_ble_event_handler.c ****         .errInfo.attrHandle = eventParam->handleValPair.attrHandle,        
  43              		.loc 1 173 0
  44 0010 0389     		ldrh	r3, [r0, #8]
 170:Generated_Source\PSoC6\pdl\middleware\ble/cy_ble_event_handler.c ****     cy_stc_ble_gatt_err_param_t err_param =
  45              		.loc 1 170 0
  46 0012 ADF80230 		strh	r3, [sp, #2]	@ movhi
  47 0016 1223     		movs	r3, #18
  48 0018 8DF80430 		strb	r3, [sp, #4]
 174:Generated_Source\PSoC6\pdl\middleware\ble/cy_ble_event_handler.c ****         .connHandle         = eventParam->connHandle
 175:Generated_Source\PSoC6\pdl\middleware\ble/cy_ble_event_handler.c ****     };
 176:Generated_Source\PSoC6\pdl\middleware\ble/cy_ble_event_handler.c **** 
 177:Generated_Source\PSoC6\pdl\middleware\ble/cy_ble_event_handler.c ****     /* Send response when event was handled by the service */
 178:Generated_Source\PSoC6\pdl\middleware\ble/cy_ble_event_handler.c ****     if((cy_ble_eventHandlerFlag & CY_BLE_CALLBACK) == 0u)
  49              		.loc 1 178 0
ARM GAS  C:\Users\hkmnt\AppData\Local\Temp\ccBdSSuH.s 			page 5


  50 001c 084B     		ldr	r3, .L5
  51 001e 1B78     		ldrb	r3, [r3]	@ zero_extendqisi2
  52 0020 13F0010F 		tst	r3, #1
  53 0024 09D1     		bne	.L1
 179:Generated_Source\PSoC6\pdl\middleware\ble/cy_ble_event_handler.c ****     {
 180:Generated_Source\PSoC6\pdl\middleware\ble/cy_ble_event_handler.c ****         if(gattErr != CY_BLE_GATT_ERR_NONE)
  54              		.loc 1 180 0
  55 0026 29B1     		cbz	r1, .L3
 181:Generated_Source\PSoC6\pdl\middleware\ble/cy_ble_event_handler.c ****         {
 182:Generated_Source\PSoC6\pdl\middleware\ble/cy_ble_event_handler.c ****             /* Send an Error Response */
 183:Generated_Source\PSoC6\pdl\middleware\ble/cy_ble_event_handler.c ****             err_param.errInfo.errorCode  = gattErr;
  56              		.loc 1 183 0
  57 0028 8DF80510 		strb	r1, [sp, #5]
 184:Generated_Source\PSoC6\pdl\middleware\ble/cy_ble_event_handler.c ****             (void)Cy_BLE_GATTS_ErrorRsp(&err_param);
  58              		.loc 1 184 0
  59 002c 6846     		mov	r0, sp
  60              	.LVL1:
  61 002e FFF7FEFF 		bl	Cy_BLE_GATTS_ErrorRsp
  62              	.LVL2:
  63 0032 02E0     		b	.L1
  64              	.LVL3:
  65              	.L3:
 185:Generated_Source\PSoC6\pdl\middleware\ble/cy_ble_event_handler.c ****         }
 186:Generated_Source\PSoC6\pdl\middleware\ble/cy_ble_event_handler.c ****         else
 187:Generated_Source\PSoC6\pdl\middleware\ble/cy_ble_event_handler.c ****         {
 188:Generated_Source\PSoC6\pdl\middleware\ble/cy_ble_event_handler.c ****             /* Send an Write Response */
 189:Generated_Source\PSoC6\pdl\middleware\ble/cy_ble_event_handler.c ****             (void)Cy_BLE_GATTS_WriteRsp(eventParam->connHandle);
  66              		.loc 1 189 0
  67 0034 C068     		ldr	r0, [r0, #12]
  68              	.LVL4:
  69 0036 FFF7FEFF 		bl	Cy_BLE_GATTS_WriteRsp
  70              	.LVL5:
  71              	.L1:
 190:Generated_Source\PSoC6\pdl\middleware\ble/cy_ble_event_handler.c ****         }
 191:Generated_Source\PSoC6\pdl\middleware\ble/cy_ble_event_handler.c ****     } 
 192:Generated_Source\PSoC6\pdl\middleware\ble/cy_ble_event_handler.c **** }
  72              		.loc 1 192 0
  73 003a 03B0     		add	sp, sp, #12
  74              		.cfi_def_cfa_offset 4
  75              		@ sp needed
  76 003c 5DF804FB 		ldr	pc, [sp], #4
  77              	.L6:
  78              		.align	2
  79              	.L5:
  80 0040 00000000 		.word	cy_ble_eventHandlerFlag
  81              		.cfi_endproc
  82              	.LFE257:
  83              		.size	Cy_BLE_SendWriteResponse, .-Cy_BLE_SendWriteResponse
  84              		.section	.text.Cy_BLE_RegisterServiceEventHandler,"ax",%progbits
  85              		.align	2
  86              		.global	Cy_BLE_RegisterServiceEventHandler
  87              		.thumb
  88              		.thumb_func
  89              		.type	Cy_BLE_RegisterServiceEventHandler, %function
  90              	Cy_BLE_RegisterServiceEventHandler:
  91              	.LFB255:
  86:Generated_Source\PSoC6\pdl\middleware\ble/cy_ble_event_handler.c ****     cy_en_ble_api_result_t apiResult = CY_BLE_SUCCESS;
ARM GAS  C:\Users\hkmnt\AppData\Local\Temp\ccBdSSuH.s 			page 6


  92              		.loc 1 86 0
  93              		.cfi_startproc
  94              		@ args = 0, pretend = 0, frame = 0
  95              		@ frame_needed = 0, uses_anonymous_args = 0
  96              		@ link register save eliminated.
  97              	.LVL6:
  98 0000 10B4     		push	{r4}
  99              		.cfi_def_cfa_offset 4
 100              		.cfi_offset 4, -4
 101              	.LVL7:
  90:Generated_Source\PSoC6\pdl\middleware\ble/cy_ble_event_handler.c ****     {
 102              		.loc 1 90 0
 103 0002 0446     		mov	r4, r0
 104 0004 88B1     		cbz	r0, .L13
 105 0006 0023     		movs	r3, #0
 106 0008 1946     		mov	r1, r3
 107 000a 06E0     		b	.L9
 108              	.LVL8:
 109              	.L11:
 110              	.LBB37:
 100:Generated_Source\PSoC6\pdl\middleware\ble/cy_ble_event_handler.c ****             {
 111              		.loc 1 100 0
 112 000c 114A     		ldr	r2, .L18
 113 000e 52F82320 		ldr	r2, [r2, r3, lsl #2]
 114 0012 9442     		cmp	r4, r2
 115 0014 00D1     		bne	.L10
 102:Generated_Source\PSoC6\pdl\middleware\ble/cy_ble_event_handler.c ****             }
 116              		.loc 1 102 0
 117 0016 0121     		movs	r1, #1
 118              	.LVL9:
 119              	.L10:
  98:Generated_Source\PSoC6\pdl\middleware\ble/cy_ble_event_handler.c ****         {
 120              		.loc 1 98 0 discriminator 2
 121 0018 0133     		adds	r3, r3, #1
 122              	.LVL10:
 123              	.L9:
  98:Generated_Source\PSoC6\pdl\middleware\ble/cy_ble_event_handler.c ****         {
 124              		.loc 1 98 0 is_stmt 0 discriminator 1
 125 001a 0E4A     		ldr	r2, .L18
 126 001c 127A     		ldrb	r2, [r2, #8]	@ zero_extendqisi2
 127 001e 9342     		cmp	r3, r2
 128 0020 06D2     		bcs	.L15
  98:Generated_Source\PSoC6\pdl\middleware\ble/cy_ble_event_handler.c ****         {
 129              		.loc 1 98 0 discriminator 3
 130 0022 0029     		cmp	r1, #0
 131 0024 F2D0     		beq	.L11
 132              	.LBE37:
  87:Generated_Source\PSoC6\pdl\middleware\ble/cy_ble_event_handler.c ****     uint8_t existFlag = 0u;
 133              		.loc 1 87 0 is_stmt 1
 134 0026 0020     		movs	r0, #0
 135              	.LVL11:
 136              	.LBB38:
 137 0028 03E0     		b	.L8
 138              	.LVL12:
 139              	.L13:
 140              	.LBE38:
  88:Generated_Source\PSoC6\pdl\middleware\ble/cy_ble_event_handler.c **** 
ARM GAS  C:\Users\hkmnt\AppData\Local\Temp\ccBdSSuH.s 			page 7


 141              		.loc 1 88 0
 142 002a 0021     		movs	r1, #0
  92:Generated_Source\PSoC6\pdl\middleware\ble/cy_ble_event_handler.c ****     }
 143              		.loc 1 92 0
 144 002c 0A48     		ldr	r0, .L18+4
 145              	.LVL13:
 146 002e 00E0     		b	.L8
 147              	.LVL14:
 148              	.L15:
  87:Generated_Source\PSoC6\pdl\middleware\ble/cy_ble_event_handler.c ****     uint8_t existFlag = 0u;
 149              		.loc 1 87 0
 150 0030 0020     		movs	r0, #0
 151              	.LVL15:
 152              	.L8:
 107:Generated_Source\PSoC6\pdl\middleware\ble/cy_ble_event_handler.c ****     {
 153              		.loc 1 107 0
 154 0032 58B9     		cbnz	r0, .L12
 107:Generated_Source\PSoC6\pdl\middleware\ble/cy_ble_event_handler.c ****     {
 155              		.loc 1 107 0 is_stmt 0 discriminator 1
 156 0034 51B9     		cbnz	r1, .L12
 109:Generated_Source\PSoC6\pdl\middleware\ble/cy_ble_event_handler.c ****         {
 157              		.loc 1 109 0 is_stmt 1
 158 0036 074B     		ldr	r3, .L18
 159 0038 1B7A     		ldrb	r3, [r3, #8]	@ zero_extendqisi2
 160 003a 012B     		cmp	r3, #1
 161 003c 05D8     		bhi	.L16
 111:Generated_Source\PSoC6\pdl\middleware\ble/cy_ble_event_handler.c ****             cy_ble_eventHandler.count += 1u;
 162              		.loc 1 111 0
 163 003e 054A     		ldr	r2, .L18
 164 0040 42F82340 		str	r4, [r2, r3, lsl #2]
 112:Generated_Source\PSoC6\pdl\middleware\ble/cy_ble_event_handler.c ****         }
 165              		.loc 1 112 0
 166 0044 0133     		adds	r3, r3, #1
 167 0046 1372     		strb	r3, [r2, #8]
 168 0048 00E0     		b	.L12
 169              	.L16:
 116:Generated_Source\PSoC6\pdl\middleware\ble/cy_ble_event_handler.c ****         }
 170              		.loc 1 116 0
 171 004a 0448     		ldr	r0, .L18+8
 172              	.LVL16:
 173              	.L12:
 121:Generated_Source\PSoC6\pdl\middleware\ble/cy_ble_event_handler.c **** 
 174              		.loc 1 121 0
 175 004c 5DF8044B 		ldr	r4, [sp], #4
 176              		.cfi_restore 4
 177              		.cfi_def_cfa_offset 0
 178              	.LVL17:
 179 0050 7047     		bx	lr
 180              	.L19:
 181 0052 00BF     		.align	2
 182              	.L18:
 183 0054 00000000 		.word	cy_ble_eventHandler
 184 0058 01001600 		.word	1441793
 185 005c 03001600 		.word	1441795
 186              		.cfi_endproc
 187              	.LFE255:
 188              		.size	Cy_BLE_RegisterServiceEventHandler, .-Cy_BLE_RegisterServiceEventHandler
ARM GAS  C:\Users\hkmnt\AppData\Local\Temp\ccBdSSuH.s 			page 8


 189              		.section	.text.Cy_BLE_InvokeServiceEventHandler,"ax",%progbits
 190              		.align	2
 191              		.global	Cy_BLE_InvokeServiceEventHandler
 192              		.thumb
 193              		.thumb_func
 194              		.type	Cy_BLE_InvokeServiceEventHandler, %function
 195              	Cy_BLE_InvokeServiceEventHandler:
 196              	.LFB256:
 138:Generated_Source\PSoC6\pdl\middleware\ble/cy_ble_event_handler.c ****     uint32_t idx;
 197              		.loc 1 138 0
 198              		.cfi_startproc
 199              		@ args = 0, pretend = 0, frame = 0
 200              		@ frame_needed = 0, uses_anonymous_args = 0
 201              	.LVL18:
 202 0000 70B5     		push	{r4, r5, r6, lr}
 203              		.cfi_def_cfa_offset 16
 204              		.cfi_offset 4, -16
 205              		.cfi_offset 5, -12
 206              		.cfi_offset 6, -8
 207              		.cfi_offset 14, -4
 208 0002 0646     		mov	r6, r0
 209 0004 0D46     		mov	r5, r1
 210              	.LVL19:
 140:Generated_Source\PSoC6\pdl\middleware\ble/cy_ble_event_handler.c **** 
 211              		.loc 1 140 0
 212 0006 0020     		movs	r0, #0
 213              	.LVL20:
 142:Generated_Source\PSoC6\pdl\middleware\ble/cy_ble_event_handler.c ****     {
 214              		.loc 1 142 0
 215 0008 0446     		mov	r4, r0
 216 000a 06E0     		b	.L21
 217              	.LVL21:
 218              	.L23:
 144:Generated_Source\PSoC6\pdl\middleware\ble/cy_ble_event_handler.c ****     }
 219              		.loc 1 144 0 discriminator 4
 220 000c 084B     		ldr	r3, .L25
 221 000e 53F82430 		ldr	r3, [r3, r4, lsl #2]
 222 0012 2946     		mov	r1, r5
 223 0014 3046     		mov	r0, r6
 224              	.LVL22:
 225 0016 9847     		blx	r3
 226              	.LVL23:
 142:Generated_Source\PSoC6\pdl\middleware\ble/cy_ble_event_handler.c ****     {
 227              		.loc 1 142 0 discriminator 4
 228 0018 0134     		adds	r4, r4, #1
 229              	.LVL24:
 230              	.L21:
 142:Generated_Source\PSoC6\pdl\middleware\ble/cy_ble_event_handler.c ****     {
 231              		.loc 1 142 0 is_stmt 0 discriminator 1
 232 001a 054B     		ldr	r3, .L25
 233 001c 1B7A     		ldrb	r3, [r3, #8]	@ zero_extendqisi2
 234 001e 9C42     		cmp	r4, r3
 235 0020 04D2     		bcs	.L22
 142:Generated_Source\PSoC6\pdl\middleware\ble/cy_ble_event_handler.c ****     {
 236              		.loc 1 142 0 discriminator 3
 237 0022 044B     		ldr	r3, .L25+4
 238 0024 1B78     		ldrb	r3, [r3]	@ zero_extendqisi2
ARM GAS  C:\Users\hkmnt\AppData\Local\Temp\ccBdSSuH.s 			page 9


 239 0026 13F0010F 		tst	r3, #1
 240 002a EFD1     		bne	.L23
 241              	.L22:
 148:Generated_Source\PSoC6\pdl\middleware\ble/cy_ble_event_handler.c **** #endif /* CY_BLE_GAP_ROLE_PERIPHERAL || CY_BLE_GAP_ROLE_CENTRAL */
 242              		.loc 1 148 0 is_stmt 1
 243 002c 70BD     		pop	{r4, r5, r6, pc}
 244              	.LVL25:
 245              	.L26:
 246 002e 00BF     		.align	2
 247              	.L25:
 248 0030 00000000 		.word	cy_ble_eventHandler
 249 0034 00000000 		.word	cy_ble_eventHandlerFlag
 250              		.cfi_endproc
 251              	.LFE256:
 252              		.size	Cy_BLE_InvokeServiceEventHandler, .-Cy_BLE_InvokeServiceEventHandler
 253              		.section	.text.Cy_BLE_IsDeviceAddressValid,"ax",%progbits
 254              		.align	2
 255              		.global	Cy_BLE_IsDeviceAddressValid
 256              		.thumb
 257              		.thumb_func
 258              		.type	Cy_BLE_IsDeviceAddressValid, %function
 259              	Cy_BLE_IsDeviceAddressValid:
 260              	.LFB259:
 193:Generated_Source\PSoC6\pdl\middleware\ble/cy_ble_event_handler.c **** #endif /* CY_BLE_GATT_ROLE_SERVER */
 194:Generated_Source\PSoC6\pdl\middleware\ble/cy_ble_event_handler.c **** 
 195:Generated_Source\PSoC6\pdl\middleware\ble/cy_ble_event_handler.c **** 
 196:Generated_Source\PSoC6\pdl\middleware\ble/cy_ble_event_handler.c **** /******************************************************************************
 197:Generated_Source\PSoC6\pdl\middleware\ble/cy_ble_event_handler.c **** * Function Name: Cy_BLE_TimeOutEventHandler
 198:Generated_Source\PSoC6\pdl\middleware\ble/cy_ble_event_handler.c **** ***************************************************************************//**
 199:Generated_Source\PSoC6\pdl\middleware\ble/cy_ble_event_handler.c **** *
 200:Generated_Source\PSoC6\pdl\middleware\ble/cy_ble_event_handler.c **** *  Handles a CY_BLE_EVT_TIMEOUT event from the BLE Stack.
 201:Generated_Source\PSoC6\pdl\middleware\ble/cy_ble_event_handler.c **** *
 202:Generated_Source\PSoC6\pdl\middleware\ble/cy_ble_event_handler.c **** *  \param eventParam: The pointer to a structure of type cy_stc_ble_timeout_param_t.
 203:Generated_Source\PSoC6\pdl\middleware\ble/cy_ble_event_handler.c **** *
 204:Generated_Source\PSoC6\pdl\middleware\ble/cy_ble_event_handler.c **** * \return
 205:Generated_Source\PSoC6\pdl\middleware\ble/cy_ble_event_handler.c **** *  None
 206:Generated_Source\PSoC6\pdl\middleware\ble/cy_ble_event_handler.c **** *
 207:Generated_Source\PSoC6\pdl\middleware\ble/cy_ble_event_handler.c **** ******************************************************************************/
 208:Generated_Source\PSoC6\pdl\middleware\ble/cy_ble_event_handler.c **** static void Cy_BLE_TimeOutEventHandler(const cy_stc_ble_timeout_param_t *eventParam)
 209:Generated_Source\PSoC6\pdl\middleware\ble/cy_ble_event_handler.c **** {
 210:Generated_Source\PSoC6\pdl\middleware\ble/cy_ble_event_handler.c ****     if(eventParam->reasonCode == CY_BLE_GATT_RSP_TO)
 211:Generated_Source\PSoC6\pdl\middleware\ble/cy_ble_event_handler.c ****     {
 212:Generated_Source\PSoC6\pdl\middleware\ble/cy_ble_event_handler.c ****     #if (CY_BLE_GATT_ROLE_CLIENT)
 213:Generated_Source\PSoC6\pdl\middleware\ble/cy_ble_event_handler.c ****         {
 214:Generated_Source\PSoC6\pdl\middleware\ble/cy_ble_event_handler.c ****             uint32_t discIdx = Cy_BLE_GetDiscoveryIdx(eventParam->CY_BLE_HANDLE.connHandle);
 215:Generated_Source\PSoC6\pdl\middleware\ble/cy_ble_event_handler.c ****             if((discIdx < CY_BLE_GATTC_COUNT) && (cy_ble_discovery[discIdx].autoDiscoveryFlag != 0u
 216:Generated_Source\PSoC6\pdl\middleware\ble/cy_ble_event_handler.c ****             {
 217:Generated_Source\PSoC6\pdl\middleware\ble/cy_ble_event_handler.c ****                 switch(Cy_BLE_GetConnectionState(eventParam->CY_BLE_HANDLE.connHandle))
 218:Generated_Source\PSoC6\pdl\middleware\ble/cy_ble_event_handler.c ****                 {
 219:Generated_Source\PSoC6\pdl\middleware\ble/cy_ble_event_handler.c ****                     case CY_BLE_CONN_STATE_CLIENT_SRVC_DISCOVERING:
 220:Generated_Source\PSoC6\pdl\middleware\ble/cy_ble_event_handler.c ****                         Cy_BLE_ApplCallback((uint32_t)CY_BLE_EVT_GATTC_SRVC_DISCOVERY_FAILED,
 221:Generated_Source\PSoC6\pdl\middleware\ble/cy_ble_event_handler.c ****                                             (cy_stc_ble_conn_handle_t*)&eventParam->CY_BLE_HANDLE.c
 222:Generated_Source\PSoC6\pdl\middleware\ble/cy_ble_event_handler.c ****                         break;
 223:Generated_Source\PSoC6\pdl\middleware\ble/cy_ble_event_handler.c **** 
 224:Generated_Source\PSoC6\pdl\middleware\ble/cy_ble_event_handler.c ****                     case CY_BLE_CONN_STATE_CLIENT_INCL_DISCOVERING:
 225:Generated_Source\PSoC6\pdl\middleware\ble/cy_ble_event_handler.c ****                         Cy_BLE_ApplCallback((uint32_t)CY_BLE_EVT_GATTC_INCL_DISCOVERY_FAILED,
 226:Generated_Source\PSoC6\pdl\middleware\ble/cy_ble_event_handler.c ****                                             (cy_stc_ble_conn_handle_t*)&eventParam->CY_BLE_HANDLE.c
ARM GAS  C:\Users\hkmnt\AppData\Local\Temp\ccBdSSuH.s 			page 10


 227:Generated_Source\PSoC6\pdl\middleware\ble/cy_ble_event_handler.c ****                         break;
 228:Generated_Source\PSoC6\pdl\middleware\ble/cy_ble_event_handler.c **** 
 229:Generated_Source\PSoC6\pdl\middleware\ble/cy_ble_event_handler.c ****                     case CY_BLE_CONN_STATE_CLIENT_CHAR_DISCOVERING:
 230:Generated_Source\PSoC6\pdl\middleware\ble/cy_ble_event_handler.c ****                         Cy_BLE_ApplCallback((uint32_t)CY_BLE_EVT_GATTC_CHAR_DISCOVERY_FAILED,
 231:Generated_Source\PSoC6\pdl\middleware\ble/cy_ble_event_handler.c ****                                             (cy_stc_ble_conn_handle_t*)&eventParam->CY_BLE_HANDLE.c
 232:Generated_Source\PSoC6\pdl\middleware\ble/cy_ble_event_handler.c ****                         break;
 233:Generated_Source\PSoC6\pdl\middleware\ble/cy_ble_event_handler.c **** 
 234:Generated_Source\PSoC6\pdl\middleware\ble/cy_ble_event_handler.c ****                     case CY_BLE_CONN_STATE_CLIENT_DESCR_DISCOVERING:
 235:Generated_Source\PSoC6\pdl\middleware\ble/cy_ble_event_handler.c ****                         Cy_BLE_ApplCallback((uint32_t)CY_BLE_EVT_GATTC_DESCR_DISCOVERY_FAILED,
 236:Generated_Source\PSoC6\pdl\middleware\ble/cy_ble_event_handler.c ****                                             (cy_stc_ble_conn_handle_t*)&eventParam->CY_BLE_HANDLE.c
 237:Generated_Source\PSoC6\pdl\middleware\ble/cy_ble_event_handler.c ****                         break;
 238:Generated_Source\PSoC6\pdl\middleware\ble/cy_ble_event_handler.c **** 
 239:Generated_Source\PSoC6\pdl\middleware\ble/cy_ble_event_handler.c ****                     default:        /* Other states should not be set in Auto discovery mode */
 240:Generated_Source\PSoC6\pdl\middleware\ble/cy_ble_event_handler.c ****                         break;
 241:Generated_Source\PSoC6\pdl\middleware\ble/cy_ble_event_handler.c ****                 }
 242:Generated_Source\PSoC6\pdl\middleware\ble/cy_ble_event_handler.c ****                 cy_ble_discovery[discIdx].autoDiscoveryFlag = 0u;
 243:Generated_Source\PSoC6\pdl\middleware\ble/cy_ble_event_handler.c ****                 Cy_BLE_SetConnectionState(eventParam->CY_BLE_HANDLE.connHandle, CY_BLE_CONN_STATE_C
 244:Generated_Source\PSoC6\pdl\middleware\ble/cy_ble_event_handler.c ****             }
 245:Generated_Source\PSoC6\pdl\middleware\ble/cy_ble_event_handler.c ****         }
 246:Generated_Source\PSoC6\pdl\middleware\ble/cy_ble_event_handler.c ****     #endif /* CY_BLE_GATT_ROLE_CLIENT */
 247:Generated_Source\PSoC6\pdl\middleware\ble/cy_ble_event_handler.c ****     }
 248:Generated_Source\PSoC6\pdl\middleware\ble/cy_ble_event_handler.c **** 
 249:Generated_Source\PSoC6\pdl\middleware\ble/cy_ble_event_handler.c ****     #if (CY_BLE_GAP_ROLE_CENTRAL)
 250:Generated_Source\PSoC6\pdl\middleware\ble/cy_ble_event_handler.c ****     /* Connection procedure timeout */
 251:Generated_Source\PSoC6\pdl\middleware\ble/cy_ble_event_handler.c ****     if((eventParam->reasonCode == CY_BLE_GENERIC_APP_TO) &&
 252:Generated_Source\PSoC6\pdl\middleware\ble/cy_ble_event_handler.c ****        (cy_ble_connectingTimeout.timerHandle == eventParam->timerHandle))
 253:Generated_Source\PSoC6\pdl\middleware\ble/cy_ble_event_handler.c ****     {
 254:Generated_Source\PSoC6\pdl\middleware\ble/cy_ble_event_handler.c ****         if(Cy_BLE_GetState() == CY_BLE_STATE_CONNECTING)
 255:Generated_Source\PSoC6\pdl\middleware\ble/cy_ble_event_handler.c ****         {
 256:Generated_Source\PSoC6\pdl\middleware\ble/cy_ble_event_handler.c ****             (void)Cy_BLE_GAPC_CancelDeviceConnection();
 257:Generated_Source\PSoC6\pdl\middleware\ble/cy_ble_event_handler.c ****         }
 258:Generated_Source\PSoC6\pdl\middleware\ble/cy_ble_event_handler.c ****     }
 259:Generated_Source\PSoC6\pdl\middleware\ble/cy_ble_event_handler.c ****     #endif /* CY_BLE_GAP_ROLE_CENTRAL */
 260:Generated_Source\PSoC6\pdl\middleware\ble/cy_ble_event_handler.c **** }
 261:Generated_Source\PSoC6\pdl\middleware\ble/cy_ble_event_handler.c **** 
 262:Generated_Source\PSoC6\pdl\middleware\ble/cy_ble_event_handler.c **** 
 263:Generated_Source\PSoC6\pdl\middleware\ble/cy_ble_event_handler.c **** /******************************************************************************
 264:Generated_Source\PSoC6\pdl\middleware\ble/cy_ble_event_handler.c **** * Function Name: Cy_BLE_IsDeviceAddressValid
 265:Generated_Source\PSoC6\pdl\middleware\ble/cy_ble_event_handler.c **** ***************************************************************************//**
 266:Generated_Source\PSoC6\pdl\middleware\ble/cy_ble_event_handler.c **** *
 267:Generated_Source\PSoC6\pdl\middleware\ble/cy_ble_event_handler.c **** *  This function verifies that the device address is valid (not equal zero)
 268:Generated_Source\PSoC6\pdl\middleware\ble/cy_ble_event_handler.c **** *    
 269:Generated_Source\PSoC6\pdl\middleware\ble/cy_ble_event_handler.c **** *  \param deviceAddress: The pointer to the BD address of
 270:Generated_Source\PSoC6\pdl\middleware\ble/cy_ble_event_handler.c **** *                        type #cy_stc_ble_gap_bd_addr_t.
 271:Generated_Source\PSoC6\pdl\middleware\ble/cy_ble_event_handler.c **** *
 272:Generated_Source\PSoC6\pdl\middleware\ble/cy_ble_event_handler.c **** *  \return
 273:Generated_Source\PSoC6\pdl\middleware\ble/cy_ble_event_handler.c **** *   A non-zero value when a device address is valid
 274:Generated_Source\PSoC6\pdl\middleware\ble/cy_ble_event_handler.c **** *
 275:Generated_Source\PSoC6\pdl\middleware\ble/cy_ble_event_handler.c **** ******************************************************************************/
 276:Generated_Source\PSoC6\pdl\middleware\ble/cy_ble_event_handler.c **** uint8_t Cy_BLE_IsDeviceAddressValid(const cy_stc_ble_gap_bd_addr_t *deviceAddress)
 277:Generated_Source\PSoC6\pdl\middleware\ble/cy_ble_event_handler.c **** {
 261              		.loc 1 277 0
 262              		.cfi_startproc
 263              		@ args = 0, pretend = 0, frame = 0
 264              		@ frame_needed = 0, uses_anonymous_args = 0
 265              		@ link register save eliminated.
 266              	.LVL26:
ARM GAS  C:\Users\hkmnt\AppData\Local\Temp\ccBdSSuH.s 			page 11


 278:Generated_Source\PSoC6\pdl\middleware\ble/cy_ble_event_handler.c ****     uint8_t addressValid = 0u;
 279:Generated_Source\PSoC6\pdl\middleware\ble/cy_ble_event_handler.c ****     uint32_t i;
 280:Generated_Source\PSoC6\pdl\middleware\ble/cy_ble_event_handler.c **** 
 281:Generated_Source\PSoC6\pdl\middleware\ble/cy_ble_event_handler.c ****     if(deviceAddress->type == CY_BLE_GAP_ADDR_TYPE_PUBLIC)
 267              		.loc 1 281 0
 268 0000 8379     		ldrb	r3, [r0, #6]	@ zero_extendqisi2
 269 0002 2BB1     		cbz	r3, .L31
 278:Generated_Source\PSoC6\pdl\middleware\ble/cy_ble_event_handler.c ****     uint8_t addressValid = 0u;
 270              		.loc 1 278 0
 271 0004 0020     		movs	r0, #0
 272              	.LVL27:
 273 0006 7047     		bx	lr
 274              	.LVL28:
 275              	.L30:
 282:Generated_Source\PSoC6\pdl\middleware\ble/cy_ble_event_handler.c ****     {
 283:Generated_Source\PSoC6\pdl\middleware\ble/cy_ble_event_handler.c ****         for(i = 0u; i < CY_BLE_GAP_BD_ADDR_SIZE; i++)
 284:Generated_Source\PSoC6\pdl\middleware\ble/cy_ble_event_handler.c ****         {
 285:Generated_Source\PSoC6\pdl\middleware\ble/cy_ble_event_handler.c ****             if(deviceAddress->bdAddr[i] != 0u)
 276              		.loc 1 285 0
 277 0008 C25C     		ldrb	r2, [r0, r3]	@ zero_extendqisi2
 278 000a 32B9     		cbnz	r2, .L32
 283:Generated_Source\PSoC6\pdl\middleware\ble/cy_ble_event_handler.c ****         {
 279              		.loc 1 283 0 discriminator 2
 280 000c 0133     		adds	r3, r3, #1
 281              	.LVL29:
 282 000e 00E0     		b	.L28
 283              	.LVL30:
 284              	.L31:
 285 0010 0023     		movs	r3, #0
 286              	.L28:
 287              	.LVL31:
 283:Generated_Source\PSoC6\pdl\middleware\ble/cy_ble_event_handler.c ****         {
 288              		.loc 1 283 0 is_stmt 0 discriminator 1
 289 0012 052B     		cmp	r3, #5
 290 0014 F8D9     		bls	.L30
 278:Generated_Source\PSoC6\pdl\middleware\ble/cy_ble_event_handler.c ****     uint8_t addressValid = 0u;
 291              		.loc 1 278 0 is_stmt 1
 292 0016 0020     		movs	r0, #0
 293              	.LVL32:
 294 0018 7047     		bx	lr
 295              	.LVL33:
 296              	.L32:
 286:Generated_Source\PSoC6\pdl\middleware\ble/cy_ble_event_handler.c ****             {
 287:Generated_Source\PSoC6\pdl\middleware\ble/cy_ble_event_handler.c ****                 addressValid = 1u;
 297              		.loc 1 287 0
 298 001a 0120     		movs	r0, #1
 299              	.LVL34:
 288:Generated_Source\PSoC6\pdl\middleware\ble/cy_ble_event_handler.c ****                 break;
 289:Generated_Source\PSoC6\pdl\middleware\ble/cy_ble_event_handler.c ****             }
 290:Generated_Source\PSoC6\pdl\middleware\ble/cy_ble_event_handler.c ****         }
 291:Generated_Source\PSoC6\pdl\middleware\ble/cy_ble_event_handler.c ****     }
 292:Generated_Source\PSoC6\pdl\middleware\ble/cy_ble_event_handler.c **** 
 293:Generated_Source\PSoC6\pdl\middleware\ble/cy_ble_event_handler.c ****     return(addressValid);
 294:Generated_Source\PSoC6\pdl\middleware\ble/cy_ble_event_handler.c **** }
 300              		.loc 1 294 0
 301 001c 7047     		bx	lr
 302              		.cfi_endproc
ARM GAS  C:\Users\hkmnt\AppData\Local\Temp\ccBdSSuH.s 			page 12


 303              	.LFE259:
 304              		.size	Cy_BLE_IsDeviceAddressValid, .-Cy_BLE_IsDeviceAddressValid
 305 001e 00BF     		.section	.text.Cy_BLE_EventHandler,"ax",%progbits
 306              		.align	2
 307              		.global	Cy_BLE_EventHandler
 308              		.thumb
 309              		.thumb_func
 310              		.type	Cy_BLE_EventHandler, %function
 311              	Cy_BLE_EventHandler:
 312              	.LFB260:
 295:Generated_Source\PSoC6\pdl\middleware\ble/cy_ble_event_handler.c **** 
 296:Generated_Source\PSoC6\pdl\middleware\ble/cy_ble_event_handler.c **** 
 297:Generated_Source\PSoC6\pdl\middleware\ble/cy_ble_event_handler.c **** /******************************************************************************
 298:Generated_Source\PSoC6\pdl\middleware\ble/cy_ble_event_handler.c **** * Function Name: Cy_BLE_EventHandler
 299:Generated_Source\PSoC6\pdl\middleware\ble/cy_ble_event_handler.c **** ***************************************************************************//**
 300:Generated_Source\PSoC6\pdl\middleware\ble/cy_ble_event_handler.c **** *
 301:Generated_Source\PSoC6\pdl\middleware\ble/cy_ble_event_handler.c **** *  Handles events from the BLE Stack.
 302:Generated_Source\PSoC6\pdl\middleware\ble/cy_ble_event_handler.c **** *
 303:Generated_Source\PSoC6\pdl\middleware\ble/cy_ble_event_handler.c **** *  \param event:   The event code.
 304:Generated_Source\PSoC6\pdl\middleware\ble/cy_ble_event_handler.c **** *  \param evParam: The event parameters.
 305:Generated_Source\PSoC6\pdl\middleware\ble/cy_ble_event_handler.c **** *
 306:Generated_Source\PSoC6\pdl\middleware\ble/cy_ble_event_handler.c **** * \return
 307:Generated_Source\PSoC6\pdl\middleware\ble/cy_ble_event_handler.c **** *  None.
 308:Generated_Source\PSoC6\pdl\middleware\ble/cy_ble_event_handler.c **** *
 309:Generated_Source\PSoC6\pdl\middleware\ble/cy_ble_event_handler.c **** ******************************************************************************/
 310:Generated_Source\PSoC6\pdl\middleware\ble/cy_ble_event_handler.c **** void Cy_BLE_EventHandler(cy_en_ble_event_t event,
 311:Generated_Source\PSoC6\pdl\middleware\ble/cy_ble_event_handler.c ****                          void *evParam)
 312:Generated_Source\PSoC6\pdl\middleware\ble/cy_ble_event_handler.c **** {
 313              		.loc 1 312 0
 314              		.cfi_startproc
 315              		@ args = 0, pretend = 0, frame = 40
 316              		@ frame_needed = 0, uses_anonymous_args = 0
 317              	.LVL35:
 318 0000 70B5     		push	{r4, r5, r6, lr}
 319              		.cfi_def_cfa_offset 16
 320              		.cfi_offset 4, -16
 321              		.cfi_offset 5, -12
 322              		.cfi_offset 6, -8
 323              		.cfi_offset 14, -4
 324 0002 8AB0     		sub	sp, sp, #40
 325              		.cfi_def_cfa_offset 56
 326 0004 0446     		mov	r4, r0
 327 0006 0D46     		mov	r5, r1
 313:Generated_Source\PSoC6\pdl\middleware\ble/cy_ble_event_handler.c ****     cy_ble_eventHandlerFlag |= CY_BLE_CALLBACK;
 328              		.loc 1 313 0
 329 0008 C14A     		ldr	r2, .L103
 330 000a 1378     		ldrb	r3, [r2]	@ zero_extendqisi2
 331 000c 43F00103 		orr	r3, r3, #1
 332 0010 1370     		strb	r3, [r2]
 314:Generated_Source\PSoC6\pdl\middleware\ble/cy_ble_event_handler.c **** 
 315:Generated_Source\PSoC6\pdl\middleware\ble/cy_ble_event_handler.c ****     /* Common Profile event handling */
 316:Generated_Source\PSoC6\pdl\middleware\ble/cy_ble_event_handler.c ****     switch(event)
 333              		.loc 1 316 0
 334 0012 44F20803 		movw	r3, #16392
 335 0016 9842     		cmp	r0, r3
 336 0018 00F01482 		beq	.L35
 337 001c 3AD8     		bhi	.L36
ARM GAS  C:\Users\hkmnt\AppData\Local\Temp\ccBdSSuH.s 			page 13


 338 001e 43F20103 		movw	r3, #12289
 339 0022 9842     		cmp	r0, r3
 340 0024 00F0DC80 		beq	.L37
 341 0028 19D8     		bhi	.L38
 342 002a 41F20203 		movw	r3, #4098
 343 002e 9842     		cmp	r0, r3
 344 0030 00F01581 		beq	.L39
 345 0034 08D8     		bhi	.L40
 346 0036 B0F5805F 		cmp	r0, #4096
 347 003a 74D0     		beq	.L41
 348 003c 41F20103 		movw	r3, #4097
 349 0040 9842     		cmp	r0, r3
 350 0042 00F00981 		beq	.L42
 351 0046 C9E2     		b	.L34
 352              	.L40:
 353 0048 41F20303 		movw	r3, #4099
 354 004c 9842     		cmp	r0, r3
 355 004e 00F03F81 		beq	.L43
 356 0052 42F20403 		movw	r3, #8196
 357 0056 9842     		cmp	r0, r3
 358 0058 00F0D480 		beq	.L44
 359 005c BEE2     		b	.L34
 360              	.L38:
 361 005e 44F20403 		movw	r3, #16388
 362 0062 9842     		cmp	r0, r3
 363 0064 00F04881 		beq	.L45
 364 0068 09D8     		bhi	.L46
 365 006a 43F21203 		movw	r3, #12306
 366 006e 9842     		cmp	r0, r3
 367 0070 00F0B680 		beq	.L37
 368 0074 43F21903 		movw	r3, #12313
 369 0078 9842     		cmp	r0, r3
 370 007a 4ED0     		beq	.L47
 371 007c AEE2     		b	.L34
 372              	.L46:
 373 007e 44F20603 		movw	r3, #16390
 374 0082 9842     		cmp	r0, r3
 375 0084 00F0E281 		beq	.L48
 376 0088 44F20703 		movw	r3, #16391
 377 008c 9842     		cmp	r0, r3
 378 008e 00F09281 		beq	.L49
 379 0092 A3E2     		b	.L34
 380              	.L36:
 381 0094 45F20C03 		movw	r3, #20492
 382 0098 9842     		cmp	r0, r3
 383 009a 00F05782 		beq	.L50
 384 009e 1BD8     		bhi	.L51
 385 00a0 45F20103 		movw	r3, #20481
 386 00a4 9842     		cmp	r0, r3
 387 00a6 00F01082 		beq	.L52
 388 00aa 0AD8     		bhi	.L53
 389 00ac 44F20A03 		movw	r3, #16394
 390 00b0 9842     		cmp	r0, r3
 391 00b2 00F07D81 		beq	.L54
 392 00b6 44F21003 		movw	r3, #16400
 393 00ba 9842     		cmp	r0, r3
 394 00bc 00F07B81 		beq	.L49
ARM GAS  C:\Users\hkmnt\AppData\Local\Temp\ccBdSSuH.s 			page 14


 395 00c0 8CE2     		b	.L34
 396              	.L53:
 397 00c2 45F20203 		movw	r3, #20482
 398 00c6 9842     		cmp	r0, r3
 399 00c8 00F01D82 		beq	.L55
 400 00cc 45F20303 		movw	r3, #20483
 401 00d0 9842     		cmp	r0, r3
 402 00d2 00F03182 		beq	.L56
 403 00d6 81E2     		b	.L34
 404              	.L51:
 405 00d8 45F21003 		movw	r3, #20496
 406 00dc 9842     		cmp	r0, r3
 407 00de 00F07082 		beq	.L57
 408 00e2 0AD8     		bhi	.L58
 409 00e4 45F20E03 		movw	r3, #20494
 410 00e8 9842     		cmp	r0, r3
 411 00ea 00F06482 		beq	.L59
 412 00ee 45F20F03 		movw	r3, #20495
 413 00f2 9842     		cmp	r0, r3
 414 00f4 00F06282 		beq	.L60
 415 00f8 70E2     		b	.L34
 416              	.L58:
 417 00fa 45F21703 		movw	r3, #20503
 418 00fe 9842     		cmp	r0, r3
 419 0100 00F06582 		beq	.L61
 420 0104 46F20103 		movw	r3, #24577
 421 0108 9842     		cmp	r0, r3
 422 010a 00F0DB81 		beq	.L62
 423 010e 45F21403 		movw	r3, #20500
 424 0112 9842     		cmp	r0, r3
 425 0114 40F06282 		bne	.L34
 426 0118 56E2     		b	.L63
 427              	.L47:
 317:Generated_Source\PSoC6\pdl\middleware\ble/cy_ble_event_handler.c ****     {
 318:Generated_Source\PSoC6\pdl\middleware\ble/cy_ble_event_handler.c ****         /**********************************************************
 319:Generated_Source\PSoC6\pdl\middleware\ble/cy_ble_event_handler.c ****          * General events
 320:Generated_Source\PSoC6\pdl\middleware\ble/cy_ble_event_handler.c ****          ************************************************************/
 321:Generated_Source\PSoC6\pdl\middleware\ble/cy_ble_event_handler.c ****         case CY_BLE_EVT_HCI_PKT_RCVD:
 322:Generated_Source\PSoC6\pdl\middleware\ble/cy_ble_event_handler.c ****         {
 323:Generated_Source\PSoC6\pdl\middleware\ble/cy_ble_event_handler.c ****             #if (CY_BLE_MODE_PROFILE) && (!CY_BLE_STACK_MODE_IPC)
 324:Generated_Source\PSoC6\pdl\middleware\ble/cy_ble_event_handler.c ****             cy_stc_ble_hci_tx_packet_info_t *HciPktParams = (cy_stc_ble_hci_tx_packet_info_t*)evPar
 325:Generated_Source\PSoC6\pdl\middleware\ble/cy_ble_event_handler.c ****             
 326:Generated_Source\PSoC6\pdl\middleware\ble/cy_ble_event_handler.c ****             Cy_BLE_HAL_SoftHciHostReceiveControllerPkt(HciPktParams);
 327:Generated_Source\PSoC6\pdl\middleware\ble/cy_ble_event_handler.c ****             #endif /* (CY_BLE_MODE_PROFILE) && (!CY_BLE_STACK_MODE_IPC) */
 328:Generated_Source\PSoC6\pdl\middleware\ble/cy_ble_event_handler.c **** 
 329:Generated_Source\PSoC6\pdl\middleware\ble/cy_ble_event_handler.c ****             /* Clear the CY_BLE_CALLBACK flag not to provide a handled event to the application */
 330:Generated_Source\PSoC6\pdl\middleware\ble/cy_ble_event_handler.c ****             cy_ble_eventHandlerFlag &= (uint8_t) ~CY_BLE_CALLBACK;
 428              		.loc 1 330 0
 429 011a 7D4A     		ldr	r2, .L103
 430 011c 1378     		ldrb	r3, [r2]	@ zero_extendqisi2
 431 011e 03F0FE03 		and	r3, r3, #254
 432 0122 1370     		strb	r3, [r2]
 331:Generated_Source\PSoC6\pdl\middleware\ble/cy_ble_event_handler.c ****         }
 332:Generated_Source\PSoC6\pdl\middleware\ble/cy_ble_event_handler.c ****         break;
 433              		.loc 1 332 0
 434 0124 5AE2     		b	.L34
 435              	.L41:
ARM GAS  C:\Users\hkmnt\AppData\Local\Temp\ccBdSSuH.s 			page 15


 333:Generated_Source\PSoC6\pdl\middleware\ble/cy_ble_event_handler.c ****         
 334:Generated_Source\PSoC6\pdl\middleware\ble/cy_ble_event_handler.c ****         case CY_BLE_EVT_STACK_ON:
 335:Generated_Source\PSoC6\pdl\middleware\ble/cy_ble_event_handler.c **** 
 336:Generated_Source\PSoC6\pdl\middleware\ble/cy_ble_event_handler.c ****             /* Set a device address  */
 337:Generated_Source\PSoC6\pdl\middleware\ble/cy_ble_event_handler.c ****             if(Cy_BLE_IsDeviceAddressValid(cy_ble_sflashDeviceAddress) != 0u)
 436              		.loc 1 337 0
 437 0126 7B4B     		ldr	r3, .L103+4
 438 0128 1E68     		ldr	r6, [r3]
 439 012a 3046     		mov	r0, r6
 440              	.LVL36:
 441 012c FFF7FEFF 		bl	Cy_BLE_IsDeviceAddressValid
 442              	.LVL37:
 443 0130 60B1     		cbz	r0, .L64
 338:Generated_Source\PSoC6\pdl\middleware\ble/cy_ble_event_handler.c ****             {
 339:Generated_Source\PSoC6\pdl\middleware\ble/cy_ble_event_handler.c ****                 (void)Cy_BLE_GAP_SetBdAddress(cy_ble_sflashDeviceAddress);
 444              		.loc 1 339 0
 445 0132 3046     		mov	r0, r6
 446 0134 FFF7FEFF 		bl	Cy_BLE_GAP_SetBdAddress
 447              	.LVL38:
 340:Generated_Source\PSoC6\pdl\middleware\ble/cy_ble_event_handler.c ****                 
 341:Generated_Source\PSoC6\pdl\middleware\ble/cy_ble_event_handler.c ****                 #if (CY_BLE_GAP_ROLE_PERIPHERAL || CY_BLE_GAP_ROLE_BROADCASTER)
 342:Generated_Source\PSoC6\pdl\middleware\ble/cy_ble_event_handler.c ****                 Cy_BLE_ChangeAdDeviceAddress(cy_ble_sflashDeviceAddress, 0u);
 448              		.loc 1 342 0
 449 0138 764E     		ldr	r6, .L103+4
 450 013a 0021     		movs	r1, #0
 451 013c 3068     		ldr	r0, [r6]
 452 013e FFF7FEFF 		bl	Cy_BLE_ChangeAdDeviceAddress
 453              	.LVL39:
 343:Generated_Source\PSoC6\pdl\middleware\ble/cy_ble_event_handler.c ****                 Cy_BLE_ChangeAdDeviceAddress(cy_ble_sflashDeviceAddress, 1u);
 454              		.loc 1 343 0
 455 0142 0121     		movs	r1, #1
 456 0144 3068     		ldr	r0, [r6]
 457 0146 FFF7FEFF 		bl	Cy_BLE_ChangeAdDeviceAddress
 458              	.LVL40:
 459 014a 37E0     		b	.L65
 460              	.L64:
 344:Generated_Source\PSoC6\pdl\middleware\ble/cy_ble_event_handler.c ****                 #endif /* CY_BLE_GAP_ROLE_PERIPHERAL || CY_BLE_GAP_ROLE_BROADCASTER */
 345:Generated_Source\PSoC6\pdl\middleware\ble/cy_ble_event_handler.c ****             }
 346:Generated_Source\PSoC6\pdl\middleware\ble/cy_ble_event_handler.c ****             else
 347:Generated_Source\PSoC6\pdl\middleware\ble/cy_ble_event_handler.c ****             {
 348:Generated_Source\PSoC6\pdl\middleware\ble/cy_ble_event_handler.c ****                 if(cy_ble_configPtr->params->siliconDeviceAddressEnabled != 0u)
 461              		.loc 1 348 0
 462 014c 724B     		ldr	r3, .L103+8
 463 014e 1A68     		ldr	r2, [r3]
 464 0150 936A     		ldr	r3, [r2, #40]
 465 0152 1B79     		ldrb	r3, [r3, #4]	@ zero_extendqisi2
 466 0154 1BB3     		cbz	r3, .L66
 467              	.LBB80:
 349:Generated_Source\PSoC6\pdl\middleware\ble/cy_ble_event_handler.c ****                 {
 350:Generated_Source\PSoC6\pdl\middleware\ble/cy_ble_event_handler.c ****                     uint32_t bdAddrLoc;
 351:Generated_Source\PSoC6\pdl\middleware\ble/cy_ble_event_handler.c ****                     bdAddrLoc = ((uint32_t)SFLASH->DIE_X & (uint32_t)CY_BLE_SFLASH_DIE_X_MASK) |
 468              		.loc 1 351 0
 469 0156 4FF0B051 		mov	r1, #369098752
 470 015a 91F80436 		ldrb	r3, [r1, #1540]	@ zero_extendqisi2
 471 015e 03F03F03 		and	r3, r3, #63
 352:Generated_Source\PSoC6\pdl\middleware\ble/cy_ble_event_handler.c ****                                 ((uint32_t)(((uint32_t)SFLASH->DIE_Y) & ((uint32_t)CY_BLE_SFLASH_DI
 472              		.loc 1 352 0
ARM GAS  C:\Users\hkmnt\AppData\Local\Temp\ccBdSSuH.s 			page 16


 473 0162 91F80506 		ldrb	r0, [r1, #1541]	@ zero_extendqisi2
 474 0166 00F03F00 		and	r0, r0, #63
 351:Generated_Source\PSoC6\pdl\middleware\ble/cy_ble_event_handler.c ****                                 ((uint32_t)(((uint32_t)SFLASH->DIE_Y) & ((uint32_t)CY_BLE_SFLASH_DI
 475              		.loc 1 351 0
 476 016a 43EA8013 		orr	r3, r3, r0, lsl #6
 353:Generated_Source\PSoC6\pdl\middleware\ble/cy_ble_event_handler.c ****                                  CY_BLE_SFLASH_DIE_X_BITS) |
 354:Generated_Source\PSoC6\pdl\middleware\ble/cy_ble_event_handler.c ****                                 ((uint32_t)(((uint32_t)SFLASH->DIE_WAFER) & ((uint32_t)CY_BLE_SFLAS
 477              		.loc 1 354 0
 478 016e 91F80306 		ldrb	r0, [r1, #1539]	@ zero_extendqisi2
 479 0172 00F01F00 		and	r0, r0, #31
 353:Generated_Source\PSoC6\pdl\middleware\ble/cy_ble_event_handler.c ****                                  CY_BLE_SFLASH_DIE_X_BITS) |
 480              		.loc 1 353 0
 481 0176 43EA0033 		orr	r3, r3, r0, lsl #12
 355:Generated_Source\PSoC6\pdl\middleware\ble/cy_ble_event_handler.c ****                                  CY_BLE_SFLASH_DIE_XY_BITS) |
 356:Generated_Source\PSoC6\pdl\middleware\ble/cy_ble_event_handler.c ****                                 ((uint32_t)(((uint32_t)SFLASH->DIE_LOT[0]) & ((uint32_t)CY_BLE_SFLA
 482              		.loc 1 356 0
 483 017a 91F80016 		ldrb	r1, [r1, #1536]	@ zero_extendqisi2
 484 017e 01F07F01 		and	r1, r1, #127
 351:Generated_Source\PSoC6\pdl\middleware\ble/cy_ble_event_handler.c ****                                 ((uint32_t)(((uint32_t)SFLASH->DIE_Y) & ((uint32_t)CY_BLE_SFLASH_DI
 485              		.loc 1 351 0
 486 0182 43EA4143 		orr	r3, r3, r1, lsl #17
 487              	.LVL41:
 357:Generated_Source\PSoC6\pdl\middleware\ble/cy_ble_event_handler.c ****                                  CY_BLE_SFLASH_DIE_XYWAFER_BITS);
 358:Generated_Source\PSoC6\pdl\middleware\ble/cy_ble_event_handler.c **** 
 359:Generated_Source\PSoC6\pdl\middleware\ble/cy_ble_event_handler.c ****                     cy_ble_configPtr->deviceAddress->bdAddr[0] = (uint8_t)bdAddrLoc;
 488              		.loc 1 359 0
 489 0186 126B     		ldr	r2, [r2, #48]
 490 0188 1370     		strb	r3, [r2]
 360:Generated_Source\PSoC6\pdl\middleware\ble/cy_ble_event_handler.c ****                     cy_ble_configPtr->deviceAddress->bdAddr[1] = (uint8_t)(bdAddrLoc >> 8u);
 491              		.loc 1 360 0
 492 018a 634A     		ldr	r2, .L103+8
 493 018c 1168     		ldr	r1, [r2]
 494 018e 096B     		ldr	r1, [r1, #48]
 495 0190 C3F30720 		ubfx	r0, r3, #8, #8
 496 0194 4870     		strb	r0, [r1, #1]
 361:Generated_Source\PSoC6\pdl\middleware\ble/cy_ble_event_handler.c ****                     cy_ble_configPtr->deviceAddress->bdAddr[2] = (uint8_t)(bdAddrLoc >> 16u);
 497              		.loc 1 361 0
 498 0196 1268     		ldr	r2, [r2]
 499 0198 126B     		ldr	r2, [r2, #48]
 500 019a 1B0C     		lsrs	r3, r3, #16
 501              	.LVL42:
 502 019c 9370     		strb	r3, [r2, #2]
 503              	.L66:
 504              	.LBE80:
 362:Generated_Source\PSoC6\pdl\middleware\ble/cy_ble_event_handler.c ****                 }
 363:Generated_Source\PSoC6\pdl\middleware\ble/cy_ble_event_handler.c ****                 (void)Cy_BLE_GAP_SetBdAddress(cy_ble_configPtr->deviceAddress);
 505              		.loc 1 363 0
 506 019e 5E4E     		ldr	r6, .L103+8
 507 01a0 3368     		ldr	r3, [r6]
 508 01a2 186B     		ldr	r0, [r3, #48]
 509 01a4 FFF7FEFF 		bl	Cy_BLE_GAP_SetBdAddress
 510              	.LVL43:
 364:Generated_Source\PSoC6\pdl\middleware\ble/cy_ble_event_handler.c **** 
 365:Generated_Source\PSoC6\pdl\middleware\ble/cy_ble_event_handler.c ****                 #if (CY_BLE_GAP_ROLE_PERIPHERAL || CY_BLE_GAP_ROLE_BROADCASTER)
 366:Generated_Source\PSoC6\pdl\middleware\ble/cy_ble_event_handler.c ****                 Cy_BLE_ChangeAdDeviceAddress(cy_ble_configPtr->deviceAddress, 0u);
 511              		.loc 1 366 0
 512 01a8 3368     		ldr	r3, [r6]
ARM GAS  C:\Users\hkmnt\AppData\Local\Temp\ccBdSSuH.s 			page 17


 513 01aa 0021     		movs	r1, #0
 514 01ac 186B     		ldr	r0, [r3, #48]
 515 01ae FFF7FEFF 		bl	Cy_BLE_ChangeAdDeviceAddress
 516              	.LVL44:
 367:Generated_Source\PSoC6\pdl\middleware\ble/cy_ble_event_handler.c ****                 Cy_BLE_ChangeAdDeviceAddress(cy_ble_configPtr->deviceAddress, 1u);
 517              		.loc 1 367 0
 518 01b2 3368     		ldr	r3, [r6]
 519 01b4 0121     		movs	r1, #1
 520 01b6 186B     		ldr	r0, [r3, #48]
 521 01b8 FFF7FEFF 		bl	Cy_BLE_ChangeAdDeviceAddress
 522              	.LVL45:
 523              	.L65:
 368:Generated_Source\PSoC6\pdl\middleware\ble/cy_ble_event_handler.c ****                 #endif /* CY_BLE_GAP_ROLE_PERIPHERAL || CY_BLE_GAP_ROLE_BROADCASTER */
 369:Generated_Source\PSoC6\pdl\middleware\ble/cy_ble_event_handler.c ****             }
 370:Generated_Source\PSoC6\pdl\middleware\ble/cy_ble_event_handler.c ****             
 371:Generated_Source\PSoC6\pdl\middleware\ble/cy_ble_event_handler.c ****             /* Set the device IO Capability  */
 372:Generated_Source\PSoC6\pdl\middleware\ble/cy_ble_event_handler.c ****             (void)Cy_BLE_GAP_SetIoCap((cy_en_ble_gap_iocap_t*)&cy_ble_configPtr->params->securityIo
 524              		.loc 1 372 0
 525 01bc 564B     		ldr	r3, .L103+8
 526 01be 1B68     		ldr	r3, [r3]
 527 01c0 986A     		ldr	r0, [r3, #40]
 528 01c2 0230     		adds	r0, r0, #2
 529 01c4 FFF7FEFF 		bl	Cy_BLE_GAP_SetIoCap
 530              	.LVL46:
 531              	.LBB81:
 373:Generated_Source\PSoC6\pdl\middleware\ble/cy_ble_event_handler.c ****             
 374:Generated_Source\PSoC6\pdl\middleware\ble/cy_ble_event_handler.c ****             /* Enable all 4.1 events and configured 4.2 events */  
 375:Generated_Source\PSoC6\pdl\middleware\ble/cy_ble_event_handler.c ****             {
 376:Generated_Source\PSoC6\pdl\middleware\ble/cy_ble_event_handler.c ****                 uint8_t leMask[CY_BLE_LE_MASK_LENGTH] = { CY_LO8(CY_BLE_LE_MASK),
 532              		.loc 1 376 0
 533 01c8 544A     		ldr	r2, .L103+12
 534 01ca 04AB     		add	r3, sp, #16
 535 01cc 1068     		ldr	r0, [r2]	@ unaligned
 536 01ce 5168     		ldr	r1, [r2, #4]	@ unaligned
 537 01d0 03C3     		stmia	r3!, {r0, r1}
 377:Generated_Source\PSoC6\pdl\middleware\ble/cy_ble_event_handler.c ****                                                           CY_HI8(CY_BLE_LE_MASK),0u,  0u, 0u, 0u, 0
 378:Generated_Source\PSoC6\pdl\middleware\ble/cy_ble_event_handler.c ****                 (void)Cy_BLE_SetLeEventMask(leMask);
 538              		.loc 1 378 0
 539 01d2 04A8     		add	r0, sp, #16
 540 01d4 FFF7FEFF 		bl	Cy_BLE_SetLeEventMask
 541              	.LVL47:
 542              	.LBE81:
 379:Generated_Source\PSoC6\pdl\middleware\ble/cy_ble_event_handler.c ****             }
 380:Generated_Source\PSoC6\pdl\middleware\ble/cy_ble_event_handler.c ****         
 381:Generated_Source\PSoC6\pdl\middleware\ble/cy_ble_event_handler.c ****             /* Update BLE state  */
 382:Generated_Source\PSoC6\pdl\middleware\ble/cy_ble_event_handler.c ****             Cy_BLE_SetState(CY_BLE_STATE_ON);
 543              		.loc 1 382 0
 544 01d8 0222     		movs	r2, #2
 545 01da 514B     		ldr	r3, .L103+16
 546 01dc 1A70     		strb	r2, [r3]
 383:Generated_Source\PSoC6\pdl\middleware\ble/cy_ble_event_handler.c ****             break;
 547              		.loc 1 383 0
 548 01de FDE1     		b	.L34
 549              	.LVL48:
 550              	.L37:
 384:Generated_Source\PSoC6\pdl\middleware\ble/cy_ble_event_handler.c **** 
 385:Generated_Source\PSoC6\pdl\middleware\ble/cy_ble_event_handler.c **** 
ARM GAS  C:\Users\hkmnt\AppData\Local\Temp\ccBdSSuH.s 			page 18


 386:Generated_Source\PSoC6\pdl\middleware\ble/cy_ble_event_handler.c ****         case CY_BLE_EVT_SOFT_RESET_COMPLETE:
 387:Generated_Source\PSoC6\pdl\middleware\ble/cy_ble_event_handler.c ****         case CY_BLE_EVT_STACK_SHUTDOWN_COMPLETE:
 388:Generated_Source\PSoC6\pdl\middleware\ble/cy_ble_event_handler.c ****             
 389:Generated_Source\PSoC6\pdl\middleware\ble/cy_ble_event_handler.c ****             /* Update BLE / Adv. / Scan states  */
 390:Generated_Source\PSoC6\pdl\middleware\ble/cy_ble_event_handler.c ****             Cy_BLE_SetState(CY_BLE_STATE_STOPPED);
 551              		.loc 1 390 0
 552 01e0 0023     		movs	r3, #0
 553 01e2 4F4A     		ldr	r2, .L103+16
 554 01e4 1370     		strb	r3, [r2]
 555              	.LVL49:
 556              	.LBB82:
 557              	.LBB83:
 558              		.file 2 "Generated_Source\\PSoC6\\pdl\\middleware\\ble\\cy_ble_gap.h"
   1:Generated_Source\PSoC6\pdl\middleware\ble/cy_ble_gap.h **** /***************************************************************************//**
   2:Generated_Source\PSoC6\pdl\middleware\ble/cy_ble_gap.h **** * \file cy_ble_gap.h
   3:Generated_Source\PSoC6\pdl\middleware\ble/cy_ble_gap.h **** * \version 2.60
   4:Generated_Source\PSoC6\pdl\middleware\ble/cy_ble_gap.h **** *
   5:Generated_Source\PSoC6\pdl\middleware\ble/cy_ble_gap.h **** * \brief
   6:Generated_Source\PSoC6\pdl\middleware\ble/cy_ble_gap.h **** *  Contains the prototypes and constants used in the BLE GAP profile.
   7:Generated_Source\PSoC6\pdl\middleware\ble/cy_ble_gap.h **** *
   8:Generated_Source\PSoC6\pdl\middleware\ble/cy_ble_gap.h **** ********************************************************************************
   9:Generated_Source\PSoC6\pdl\middleware\ble/cy_ble_gap.h **** * \copyright
  10:Generated_Source\PSoC6\pdl\middleware\ble/cy_ble_gap.h **** * Copyright 2017-2020, Cypress Semiconductor Corporation.  All rights reserved.
  11:Generated_Source\PSoC6\pdl\middleware\ble/cy_ble_gap.h **** * You may use this file only in accordance with the license, terms, conditions,
  12:Generated_Source\PSoC6\pdl\middleware\ble/cy_ble_gap.h **** * disclaimers, and limitations in the end user license agreement accompanying
  13:Generated_Source\PSoC6\pdl\middleware\ble/cy_ble_gap.h **** * the software package with which this file was provided.
  14:Generated_Source\PSoC6\pdl\middleware\ble/cy_ble_gap.h **** *******************************************************************************/
  15:Generated_Source\PSoC6\pdl\middleware\ble/cy_ble_gap.h **** 
  16:Generated_Source\PSoC6\pdl\middleware\ble/cy_ble_gap.h **** 
  17:Generated_Source\PSoC6\pdl\middleware\ble/cy_ble_gap.h **** #ifndef CY_BLE_GAP_H
  18:Generated_Source\PSoC6\pdl\middleware\ble/cy_ble_gap.h **** #define CY_BLE_GAP_H
  19:Generated_Source\PSoC6\pdl\middleware\ble/cy_ble_gap.h ****     
  20:Generated_Source\PSoC6\pdl\middleware\ble/cy_ble_gap.h **** #include "cy_ble_config.h"
  21:Generated_Source\PSoC6\pdl\middleware\ble/cy_ble_gap.h **** 
  22:Generated_Source\PSoC6\pdl\middleware\ble/cy_ble_gap.h **** /***************************************
  23:Generated_Source\PSoC6\pdl\middleware\ble/cy_ble_gap.h **** * BLE Stack includes
  24:Generated_Source\PSoC6\pdl\middleware\ble/cy_ble_gap.h **** ***************************************/
  25:Generated_Source\PSoC6\pdl\middleware\ble/cy_ble_gap.h **** #include "cy_ble_stack_gatt.h"    
  26:Generated_Source\PSoC6\pdl\middleware\ble/cy_ble_gap.h **** #include "cy_ble_stack_gap.h"
  27:Generated_Source\PSoC6\pdl\middleware\ble/cy_ble_gap.h **** #include "cy_ble_stack_gap_central.h"
  28:Generated_Source\PSoC6\pdl\middleware\ble/cy_ble_gap.h **** #include "cy_ble_stack_gap_peripheral.h"
  29:Generated_Source\PSoC6\pdl\middleware\ble/cy_ble_gap.h **** 
  30:Generated_Source\PSoC6\pdl\middleware\ble/cy_ble_gap.h **** /* C binding of definitions if building with C++ compiler */
  31:Generated_Source\PSoC6\pdl\middleware\ble/cy_ble_gap.h **** #ifdef __cplusplus
  32:Generated_Source\PSoC6\pdl\middleware\ble/cy_ble_gap.h **** extern "C" {
  33:Generated_Source\PSoC6\pdl\middleware\ble/cy_ble_gap.h **** #endif /* __cplusplus */
  34:Generated_Source\PSoC6\pdl\middleware\ble/cy_ble_gap.h **** 
  35:Generated_Source\PSoC6\pdl\middleware\ble/cy_ble_gap.h **** /***************************************
  36:Generated_Source\PSoC6\pdl\middleware\ble/cy_ble_gap.h **** * Conditional Compilation Parameters
  37:Generated_Source\PSoC6\pdl\middleware\ble/cy_ble_gap.h **** ***************************************/
  38:Generated_Source\PSoC6\pdl\middleware\ble/cy_ble_gap.h **** /**
  39:Generated_Source\PSoC6\pdl\middleware\ble/cy_ble_gap.h ****  * The BLE operation mode.
  40:Generated_Source\PSoC6\pdl\middleware\ble/cy_ble_gap.h ****  */
  41:Generated_Source\PSoC6\pdl\middleware\ble/cy_ble_gap.h **** #define CY_BLE_MODE                          (CY_BLE_CONFIG_MODE)
  42:Generated_Source\PSoC6\pdl\middleware\ble/cy_ble_gap.h **** 
  43:Generated_Source\PSoC6\pdl\middleware\ble/cy_ble_gap.h **** /** 
  44:Generated_Source\PSoC6\pdl\middleware\ble/cy_ble_gap.h ****  * Maximum number of BLE connections
ARM GAS  C:\Users\hkmnt\AppData\Local\Temp\ccBdSSuH.s 			page 19


  45:Generated_Source\PSoC6\pdl\middleware\ble/cy_ble_gap.h ****  * This parameter displays how many BLE connections (both Central and 
  46:Generated_Source\PSoC6\pdl\middleware\ble/cy_ble_gap.h ****  * Peripheral) are allowed. Valid range is from 1 to 4.
  47:Generated_Source\PSoC6\pdl\middleware\ble/cy_ble_gap.h ****  */
  48:Generated_Source\PSoC6\pdl\middleware\ble/cy_ble_gap.h **** #define CY_BLE_CONN_COUNT                    (CY_BLE_CONFIG_CONN_COUNT)
  49:Generated_Source\PSoC6\pdl\middleware\ble/cy_ble_gap.h ****  
  50:Generated_Source\PSoC6\pdl\middleware\ble/cy_ble_gap.h **** /**
  51:Generated_Source\PSoC6\pdl\middleware\ble/cy_ble_gap.h ****  * The GAP Role 
  52:Generated_Source\PSoC6\pdl\middleware\ble/cy_ble_gap.h ****  * The following defined mask can be used:
  53:Generated_Source\PSoC6\pdl\middleware\ble/cy_ble_gap.h ****  * CY_BLE_GAP_PERIPHERAL  (0x01u) - device operates as peripheral.
  54:Generated_Source\PSoC6\pdl\middleware\ble/cy_ble_gap.h ****  * CY_BLE_GAP_CENTRAL     (0x02u) - device operates as central. 
  55:Generated_Source\PSoC6\pdl\middleware\ble/cy_ble_gap.h ****  * CY_BLE_GAP_BROADCASTER (0x04u) - device operates as broadcaster.
  56:Generated_Source\PSoC6\pdl\middleware\ble/cy_ble_gap.h ****  * CY_BLE_GAP_OBSERVER    (0x08u) - device operates as observer.
  57:Generated_Source\PSoC6\pdl\middleware\ble/cy_ble_gap.h ****  * CY_BLE_GAP_HCI         (0x00u) - used when BLE operates in HCI mode.
  58:Generated_Source\PSoC6\pdl\middleware\ble/cy_ble_gap.h ****  */ 
  59:Generated_Source\PSoC6\pdl\middleware\ble/cy_ble_gap.h **** #define CY_BLE_GAP_ROLE                       (CY_BLE_CONFIG_GAP_ROLE)
  60:Generated_Source\PSoC6\pdl\middleware\ble/cy_ble_gap.h **** 
  61:Generated_Source\PSoC6\pdl\middleware\ble/cy_ble_gap.h **** /** The number of GAP Peripheral configurations structures */
  62:Generated_Source\PSoC6\pdl\middleware\ble/cy_ble_gap.h **** #define CY_BLE_GAP_PERIPHERAL_COUNT           (CY_BLE_CONFIG_GAP_PERIPHERAL_COUNT)
  63:Generated_Source\PSoC6\pdl\middleware\ble/cy_ble_gap.h **** 
  64:Generated_Source\PSoC6\pdl\middleware\ble/cy_ble_gap.h **** /** The number of GAP Broadcaster configurations structures */
  65:Generated_Source\PSoC6\pdl\middleware\ble/cy_ble_gap.h **** #define CY_BLE_GAP_BROADCASTER_COUNT          (CY_BLE_CONFIG_GAP_BROADCASTER_COUNT)
  66:Generated_Source\PSoC6\pdl\middleware\ble/cy_ble_gap.h **** 
  67:Generated_Source\PSoC6\pdl\middleware\ble/cy_ble_gap.h **** /** The number of GAP Central configurations structures */
  68:Generated_Source\PSoC6\pdl\middleware\ble/cy_ble_gap.h **** #define CY_BLE_GAP_CENTRAL_COUNT              (CY_BLE_CONFIG_GAP_CENTRAL_COUNT)
  69:Generated_Source\PSoC6\pdl\middleware\ble/cy_ble_gap.h **** 
  70:Generated_Source\PSoC6\pdl\middleware\ble/cy_ble_gap.h **** /** The number of GAP Observer configurations structures */
  71:Generated_Source\PSoC6\pdl\middleware\ble/cy_ble_gap.h **** #define CY_BLE_GAP_OBSERVER_COUNT             (CY_BLE_CONFIG_GAP_OBSERVER_COUNT)
  72:Generated_Source\PSoC6\pdl\middleware\ble/cy_ble_gap.h **** 
  73:Generated_Source\PSoC6\pdl\middleware\ble/cy_ble_gap.h **** /** The number of Security configurations structures */
  74:Generated_Source\PSoC6\pdl\middleware\ble/cy_ble_gap.h **** #define CY_BLE_AUTH_INFO_COUNT                (CY_BLE_CONFIG_AUTH_INFO_COUNT)
  75:Generated_Source\PSoC6\pdl\middleware\ble/cy_ble_gap.h **** 
  76:Generated_Source\PSoC6\pdl\middleware\ble/cy_ble_gap.h **** /** The Bonding Requirement structures */
  77:Generated_Source\PSoC6\pdl\middleware\ble/cy_ble_gap.h **** #define CY_BLE_BONDING_REQUIREMENT            (CY_BLE_CONFIG_BONDING_REQUIREMENT)
  78:Generated_Source\PSoC6\pdl\middleware\ble/cy_ble_gap.h **** 
  79:Generated_Source\PSoC6\pdl\middleware\ble/cy_ble_gap.h **** /** The GAP Role defines */
  80:Generated_Source\PSoC6\pdl\middleware\ble/cy_ble_gap.h **** #define CY_BLE_GAP_ROLE_PERIPHERAL            (0u != (CY_BLE_GAP_ROLE & CY_BLE_GAP_PERIPHERAL))
  81:Generated_Source\PSoC6\pdl\middleware\ble/cy_ble_gap.h **** #define CY_BLE_GAP_ROLE_CENTRAL               (0u != (CY_BLE_GAP_ROLE & CY_BLE_GAP_CENTRAL))
  82:Generated_Source\PSoC6\pdl\middleware\ble/cy_ble_gap.h **** #define CY_BLE_GAP_ROLE_OBSERVER              (0u != (CY_BLE_GAP_ROLE & CY_BLE_GAP_OBSERVER))
  83:Generated_Source\PSoC6\pdl\middleware\ble/cy_ble_gap.h **** #define CY_BLE_GAP_ROLE_BROADCASTER           (0u != (CY_BLE_GAP_ROLE & CY_BLE_GAP_BROADCASTER))
  84:Generated_Source\PSoC6\pdl\middleware\ble/cy_ble_gap.h **** 
  85:Generated_Source\PSoC6\pdl\middleware\ble/cy_ble_gap.h **** #define CY_BLE_GAPP_CONF_COUNT                (CY_BLE_GAP_PERIPHERAL_COUNT + CY_BLE_GAP_BROADCASTER
  86:Generated_Source\PSoC6\pdl\middleware\ble/cy_ble_gap.h **** #define CY_BLE_GAPC_CONF_COUNT                (CY_BLE_GAP_CENTRAL_COUNT + CY_BLE_GAP_OBSERVER_COUNT
  87:Generated_Source\PSoC6\pdl\middleware\ble/cy_ble_gap.h **** 
  88:Generated_Source\PSoC6\pdl\middleware\ble/cy_ble_gap.h **** /***************************************
  89:Generated_Source\PSoC6\pdl\middleware\ble/cy_ble_gap.h **** * Type Definitions
  90:Generated_Source\PSoC6\pdl\middleware\ble/cy_ble_gap.h **** ***************************************/
  91:Generated_Source\PSoC6\pdl\middleware\ble/cy_ble_gap.h **** 
  92:Generated_Source\PSoC6\pdl\middleware\ble/cy_ble_gap.h **** #if (CY_BLE_MODE_PROFILE)
  93:Generated_Source\PSoC6\pdl\middleware\ble/cy_ble_gap.h **** 
  94:Generated_Source\PSoC6\pdl\middleware\ble/cy_ble_gap.h **** /***************************************
  95:Generated_Source\PSoC6\pdl\middleware\ble/cy_ble_gap.h **** * Enumerated Types and Structures
  96:Generated_Source\PSoC6\pdl\middleware\ble/cy_ble_gap.h **** ***************************************/
  97:Generated_Source\PSoC6\pdl\middleware\ble/cy_ble_gap.h **** 
  98:Generated_Source\PSoC6\pdl\middleware\ble/cy_ble_gap.h **** /**
  99:Generated_Source\PSoC6\pdl\middleware\ble/cy_ble_gap.h ****  * \addtogroup group_ble_common_api_gap_definitions
 100:Generated_Source\PSoC6\pdl\middleware\ble/cy_ble_gap.h ****  * @{
 101:Generated_Source\PSoC6\pdl\middleware\ble/cy_ble_gap.h ****  */
ARM GAS  C:\Users\hkmnt\AppData\Local\Temp\ccBdSSuH.s 			page 20


 102:Generated_Source\PSoC6\pdl\middleware\ble/cy_ble_gap.h **** 
 103:Generated_Source\PSoC6\pdl\middleware\ble/cy_ble_gap.h **** /** BLE state machine type */
 104:Generated_Source\PSoC6\pdl\middleware\ble/cy_ble_gap.h **** typedef enum
 105:Generated_Source\PSoC6\pdl\middleware\ble/cy_ble_gap.h **** {
 106:Generated_Source\PSoC6\pdl\middleware\ble/cy_ble_gap.h ****     CY_BLE_STATE_STOPPED,                             /**< BLE is turned off */
 107:Generated_Source\PSoC6\pdl\middleware\ble/cy_ble_gap.h ****     CY_BLE_STATE_INITIALIZING,                        /**< Initializing state */
 108:Generated_Source\PSoC6\pdl\middleware\ble/cy_ble_gap.h ****     CY_BLE_STATE_ON,                                  /**< BLE is turned on */
 109:Generated_Source\PSoC6\pdl\middleware\ble/cy_ble_gap.h **** #if (CY_BLE_GAP_ROLE_CENTRAL)
 110:Generated_Source\PSoC6\pdl\middleware\ble/cy_ble_gap.h ****     CY_BLE_STATE_CONNECTING,                          /**< Connecting */
 111:Generated_Source\PSoC6\pdl\middleware\ble/cy_ble_gap.h **** #endif /* CY_BLE_GAP_ROLE_CENTRAL */
 112:Generated_Source\PSoC6\pdl\middleware\ble/cy_ble_gap.h **** } cy_en_ble_state_t;
 113:Generated_Source\PSoC6\pdl\middleware\ble/cy_ble_gap.h **** 
 114:Generated_Source\PSoC6\pdl\middleware\ble/cy_ble_gap.h **** 
 115:Generated_Source\PSoC6\pdl\middleware\ble/cy_ble_gap.h **** /** Scanning state machine type */
 116:Generated_Source\PSoC6\pdl\middleware\ble/cy_ble_gap.h **** typedef enum
 117:Generated_Source\PSoC6\pdl\middleware\ble/cy_ble_gap.h **** {
 118:Generated_Source\PSoC6\pdl\middleware\ble/cy_ble_gap.h ****     CY_BLE_SCAN_STATE_STOPPED,                        /**< Scanning is stopped */
 119:Generated_Source\PSoC6\pdl\middleware\ble/cy_ble_gap.h ****     CY_BLE_SCAN_STATE_SCAN_INITIATED,                 /**< Scanning is initiated */
 120:Generated_Source\PSoC6\pdl\middleware\ble/cy_ble_gap.h ****     CY_BLE_SCAN_STATE_SCANNING,                       /**< Scanning process */
 121:Generated_Source\PSoC6\pdl\middleware\ble/cy_ble_gap.h ****     CY_BLE_SCAN_STATE_STOP_INITIATED                  /**< Stop scanning is initiated */
 122:Generated_Source\PSoC6\pdl\middleware\ble/cy_ble_gap.h **** } cy_en_ble_scan_state_t;
 123:Generated_Source\PSoC6\pdl\middleware\ble/cy_ble_gap.h **** 
 124:Generated_Source\PSoC6\pdl\middleware\ble/cy_ble_gap.h **** /** Advertising state machine type */
 125:Generated_Source\PSoC6\pdl\middleware\ble/cy_ble_gap.h **** typedef enum
 126:Generated_Source\PSoC6\pdl\middleware\ble/cy_ble_gap.h **** {
 127:Generated_Source\PSoC6\pdl\middleware\ble/cy_ble_gap.h ****     CY_BLE_ADV_STATE_STOPPED,                         /**< Advertising is stopped */
 128:Generated_Source\PSoC6\pdl\middleware\ble/cy_ble_gap.h ****     CY_BLE_ADV_STATE_ADV_INITIATED,                   /**< Advertising is initiated */
 129:Generated_Source\PSoC6\pdl\middleware\ble/cy_ble_gap.h ****     CY_BLE_ADV_STATE_ADVERTISING,                     /**< Advertising process */
 130:Generated_Source\PSoC6\pdl\middleware\ble/cy_ble_gap.h ****     CY_BLE_ADV_STATE_STOP_INITIATED                   /**< Stop advertising is initiated */
 131:Generated_Source\PSoC6\pdl\middleware\ble/cy_ble_gap.h **** } cy_en_ble_adv_state_t;
 132:Generated_Source\PSoC6\pdl\middleware\ble/cy_ble_gap.h **** 
 133:Generated_Source\PSoC6\pdl\middleware\ble/cy_ble_gap.h **** /** Connection state machine type */
 134:Generated_Source\PSoC6\pdl\middleware\ble/cy_ble_gap.h **** typedef enum
 135:Generated_Source\PSoC6\pdl\middleware\ble/cy_ble_gap.h **** {
 136:Generated_Source\PSoC6\pdl\middleware\ble/cy_ble_gap.h ****     CY_BLE_CONN_STATE_DISCONNECTED,                   /**< Essentially idle state */
 137:Generated_Source\PSoC6\pdl\middleware\ble/cy_ble_gap.h ****     CY_BLE_CONN_STATE_CLIENT_DISCONNECTED_DISCOVERED, /**< Server is disconnected but discovered */
 138:Generated_Source\PSoC6\pdl\middleware\ble/cy_ble_gap.h ****     CY_BLE_CONN_STATE_CONNECTED,                      /**< Peer device is connected for this and fo
 139:Generated_Source\PSoC6\pdl\middleware\ble/cy_ble_gap.h ****     CY_BLE_CONN_STATE_CLIENT_SRVC_DISCOVERING,        /**< Server services are being discovered */
 140:Generated_Source\PSoC6\pdl\middleware\ble/cy_ble_gap.h ****     CY_BLE_CONN_STATE_CLIENT_INCL_DISCOVERING,        /**< Server included services are being disco
 141:Generated_Source\PSoC6\pdl\middleware\ble/cy_ble_gap.h ****     CY_BLE_CONN_STATE_CLIENT_CHAR_DISCOVERING,        /**< Server characteristics are being discove
 142:Generated_Source\PSoC6\pdl\middleware\ble/cy_ble_gap.h ****     CY_BLE_CONN_STATE_CLIENT_DESCR_DISCOVERING,       /**< Server char. descriptors are being disco
 143:Generated_Source\PSoC6\pdl\middleware\ble/cy_ble_gap.h ****     CY_BLE_CONN_STATE_CLIENT_DISCOVERED               /**< Server is discovered */
 144:Generated_Source\PSoC6\pdl\middleware\ble/cy_ble_gap.h **** } cy_en_ble_conn_state_t;
 145:Generated_Source\PSoC6\pdl\middleware\ble/cy_ble_gap.h **** 
 146:Generated_Source\PSoC6\pdl\middleware\ble/cy_ble_gap.h **** /** Structure with Generic Access Profile Service (GAPS) attribute handles */
 147:Generated_Source\PSoC6\pdl\middleware\ble/cy_ble_gap.h **** typedef struct
 148:Generated_Source\PSoC6\pdl\middleware\ble/cy_ble_gap.h **** {
 149:Generated_Source\PSoC6\pdl\middleware\ble/cy_ble_gap.h ****     /** Service handle*/
 150:Generated_Source\PSoC6\pdl\middleware\ble/cy_ble_gap.h ****     cy_ble_gatt_db_attr_handle_t serviceHandle;
 151:Generated_Source\PSoC6\pdl\middleware\ble/cy_ble_gap.h **** 
 152:Generated_Source\PSoC6\pdl\middleware\ble/cy_ble_gap.h ****     /** Handle of the GAPS Device Name Characteristic */
 153:Generated_Source\PSoC6\pdl\middleware\ble/cy_ble_gap.h ****     cy_ble_gatt_db_attr_handle_t deviceNameCharHandle;
 154:Generated_Source\PSoC6\pdl\middleware\ble/cy_ble_gap.h **** 
 155:Generated_Source\PSoC6\pdl\middleware\ble/cy_ble_gap.h ****     /** Handle of the GAPS Appearance Characteristic */
 156:Generated_Source\PSoC6\pdl\middleware\ble/cy_ble_gap.h ****     cy_ble_gatt_db_attr_handle_t appearanceCharHandle;
 157:Generated_Source\PSoC6\pdl\middleware\ble/cy_ble_gap.h **** 
 158:Generated_Source\PSoC6\pdl\middleware\ble/cy_ble_gap.h ****     /** Handle of the GAPS Peripheral Preferred Connection Parameters Characteristic */
ARM GAS  C:\Users\hkmnt\AppData\Local\Temp\ccBdSSuH.s 			page 21


 159:Generated_Source\PSoC6\pdl\middleware\ble/cy_ble_gap.h ****     cy_ble_gatt_db_attr_handle_t prefConnParamCharHandle;
 160:Generated_Source\PSoC6\pdl\middleware\ble/cy_ble_gap.h **** 
 161:Generated_Source\PSoC6\pdl\middleware\ble/cy_ble_gap.h ****     /** Handle of the GAPS Central Address Resolution characteristic */
 162:Generated_Source\PSoC6\pdl\middleware\ble/cy_ble_gap.h ****     cy_ble_gatt_db_attr_handle_t centralAddrResolutionCharHandle;
 163:Generated_Source\PSoC6\pdl\middleware\ble/cy_ble_gap.h **** 
 164:Generated_Source\PSoC6\pdl\middleware\ble/cy_ble_gap.h ****     /** Handle of the GAPS Resolvable Private Address Only characteristic */
 165:Generated_Source\PSoC6\pdl\middleware\ble/cy_ble_gap.h ****     cy_ble_gatt_db_attr_handle_t resolvablePrivateAddressOnly;
 166:Generated_Source\PSoC6\pdl\middleware\ble/cy_ble_gap.h **** } cy_stc_ble_gaps_t;
 167:Generated_Source\PSoC6\pdl\middleware\ble/cy_ble_gap.h **** 
 168:Generated_Source\PSoC6\pdl\middleware\ble/cy_ble_gap.h **** /** GAP Service characteristics server's GATT DB handles structure type */
 169:Generated_Source\PSoC6\pdl\middleware\ble/cy_ble_gap.h **** typedef struct
 170:Generated_Source\PSoC6\pdl\middleware\ble/cy_ble_gap.h **** {
 171:Generated_Source\PSoC6\pdl\middleware\ble/cy_ble_gap.h ****     /** Handle of the GAPS Device Name Characteristic */
 172:Generated_Source\PSoC6\pdl\middleware\ble/cy_ble_gap.h ****     cy_ble_gatt_db_attr_handle_t deviceNameCharHandle;
 173:Generated_Source\PSoC6\pdl\middleware\ble/cy_ble_gap.h **** 
 174:Generated_Source\PSoC6\pdl\middleware\ble/cy_ble_gap.h ****     /** Handle of the GAPS Appearance Characteristic */
 175:Generated_Source\PSoC6\pdl\middleware\ble/cy_ble_gap.h ****     cy_ble_gatt_db_attr_handle_t appearanceCharHandle;
 176:Generated_Source\PSoC6\pdl\middleware\ble/cy_ble_gap.h **** 
 177:Generated_Source\PSoC6\pdl\middleware\ble/cy_ble_gap.h ****     /** Handle of the GAPS Peripheral Privacy Flag Parameters Characteristic */
 178:Generated_Source\PSoC6\pdl\middleware\ble/cy_ble_gap.h ****     cy_ble_gatt_db_attr_handle_t periphPrivacyCharHandle;
 179:Generated_Source\PSoC6\pdl\middleware\ble/cy_ble_gap.h **** 
 180:Generated_Source\PSoC6\pdl\middleware\ble/cy_ble_gap.h ****     /** Handle of the GAPS Reconnection Address Characteristic */
 181:Generated_Source\PSoC6\pdl\middleware\ble/cy_ble_gap.h ****     cy_ble_gatt_db_attr_handle_t reconnAddrCharHandle;
 182:Generated_Source\PSoC6\pdl\middleware\ble/cy_ble_gap.h **** 
 183:Generated_Source\PSoC6\pdl\middleware\ble/cy_ble_gap.h ****     /** Handle of the GAPS Peripheral Preferred Connection Parameters Characteristic */
 184:Generated_Source\PSoC6\pdl\middleware\ble/cy_ble_gap.h ****     cy_ble_gatt_db_attr_handle_t prefConnParamCharHandle;
 185:Generated_Source\PSoC6\pdl\middleware\ble/cy_ble_gap.h **** 
 186:Generated_Source\PSoC6\pdl\middleware\ble/cy_ble_gap.h ****     /** Handle of the GAPS Central Address Resolution characteristic */
 187:Generated_Source\PSoC6\pdl\middleware\ble/cy_ble_gap.h ****     cy_ble_gatt_db_attr_handle_t centralAddrResolutionCharHandle;
 188:Generated_Source\PSoC6\pdl\middleware\ble/cy_ble_gap.h **** 
 189:Generated_Source\PSoC6\pdl\middleware\ble/cy_ble_gap.h ****     /** Handle of the GAPS Resolvable Private Address Only characteristic */
 190:Generated_Source\PSoC6\pdl\middleware\ble/cy_ble_gap.h ****     cy_ble_gatt_db_attr_handle_t resolvablePrivateAddressOnly;
 191:Generated_Source\PSoC6\pdl\middleware\ble/cy_ble_gap.h **** }cy_stc_ble_gapc_t;
 192:Generated_Source\PSoC6\pdl\middleware\ble/cy_ble_gap.h **** 
 193:Generated_Source\PSoC6\pdl\middleware\ble/cy_ble_gap.h **** /* Stack mode defines */
 194:Generated_Source\PSoC6\pdl\middleware\ble/cy_ble_gap.h **** 
 195:Generated_Source\PSoC6\pdl\middleware\ble/cy_ble_gap.h **** /** Advertisement SIG assigned numbers */
 196:Generated_Source\PSoC6\pdl\middleware\ble/cy_ble_gap.h **** typedef enum
 197:Generated_Source\PSoC6\pdl\middleware\ble/cy_ble_gap.h **** {
 198:Generated_Source\PSoC6\pdl\middleware\ble/cy_ble_gap.h ****     /** Flags */
 199:Generated_Source\PSoC6\pdl\middleware\ble/cy_ble_gap.h ****     CY_BLE_GAP_ADV_FLAGS = 0x01u,
 200:Generated_Source\PSoC6\pdl\middleware\ble/cy_ble_gap.h **** 
 201:Generated_Source\PSoC6\pdl\middleware\ble/cy_ble_gap.h ****     /** Incomplete List of 16-bit Service Class UUIDs */
 202:Generated_Source\PSoC6\pdl\middleware\ble/cy_ble_gap.h ****     CY_BLE_GAP_ADV_INCOMPL_16UUID,
 203:Generated_Source\PSoC6\pdl\middleware\ble/cy_ble_gap.h **** 
 204:Generated_Source\PSoC6\pdl\middleware\ble/cy_ble_gap.h ****     /** Complete List of 16-bit Service Class UUIDs */
 205:Generated_Source\PSoC6\pdl\middleware\ble/cy_ble_gap.h ****     CY_BLE_GAP_ADV_COMPL_16UUID,
 206:Generated_Source\PSoC6\pdl\middleware\ble/cy_ble_gap.h **** 
 207:Generated_Source\PSoC6\pdl\middleware\ble/cy_ble_gap.h ****     /** Incomplete List of 32-bit Service Class UUIDs */
 208:Generated_Source\PSoC6\pdl\middleware\ble/cy_ble_gap.h ****     CY_BLE_GAP_ADV_INCOMPL_32_UUID,
 209:Generated_Source\PSoC6\pdl\middleware\ble/cy_ble_gap.h **** 
 210:Generated_Source\PSoC6\pdl\middleware\ble/cy_ble_gap.h ****     /** Complete List of 32-bit Service Class UUIDs */
 211:Generated_Source\PSoC6\pdl\middleware\ble/cy_ble_gap.h ****     CY_BLE_GAP_ADV_COMPL_32_UUID,
 212:Generated_Source\PSoC6\pdl\middleware\ble/cy_ble_gap.h **** 
 213:Generated_Source\PSoC6\pdl\middleware\ble/cy_ble_gap.h ****     /** Incomplete List of 128-bit Service Class UUIDs */
 214:Generated_Source\PSoC6\pdl\middleware\ble/cy_ble_gap.h ****     CY_BLE_GAP_ADV_INCOMPL_128_UUID,
 215:Generated_Source\PSoC6\pdl\middleware\ble/cy_ble_gap.h **** 
ARM GAS  C:\Users\hkmnt\AppData\Local\Temp\ccBdSSuH.s 			page 22


 216:Generated_Source\PSoC6\pdl\middleware\ble/cy_ble_gap.h ****     /** Complete List of 128-bit Service Class UUIDs */
 217:Generated_Source\PSoC6\pdl\middleware\ble/cy_ble_gap.h ****     CY_BLE_GAP_ADV_COMPL_128_UUID,
 218:Generated_Source\PSoC6\pdl\middleware\ble/cy_ble_gap.h **** 
 219:Generated_Source\PSoC6\pdl\middleware\ble/cy_ble_gap.h ****     /** Shortened Local Name */
 220:Generated_Source\PSoC6\pdl\middleware\ble/cy_ble_gap.h ****     CY_BLE_GAP_ADV_SHORT_NAME,
 221:Generated_Source\PSoC6\pdl\middleware\ble/cy_ble_gap.h **** 
 222:Generated_Source\PSoC6\pdl\middleware\ble/cy_ble_gap.h ****     /** Complete Local Name */
 223:Generated_Source\PSoC6\pdl\middleware\ble/cy_ble_gap.h ****     CY_BLE_GAP_ADV_COMPL_NAME,
 224:Generated_Source\PSoC6\pdl\middleware\ble/cy_ble_gap.h **** 
 225:Generated_Source\PSoC6\pdl\middleware\ble/cy_ble_gap.h ****     /** Tx Power Level */
 226:Generated_Source\PSoC6\pdl\middleware\ble/cy_ble_gap.h ****     CY_BLE_GAP_ADV_TX_PWR_LVL,
 227:Generated_Source\PSoC6\pdl\middleware\ble/cy_ble_gap.h **** 
 228:Generated_Source\PSoC6\pdl\middleware\ble/cy_ble_gap.h ****     /** Class of Device */
 229:Generated_Source\PSoC6\pdl\middleware\ble/cy_ble_gap.h ****     CY_BLE_GAP_ADV_CLASS_OF_DEVICE = 0x0Du,
 230:Generated_Source\PSoC6\pdl\middleware\ble/cy_ble_gap.h **** 
 231:Generated_Source\PSoC6\pdl\middleware\ble/cy_ble_gap.h ****     /** Simple Pairing Hash C */
 232:Generated_Source\PSoC6\pdl\middleware\ble/cy_ble_gap.h ****     CY_BLE_GAP_ADV_SMPL_PAIR_HASH_C,
 233:Generated_Source\PSoC6\pdl\middleware\ble/cy_ble_gap.h **** 
 234:Generated_Source\PSoC6\pdl\middleware\ble/cy_ble_gap.h ****     /** Simple Pairing Randomizer R */
 235:Generated_Source\PSoC6\pdl\middleware\ble/cy_ble_gap.h ****     CY_BLE_GAP_ADV_SMPL_PAIR_RANDOM_R,
 236:Generated_Source\PSoC6\pdl\middleware\ble/cy_ble_gap.h **** 
 237:Generated_Source\PSoC6\pdl\middleware\ble/cy_ble_gap.h ****     /** Device ID*/
 238:Generated_Source\PSoC6\pdl\middleware\ble/cy_ble_gap.h ****     CY_BLE_GAP_ADV_DEVICE_ID,
 239:Generated_Source\PSoC6\pdl\middleware\ble/cy_ble_gap.h **** 
 240:Generated_Source\PSoC6\pdl\middleware\ble/cy_ble_gap.h ****     /** Security Manager TK Value */
 241:Generated_Source\PSoC6\pdl\middleware\ble/cy_ble_gap.h ****     CY_BLE_GAP_ADV_SCRT_MNGR_TK_VAL = 0x10u,
 242:Generated_Source\PSoC6\pdl\middleware\ble/cy_ble_gap.h **** 
 243:Generated_Source\PSoC6\pdl\middleware\ble/cy_ble_gap.h ****     /** Security Manager Out of Band Flags */
 244:Generated_Source\PSoC6\pdl\middleware\ble/cy_ble_gap.h ****     CY_BLE_GAP_ADV_SCRT_MNGR_OOB_FLAGS,
 245:Generated_Source\PSoC6\pdl\middleware\ble/cy_ble_gap.h **** 
 246:Generated_Source\PSoC6\pdl\middleware\ble/cy_ble_gap.h ****     /** Slave Connection Interval Range */
 247:Generated_Source\PSoC6\pdl\middleware\ble/cy_ble_gap.h ****     CY_BLE_GAP_ADV_SLAVE_CONN_INTRV_RANGE,
 248:Generated_Source\PSoC6\pdl\middleware\ble/cy_ble_gap.h **** 
 249:Generated_Source\PSoC6\pdl\middleware\ble/cy_ble_gap.h ****     /** List of 16-bit Service Solicitation UUIDs */
 250:Generated_Source\PSoC6\pdl\middleware\ble/cy_ble_gap.h ****     CY_BLE_GAP_ADV_SOLICIT_16UUID = 0x14u,
 251:Generated_Source\PSoC6\pdl\middleware\ble/cy_ble_gap.h **** 
 252:Generated_Source\PSoC6\pdl\middleware\ble/cy_ble_gap.h ****     /** List of 128-bit Service Solicitation UUIDs */
 253:Generated_Source\PSoC6\pdl\middleware\ble/cy_ble_gap.h ****     CY_BLE_GAP_ADV_SOLICIT_128UUID,
 254:Generated_Source\PSoC6\pdl\middleware\ble/cy_ble_gap.h **** 
 255:Generated_Source\PSoC6\pdl\middleware\ble/cy_ble_gap.h ****     /** Service Data - 16-bit UUID */
 256:Generated_Source\PSoC6\pdl\middleware\ble/cy_ble_gap.h ****     CY_BLE_GAP_ADV_SRVC_DATA_16UUID,
 257:Generated_Source\PSoC6\pdl\middleware\ble/cy_ble_gap.h **** 
 258:Generated_Source\PSoC6\pdl\middleware\ble/cy_ble_gap.h ****     /** Public Target Address */
 259:Generated_Source\PSoC6\pdl\middleware\ble/cy_ble_gap.h ****     CY_BLE_GAP_ADV_PUBLIC_TARGET_ADDR,
 260:Generated_Source\PSoC6\pdl\middleware\ble/cy_ble_gap.h **** 
 261:Generated_Source\PSoC6\pdl\middleware\ble/cy_ble_gap.h ****     /** Random Target Address */
 262:Generated_Source\PSoC6\pdl\middleware\ble/cy_ble_gap.h ****     CY_BLE_GAP_ADV_RANDOM_TARGET_ADDR,
 263:Generated_Source\PSoC6\pdl\middleware\ble/cy_ble_gap.h **** 
 264:Generated_Source\PSoC6\pdl\middleware\ble/cy_ble_gap.h ****     /** Appearance */
 265:Generated_Source\PSoC6\pdl\middleware\ble/cy_ble_gap.h ****     CY_BLE_GAP_ADV_APPEARANCE,
 266:Generated_Source\PSoC6\pdl\middleware\ble/cy_ble_gap.h **** 
 267:Generated_Source\PSoC6\pdl\middleware\ble/cy_ble_gap.h ****     /** Advertising Interval */
 268:Generated_Source\PSoC6\pdl\middleware\ble/cy_ble_gap.h ****     CY_BLE_GAP_ADV_ADVERT_INTERVAL,
 269:Generated_Source\PSoC6\pdl\middleware\ble/cy_ble_gap.h **** 
 270:Generated_Source\PSoC6\pdl\middleware\ble/cy_ble_gap.h ****     /** LE Bluetooth Device Address */
 271:Generated_Source\PSoC6\pdl\middleware\ble/cy_ble_gap.h ****     CY_BLE_GAP_ADV_LE_BT_DEVICE_ADDR,
 272:Generated_Source\PSoC6\pdl\middleware\ble/cy_ble_gap.h **** 
ARM GAS  C:\Users\hkmnt\AppData\Local\Temp\ccBdSSuH.s 			page 23


 273:Generated_Source\PSoC6\pdl\middleware\ble/cy_ble_gap.h ****     /** LE Role */
 274:Generated_Source\PSoC6\pdl\middleware\ble/cy_ble_gap.h ****     CY_BLE_GAP_ADV_LE_ROLE,
 275:Generated_Source\PSoC6\pdl\middleware\ble/cy_ble_gap.h **** 
 276:Generated_Source\PSoC6\pdl\middleware\ble/cy_ble_gap.h ****     /** Simple Pairing Hash C-256 */
 277:Generated_Source\PSoC6\pdl\middleware\ble/cy_ble_gap.h ****     CY_BLE_GAP_ADV_SMPL_PAIR_HASH_C256,
 278:Generated_Source\PSoC6\pdl\middleware\ble/cy_ble_gap.h **** 
 279:Generated_Source\PSoC6\pdl\middleware\ble/cy_ble_gap.h ****     /** Simple Pairing Randomizer R-256 */
 280:Generated_Source\PSoC6\pdl\middleware\ble/cy_ble_gap.h ****     CY_BLE_GAP_ADV_SMPL_PAIR_RANDOM_R256,
 281:Generated_Source\PSoC6\pdl\middleware\ble/cy_ble_gap.h **** 
 282:Generated_Source\PSoC6\pdl\middleware\ble/cy_ble_gap.h ****     /** List of 32-bit Service Solicitation UUIDs */
 283:Generated_Source\PSoC6\pdl\middleware\ble/cy_ble_gap.h ****     CY_BLE_GAP_ADV_SOLICIT_32UUID,
 284:Generated_Source\PSoC6\pdl\middleware\ble/cy_ble_gap.h **** 
 285:Generated_Source\PSoC6\pdl\middleware\ble/cy_ble_gap.h ****     /** Service Data - 32-bit UUID */
 286:Generated_Source\PSoC6\pdl\middleware\ble/cy_ble_gap.h ****     CY_BLE_GAP_ADV_SRVC_DATA_32UUID,
 287:Generated_Source\PSoC6\pdl\middleware\ble/cy_ble_gap.h **** 
 288:Generated_Source\PSoC6\pdl\middleware\ble/cy_ble_gap.h ****     /** Service Data - 128-bit UUID */
 289:Generated_Source\PSoC6\pdl\middleware\ble/cy_ble_gap.h ****     CY_BLE_GAP_ADV_SRVC_DATA_128UUID,
 290:Generated_Source\PSoC6\pdl\middleware\ble/cy_ble_gap.h **** 
 291:Generated_Source\PSoC6\pdl\middleware\ble/cy_ble_gap.h ****     /** 3D Information Data */
 292:Generated_Source\PSoC6\pdl\middleware\ble/cy_ble_gap.h ****     CY_BLE_GAP_ADV_3D_INFO_DATA = 0x3D,
 293:Generated_Source\PSoC6\pdl\middleware\ble/cy_ble_gap.h **** 
 294:Generated_Source\PSoC6\pdl\middleware\ble/cy_ble_gap.h ****     /** Manufacturer Specific Data */
 295:Generated_Source\PSoC6\pdl\middleware\ble/cy_ble_gap.h ****     CY_BLE_GAP_ADV_MANUFACTURER_SPECIFIC_DATA = 0xFF
 296:Generated_Source\PSoC6\pdl\middleware\ble/cy_ble_gap.h **** }cy_en_ble_gap_adv_assign_numbers_t;
 297:Generated_Source\PSoC6\pdl\middleware\ble/cy_ble_gap.h **** 
 298:Generated_Source\PSoC6\pdl\middleware\ble/cy_ble_gap.h **** /** GAPP advertising configuration parameters structure */
 299:Generated_Source\PSoC6\pdl\middleware\ble/cy_ble_gap.h **** typedef struct
 300:Generated_Source\PSoC6\pdl\middleware\ble/cy_ble_gap.h **** {
 301:Generated_Source\PSoC6\pdl\middleware\ble/cy_ble_gap.h ****     /** The minimum interval for fast advertising the data and establishing the LE Connection */
 302:Generated_Source\PSoC6\pdl\middleware\ble/cy_ble_gap.h ****     uint16_t fastAdvIntervalMin;
 303:Generated_Source\PSoC6\pdl\middleware\ble/cy_ble_gap.h **** 
 304:Generated_Source\PSoC6\pdl\middleware\ble/cy_ble_gap.h ****     /** The maximum interval for fast advertising the data and establishing the LE Connection */
 305:Generated_Source\PSoC6\pdl\middleware\ble/cy_ble_gap.h ****     uint16_t fastAdvIntervalMax;
 306:Generated_Source\PSoC6\pdl\middleware\ble/cy_ble_gap.h **** 
 307:Generated_Source\PSoC6\pdl\middleware\ble/cy_ble_gap.h ****     /** The timeout value of  fast advertising with fast advertising interval parameters */
 308:Generated_Source\PSoC6\pdl\middleware\ble/cy_ble_gap.h ****     uint16_t fastAdvTimeOut;
 309:Generated_Source\PSoC6\pdl\middleware\ble/cy_ble_gap.h **** 
 310:Generated_Source\PSoC6\pdl\middleware\ble/cy_ble_gap.h ****     /** Slow advertising enable */
 311:Generated_Source\PSoC6\pdl\middleware\ble/cy_ble_gap.h ****     uint8_t  slowAdvEnable;
 312:Generated_Source\PSoC6\pdl\middleware\ble/cy_ble_gap.h **** 
 313:Generated_Source\PSoC6\pdl\middleware\ble/cy_ble_gap.h ****     /** The minimum interval for slow advertising the data and establishing the LE Connection */
 314:Generated_Source\PSoC6\pdl\middleware\ble/cy_ble_gap.h ****     uint16_t slowAdvIntervalMin;
 315:Generated_Source\PSoC6\pdl\middleware\ble/cy_ble_gap.h **** 
 316:Generated_Source\PSoC6\pdl\middleware\ble/cy_ble_gap.h ****     /** The maximum interval for slow  advertising the data and establishing the LE Connection */
 317:Generated_Source\PSoC6\pdl\middleware\ble/cy_ble_gap.h ****     uint16_t slowAdvIntervalMax;
 318:Generated_Source\PSoC6\pdl\middleware\ble/cy_ble_gap.h **** 
 319:Generated_Source\PSoC6\pdl\middleware\ble/cy_ble_gap.h ****     /** The timeout value of slow advertising with slow advertising interval parameters */
 320:Generated_Source\PSoC6\pdl\middleware\ble/cy_ble_gap.h ****     uint16_t slowAdvTimeOut;
 321:Generated_Source\PSoC6\pdl\middleware\ble/cy_ble_gap.h **** }cy_stc_ble_gapp_adv_params_t;
 322:Generated_Source\PSoC6\pdl\middleware\ble/cy_ble_gap.h **** 
 323:Generated_Source\PSoC6\pdl\middleware\ble/cy_ble_gap.h **** /** GAPC advertising configuration parameters structure */
 324:Generated_Source\PSoC6\pdl\middleware\ble/cy_ble_gap.h **** typedef struct
 325:Generated_Source\PSoC6\pdl\middleware\ble/cy_ble_gap.h **** {
 326:Generated_Source\PSoC6\pdl\middleware\ble/cy_ble_gap.h ****     /** The scan interval when operating in Fast connection */
 327:Generated_Source\PSoC6\pdl\middleware\ble/cy_ble_gap.h ****     uint16_t fastScanInterval;
 328:Generated_Source\PSoC6\pdl\middleware\ble/cy_ble_gap.h **** 
 329:Generated_Source\PSoC6\pdl\middleware\ble/cy_ble_gap.h ****     /** Defines the scan window when operating in Fast connection */
ARM GAS  C:\Users\hkmnt\AppData\Local\Temp\ccBdSSuH.s 			page 24


 330:Generated_Source\PSoC6\pdl\middleware\ble/cy_ble_gap.h ****     uint16_t fastScanWindow;
 331:Generated_Source\PSoC6\pdl\middleware\ble/cy_ble_gap.h **** 
 332:Generated_Source\PSoC6\pdl\middleware\ble/cy_ble_gap.h ****     /** The timeout value of scanning with fast scan parameters */
 333:Generated_Source\PSoC6\pdl\middleware\ble/cy_ble_gap.h ****     uint16_t fastScanTimeOut;
 334:Generated_Source\PSoC6\pdl\middleware\ble/cy_ble_gap.h **** 
 335:Generated_Source\PSoC6\pdl\middleware\ble/cy_ble_gap.h ****     /** Slow scan enable/disable */
 336:Generated_Source\PSoC6\pdl\middleware\ble/cy_ble_gap.h ****     uint8_t  slowScanEnabled;
 337:Generated_Source\PSoC6\pdl\middleware\ble/cy_ble_gap.h **** 
 338:Generated_Source\PSoC6\pdl\middleware\ble/cy_ble_gap.h ****     /** The scan interval when operating in Slow connection */
 339:Generated_Source\PSoC6\pdl\middleware\ble/cy_ble_gap.h ****     uint16_t slowScanInterval;
 340:Generated_Source\PSoC6\pdl\middleware\ble/cy_ble_gap.h **** 
 341:Generated_Source\PSoC6\pdl\middleware\ble/cy_ble_gap.h ****     /** Defines the scan window when operating in Slow connection */
 342:Generated_Source\PSoC6\pdl\middleware\ble/cy_ble_gap.h ****     uint16_t slowScanWindow;
 343:Generated_Source\PSoC6\pdl\middleware\ble/cy_ble_gap.h **** 
 344:Generated_Source\PSoC6\pdl\middleware\ble/cy_ble_gap.h ****     /** The timeout value of scanning with Slow scan parameters */
 345:Generated_Source\PSoC6\pdl\middleware\ble/cy_ble_gap.h ****     uint16_t slowScanTimeOut;
 346:Generated_Source\PSoC6\pdl\middleware\ble/cy_ble_gap.h **** 
 347:Generated_Source\PSoC6\pdl\middleware\ble/cy_ble_gap.h ****     /** The minimum permissible connection time value to be used during a connection event */
 348:Generated_Source\PSoC6\pdl\middleware\ble/cy_ble_gap.h ****     uint16_t gapcConnectionIntervalMin;
 349:Generated_Source\PSoC6\pdl\middleware\ble/cy_ble_gap.h **** 
 350:Generated_Source\PSoC6\pdl\middleware\ble/cy_ble_gap.h ****     /** The maximum permissible connection time value to be used during a connection event */
 351:Generated_Source\PSoC6\pdl\middleware\ble/cy_ble_gap.h ****     uint16_t gapcConnectionIntervalMax;
 352:Generated_Source\PSoC6\pdl\middleware\ble/cy_ble_gap.h **** 
 353:Generated_Source\PSoC6\pdl\middleware\ble/cy_ble_gap.h ****     /** Defines the maximum time between two received Data Packet PDUs before
 354:Generated_Source\PSoC6\pdl\middleware\ble/cy_ble_gap.h ****      *  the connection is considered lost */
 355:Generated_Source\PSoC6\pdl\middleware\ble/cy_ble_gap.h ****     uint16_t gapcConnectionSlaveLatency;
 356:Generated_Source\PSoC6\pdl\middleware\ble/cy_ble_gap.h **** 
 357:Generated_Source\PSoC6\pdl\middleware\ble/cy_ble_gap.h ****     /** Defines the LE link supervision timeout interval */
 358:Generated_Source\PSoC6\pdl\middleware\ble/cy_ble_gap.h ****     uint16_t gapcConnectionTimeOut;
 359:Generated_Source\PSoC6\pdl\middleware\ble/cy_ble_gap.h **** }cy_stc_ble_gapc_scan_params_t;
 360:Generated_Source\PSoC6\pdl\middleware\ble/cy_ble_gap.h **** 
 361:Generated_Source\PSoC6\pdl\middleware\ble/cy_ble_gap.h **** /** Store BLE Application Data parameter into flash */
 362:Generated_Source\PSoC6\pdl\middleware\ble/cy_ble_gap.h **** typedef struct
 363:Generated_Source\PSoC6\pdl\middleware\ble/cy_ble_gap.h **** {
 364:Generated_Source\PSoC6\pdl\middleware\ble/cy_ble_gap.h ****     /** Source buffer */
 365:Generated_Source\PSoC6\pdl\middleware\ble/cy_ble_gap.h ****     const uint8_t *srcBuff;
 366:Generated_Source\PSoC6\pdl\middleware\ble/cy_ble_gap.h **** 
 367:Generated_Source\PSoC6\pdl\middleware\ble/cy_ble_gap.h ****     /** Destination buffer */
 368:Generated_Source\PSoC6\pdl\middleware\ble/cy_ble_gap.h ****     const uint8_t *destAddr;
 369:Generated_Source\PSoC6\pdl\middleware\ble/cy_ble_gap.h **** 
 370:Generated_Source\PSoC6\pdl\middleware\ble/cy_ble_gap.h ****     /** Source buffer length */
 371:Generated_Source\PSoC6\pdl\middleware\ble/cy_ble_gap.h ****     uint32_t      buffLen;
 372:Generated_Source\PSoC6\pdl\middleware\ble/cy_ble_gap.h ****     
 373:Generated_Source\PSoC6\pdl\middleware\ble/cy_ble_gap.h ****     /** Write mode: blocking (default) / non-blocking */
 374:Generated_Source\PSoC6\pdl\middleware\ble/cy_ble_gap.h ****     uint32_t      writeMode;
 375:Generated_Source\PSoC6\pdl\middleware\ble/cy_ble_gap.h ****     
 376:Generated_Source\PSoC6\pdl\middleware\ble/cy_ble_gap.h **** } cy_stc_ble_app_flash_param_t;
 377:Generated_Source\PSoC6\pdl\middleware\ble/cy_ble_gap.h **** 
 378:Generated_Source\PSoC6\pdl\middleware\ble/cy_ble_gap.h **** /** @} group_ble_common_api_gap_definitions */
 379:Generated_Source\PSoC6\pdl\middleware\ble/cy_ble_gap.h ****  
 380:Generated_Source\PSoC6\pdl\middleware\ble/cy_ble_gap.h **** /***************************************
 381:Generated_Source\PSoC6\pdl\middleware\ble/cy_ble_gap.h **** * API Constants
 382:Generated_Source\PSoC6\pdl\middleware\ble/cy_ble_gap.h **** ***************************************/
 383:Generated_Source\PSoC6\pdl\middleware\ble/cy_ble_gap.h **** #define CY_BLE_AD_TYPE_MORE16UUID                  (0x02u)
 384:Generated_Source\PSoC6\pdl\middleware\ble/cy_ble_gap.h **** #define CY_BLE_AD_TYPE_CMPL16UUID                  (0x03u)
 385:Generated_Source\PSoC6\pdl\middleware\ble/cy_ble_gap.h **** #define CY_BLE_AD_TYPE_MORE32UUID                  (0x04u)
 386:Generated_Source\PSoC6\pdl\middleware\ble/cy_ble_gap.h **** #define CY_BLE_AD_TYPE_CMPL32UUID                  (0x05u)
ARM GAS  C:\Users\hkmnt\AppData\Local\Temp\ccBdSSuH.s 			page 25


 387:Generated_Source\PSoC6\pdl\middleware\ble/cy_ble_gap.h **** #define CY_BLE_AD_TYPE_MORE128UUID                 (0x06u)
 388:Generated_Source\PSoC6\pdl\middleware\ble/cy_ble_gap.h **** #define CY_BLE_AD_TYPE_CMPL128UUID                 (0x07u)
 389:Generated_Source\PSoC6\pdl\middleware\ble/cy_ble_gap.h **** 
 390:Generated_Source\PSoC6\pdl\middleware\ble/cy_ble_gap.h **** #define CY_BLE_AD_TYPE_SERVICE_DATA                (0x16u)
 391:Generated_Source\PSoC6\pdl\middleware\ble/cy_ble_gap.h **** #define CY_BLE_AD_SERVICE_DATA_OVERHEAD            (0x03u)
 392:Generated_Source\PSoC6\pdl\middleware\ble/cy_ble_gap.h **** 
 393:Generated_Source\PSoC6\pdl\middleware\ble/cy_ble_gap.h **** #define CY_BLE_DISCOVERY_IDLE                      (0x00u)
 394:Generated_Source\PSoC6\pdl\middleware\ble/cy_ble_gap.h **** #define CY_BLE_DISCOVERY_SERVICE                   (0x01u)
 395:Generated_Source\PSoC6\pdl\middleware\ble/cy_ble_gap.h **** #define CY_BLE_DISCOVERY_CHAR                      (0x02u)
 396:Generated_Source\PSoC6\pdl\middleware\ble/cy_ble_gap.h **** #define CY_BLE_DISCOVERY_DESCR                     (0x03u)
 397:Generated_Source\PSoC6\pdl\middleware\ble/cy_ble_gap.h **** #define CY_BLE_DISCOVERY_DONE                      (0x04u)
 398:Generated_Source\PSoC6\pdl\middleware\ble/cy_ble_gap.h **** 
 399:Generated_Source\PSoC6\pdl\middleware\ble/cy_ble_gap.h **** /* Cy_BLE_NextCharDscrDiscovery parameters */
 400:Generated_Source\PSoC6\pdl\middleware\ble/cy_ble_gap.h **** #define CY_BLE_DISCOVERY_INIT                      (0x00u)
 401:Generated_Source\PSoC6\pdl\middleware\ble/cy_ble_gap.h **** #define CY_BLE_DISCOVERY_CONTINUE                  (0x01u)
 402:Generated_Source\PSoC6\pdl\middleware\ble/cy_ble_gap.h **** 
 403:Generated_Source\PSoC6\pdl\middleware\ble/cy_ble_gap.h **** #define CY_BLE_SFLASH_DIE_X_MASK                   (0x3Fu)
 404:Generated_Source\PSoC6\pdl\middleware\ble/cy_ble_gap.h **** #define CY_BLE_SFLASH_DIE_X_BITS                   (6u)
 405:Generated_Source\PSoC6\pdl\middleware\ble/cy_ble_gap.h **** #define CY_BLE_SFLASH_DIE_Y_MASK                   (0x3Fu)
 406:Generated_Source\PSoC6\pdl\middleware\ble/cy_ble_gap.h **** #define CY_BLE_SFLASH_DIE_Y_BITS                   (6u)
 407:Generated_Source\PSoC6\pdl\middleware\ble/cy_ble_gap.h **** #define CY_BLE_SFLASH_DIE_XY_BITS                  (CY_BLE_SFLASH_DIE_X_BITS + CY_BLE_SFLASH_DIE_Y_
 408:Generated_Source\PSoC6\pdl\middleware\ble/cy_ble_gap.h **** #define CY_BLE_SFLASH_DIE_WAFER_MASK               (0x1Fu)
 409:Generated_Source\PSoC6\pdl\middleware\ble/cy_ble_gap.h **** #define CY_BLE_SFLASH_DIE_WAFER_BITS               (5u)
 410:Generated_Source\PSoC6\pdl\middleware\ble/cy_ble_gap.h **** #define CY_BLE_SFLASH_DIE_XYWAFER_BITS             (CY_BLE_SFLASH_DIE_XY_BITS + CY_BLE_SFLASH_DIE_W
 411:Generated_Source\PSoC6\pdl\middleware\ble/cy_ble_gap.h **** #define CY_BLE_SFLASH_DIE_LOT_MASK                 (0x7Fu)
 412:Generated_Source\PSoC6\pdl\middleware\ble/cy_ble_gap.h **** #define CY_BLE_SFLASH_DIE_LOT_BITS                 (7u)
 413:Generated_Source\PSoC6\pdl\middleware\ble/cy_ble_gap.h **** 
 414:Generated_Source\PSoC6\pdl\middleware\ble/cy_ble_gap.h **** /* Device address stored by user in ROW4 of the SFLASH */
 415:Generated_Source\PSoC6\pdl\middleware\ble/cy_ble_gap.h **** #define CY_BLE_SFLASH_DEVICE_ADDRESS_PTR           ((cy_stc_ble_gap_bd_addr_t*)(SFLASH->BLE_DEVICE_
 416:Generated_Source\PSoC6\pdl\middleware\ble/cy_ble_gap.h **** #define CY_BLE_AD_STRUCTURE_MAX_LENGTH             (31u)
 417:Generated_Source\PSoC6\pdl\middleware\ble/cy_ble_gap.h **** 
 418:Generated_Source\PSoC6\pdl\middleware\ble/cy_ble_gap.h **** /* AD types for complete, shortened local name and device address */
 419:Generated_Source\PSoC6\pdl\middleware\ble/cy_ble_gap.h **** #define CY_BLE_SHORT_LOCAL_NAME                    (0x08u)  /**< Shortened Local Name */
 420:Generated_Source\PSoC6\pdl\middleware\ble/cy_ble_gap.h **** #define CY_BLE_COMPLETE_LOCAL_NAME                 (0x09u)  /**< Complete Local Name */
 421:Generated_Source\PSoC6\pdl\middleware\ble/cy_ble_gap.h **** #define CY_BLE_ADV_DEVICE_ADDR                     (0x1Bu)  /**< LE Bluetooth Device Address */
 422:Generated_Source\PSoC6\pdl\middleware\ble/cy_ble_gap.h **** 
 423:Generated_Source\PSoC6\pdl\middleware\ble/cy_ble_gap.h **** #define CY_BLE_ADVERTISING_FAST                    (0x00u)
 424:Generated_Source\PSoC6\pdl\middleware\ble/cy_ble_gap.h **** #define CY_BLE_ADVERTISING_SLOW                    (0x01u)
 425:Generated_Source\PSoC6\pdl\middleware\ble/cy_ble_gap.h **** #define CY_BLE_ADVERTISING_CUSTOM                  (0x02u)
 426:Generated_Source\PSoC6\pdl\middleware\ble/cy_ble_gap.h **** 
 427:Generated_Source\PSoC6\pdl\middleware\ble/cy_ble_gap.h **** #define CY_BLE_SCANNING_FAST                       (0x00u)
 428:Generated_Source\PSoC6\pdl\middleware\ble/cy_ble_gap.h **** #define CY_BLE_SCANNING_SLOW                       (0x01u)
 429:Generated_Source\PSoC6\pdl\middleware\ble/cy_ble_gap.h **** #define CY_BLE_SCANNING_CUSTOM                     (0x02u)
 430:Generated_Source\PSoC6\pdl\middleware\ble/cy_ble_gap.h **** 
 431:Generated_Source\PSoC6\pdl\middleware\ble/cy_ble_gap.h **** #define CY_BLE_PENDING_STACK_FLASH_WRITE_BIT       (0x01u)
 432:Generated_Source\PSoC6\pdl\middleware\ble/cy_ble_gap.h **** #define CY_BLE_PENDING_CCCD_FLASH_WRITE_BIT        (0x02u)
 433:Generated_Source\PSoC6\pdl\middleware\ble/cy_ble_gap.h **** #define CY_BLE_PENDING_CCCD_FLASH_CLEAR_BIT        (0x04u)
 434:Generated_Source\PSoC6\pdl\middleware\ble/cy_ble_gap.h **** #define CY_BLE_PENDING_CCCD_FLASH_CLEAR_ALL_BIT    (0x08u)
 435:Generated_Source\PSoC6\pdl\middleware\ble/cy_ble_gap.h **** #define CY_BLE_PENDING_CCCD_FLASH_CLEAR_MASK \
 436:Generated_Source\PSoC6\pdl\middleware\ble/cy_ble_gap.h ****     (CY_BLE_PENDING_CCCD_FLASH_CLEAR_BIT | CY_BLE_PENDING_CCCD_FLASH_CLEAR_ALL_BIT)
 437:Generated_Source\PSoC6\pdl\middleware\ble/cy_ble_gap.h ****   
 438:Generated_Source\PSoC6\pdl\middleware\ble/cy_ble_gap.h **** /**
 439:Generated_Source\PSoC6\pdl\middleware\ble/cy_ble_gap.h ****  * \addtogroup group_ble_common_api_macros
 440:Generated_Source\PSoC6\pdl\middleware\ble/cy_ble_gap.h ****  * @{
 441:Generated_Source\PSoC6\pdl\middleware\ble/cy_ble_gap.h ****  */
 442:Generated_Source\PSoC6\pdl\middleware\ble/cy_ble_gap.h ****  
 443:Generated_Source\PSoC6\pdl\middleware\ble/cy_ble_gap.h **** /* GAP Advertisement Flags */
ARM GAS  C:\Users\hkmnt\AppData\Local\Temp\ccBdSSuH.s 			page 26


 444:Generated_Source\PSoC6\pdl\middleware\ble/cy_ble_gap.h **** #define CY_BLE_GAP_ADV_FLAG_LE_LIMITED_DISC_MODE        (0x01u)     /**< LE Limited Discoverable Mo
 445:Generated_Source\PSoC6\pdl\middleware\ble/cy_ble_gap.h **** #define CY_BLE_GAP_ADV_FLAG_LE_GENERAL_DISC_MODE        (0x02u)     /**< LE General Discoverable Mo
 446:Generated_Source\PSoC6\pdl\middleware\ble/cy_ble_gap.h **** #define CY_BLE_GAP_ADV_FLAG_BR_EDR_NOT_SUPPORTED        (0x04u)     /**< BR/EDR not supported. */
 447:Generated_Source\PSoC6\pdl\middleware\ble/cy_ble_gap.h **** #define CY_BLE_GAP_ADV_FLAG_LE_BR_EDR_CONTROLLER        (0x08u)     /**< Simultaneous LE and BR/EDR
 448:Generated_Source\PSoC6\pdl\middleware\ble/cy_ble_gap.h **** #define CY_BLE_GAP_ADV_FLAG_LE_BR_EDR_HOST              (0x10u)     /**< Simultaneous LE and BR/EDR
 449:Generated_Source\PSoC6\pdl\middleware\ble/cy_ble_gap.h **** #define CY_BLE_GAP_ADV_FLAGS_PACKET_LENGTH              (0x02u)     /**< Length of flags in an adve
 450:Generated_Source\PSoC6\pdl\middleware\ble/cy_ble_gap.h **** 
 451:Generated_Source\PSoC6\pdl\middleware\ble/cy_ble_gap.h **** /* GAP Advertising interval min and max */
 452:Generated_Source\PSoC6\pdl\middleware\ble/cy_ble_gap.h **** #define CY_BLE_GAP_ADV_ADVERT_INTERVAL_MIN              (0x0020u)   /**< Minimum Advertising interv
 453:Generated_Source\PSoC6\pdl\middleware\ble/cy_ble_gap.h ****                                                                      *   i.e. 20 ms. */
 454:Generated_Source\PSoC6\pdl\middleware\ble/cy_ble_gap.h **** #define CY_BLE_GAP_ADV_ADVERT_INTERVAL_NONCON_MIN       (0x00A0u)   /**< Minimum Advertising interv
 455:Generated_Source\PSoC6\pdl\middleware\ble/cy_ble_gap.h ****                                                                      *   for non connectable mode, 
 456:Generated_Source\PSoC6\pdl\middleware\ble/cy_ble_gap.h **** #define CY_BLE_GAP_ADV_ADVERT_INTERVAL_MAX              (0x4000u)   /**< Maximum Advertising interv
 457:Generated_Source\PSoC6\pdl\middleware\ble/cy_ble_gap.h ****                                                                      *   i.e. 10.24 s. */
 458:Generated_Source\PSoC6\pdl\middleware\ble/cy_ble_gap.h **** #define CY_BLE_GAP_ADV_ADVERT_INTERVAL_PACKET_LENGTH    (0x03u)     /**< Length of the Advertising 
 459:Generated_Source\PSoC6\pdl\middleware\ble/cy_ble_gap.h ****                                                                      *   an advertisement packet */
 460:Generated_Source\PSoC6\pdl\middleware\ble/cy_ble_gap.h **** #define CY_BLE_GAPC_CONNECTING_TIMEOUT                  (30u)       /**< Seconds */
 461:Generated_Source\PSoC6\pdl\middleware\ble/cy_ble_gap.h **** #define CY_BLE_INVALID_CONN_HANDLE_VALUE                (0xFFu)     /**< Invalid Connection Handle 
 462:Generated_Source\PSoC6\pdl\middleware\ble/cy_ble_gap.h **** 
 463:Generated_Source\PSoC6\pdl\middleware\ble/cy_ble_gap.h **** /* Write mode for Cy_BLE_StoreAppData */
 464:Generated_Source\PSoC6\pdl\middleware\ble/cy_ble_gap.h **** #define CY_BLE_STORE_DATA_MODE_BLOCKING                 (0x0u)      /**< Blocking write */
 465:Generated_Source\PSoC6\pdl\middleware\ble/cy_ble_gap.h **** #define CY_BLE_STORE_DATA_MODE_NON_BLOCKING             (0x1u)      /**< Non-blocking write */
 466:Generated_Source\PSoC6\pdl\middleware\ble/cy_ble_gap.h **** 
 467:Generated_Source\PSoC6\pdl\middleware\ble/cy_ble_gap.h **** /** @} group_ble_common_api_macros */
 468:Generated_Source\PSoC6\pdl\middleware\ble/cy_ble_gap.h **** 
 469:Generated_Source\PSoC6\pdl\middleware\ble/cy_ble_gap.h **** /***************************************
 470:Generated_Source\PSoC6\pdl\middleware\ble/cy_ble_gap.h **** * Private Function Prototypes
 471:Generated_Source\PSoC6\pdl\middleware\ble/cy_ble_gap.h **** ***************************************/
 472:Generated_Source\PSoC6\pdl\middleware\ble/cy_ble_gap.h **** void Cy_BLE_ServiceInit(void);
 473:Generated_Source\PSoC6\pdl\middleware\ble/cy_ble_gap.h **** uint32_t Cy_BLE_GetDiscoveryIdx(cy_stc_ble_conn_handle_t connHandle);
 474:Generated_Source\PSoC6\pdl\middleware\ble/cy_ble_gap.h **** 
 475:Generated_Source\PSoC6\pdl\middleware\ble/cy_ble_gap.h **** /***************************************
 476:Generated_Source\PSoC6\pdl\middleware\ble/cy_ble_gap.h **** * Function Prototypes
 477:Generated_Source\PSoC6\pdl\middleware\ble/cy_ble_gap.h **** ***************************************/
 478:Generated_Source\PSoC6\pdl\middleware\ble/cy_ble_gap.h **** /**
 479:Generated_Source\PSoC6\pdl\middleware\ble/cy_ble_gap.h ****  * \addtogroup group_ble_common_api_functions
 480:Generated_Source\PSoC6\pdl\middleware\ble/cy_ble_gap.h ****  * @{
 481:Generated_Source\PSoC6\pdl\middleware\ble/cy_ble_gap.h ****  */
 482:Generated_Source\PSoC6\pdl\middleware\ble/cy_ble_gap.h **** 
 483:Generated_Source\PSoC6\pdl\middleware\ble/cy_ble_gap.h **** cy_en_ble_api_result_t Cy_BLE_StoreAppData(const cy_stc_ble_app_flash_param_t *param);
 484:Generated_Source\PSoC6\pdl\middleware\ble/cy_ble_gap.h **** 
 485:Generated_Source\PSoC6\pdl\middleware\ble/cy_ble_gap.h **** #if ((CY_BLE_GAP_ROLE_PERIPHERAL || CY_BLE_GAP_ROLE_CENTRAL) && (CY_BLE_BONDING_REQUIREMENT == CY_B
 486:Generated_Source\PSoC6\pdl\middleware\ble/cy_ble_gap.h **** cy_en_ble_api_result_t Cy_BLE_StoreBondingData(void);
 487:Generated_Source\PSoC6\pdl\middleware\ble/cy_ble_gap.h **** cy_en_ble_api_result_t Cy_BLE_GAP_RemoveBondedDevice(cy_stc_ble_gap_bd_addr_t* bdAddr);
 488:Generated_Source\PSoC6\pdl\middleware\ble/cy_ble_gap.h **** #endif /* (CY_BLE_GAP_ROLE_PERIPHERAL || CY_BLE_GAP_ROLE_CENTRAL) && (CY_BLE_BONDING_REQUIREMENT ==
 489:Generated_Source\PSoC6\pdl\middleware\ble/cy_ble_gap.h **** 
 490:Generated_Source\PSoC6\pdl\middleware\ble/cy_ble_gap.h **** #if (CY_BLE_GAP_ROLE_PERIPHERAL || CY_BLE_GAP_ROLE_CENTRAL)
 491:Generated_Source\PSoC6\pdl\middleware\ble/cy_ble_gap.h **** bool Cy_BLE_IsPeerConnected(uint8_t *bdAddr);
 492:Generated_Source\PSoC6\pdl\middleware\ble/cy_ble_gap.h **** bool Cy_BLE_IsDevicePaired(cy_stc_ble_conn_handle_t *connHandle);
 493:Generated_Source\PSoC6\pdl\middleware\ble/cy_ble_gap.h **** uint8_t Cy_BLE_GetDeviceRole(cy_stc_ble_conn_handle_t *connHandle);
 494:Generated_Source\PSoC6\pdl\middleware\ble/cy_ble_gap.h **** 
 495:Generated_Source\PSoC6\pdl\middleware\ble/cy_ble_gap.h **** cy_en_ble_api_result_t Cy_BLE_GetRssiPeer(uint8_t  bdHandle);
 496:Generated_Source\PSoC6\pdl\middleware\ble/cy_ble_gap.h **** #endif /* (CY_BLE_GAP_ROLE_PERIPHERAL || CY_BLE_GAP_ROLE_CENTRAL) */
 497:Generated_Source\PSoC6\pdl\middleware\ble/cy_ble_gap.h **** /** @} group_ble_common_api_functions */
 498:Generated_Source\PSoC6\pdl\middleware\ble/cy_ble_gap.h **** 
 499:Generated_Source\PSoC6\pdl\middleware\ble/cy_ble_gap.h **** /**
 500:Generated_Source\PSoC6\pdl\middleware\ble/cy_ble_gap.h ****  * \addtogroup group_ble_common_api_gap_peripheral_functions
ARM GAS  C:\Users\hkmnt\AppData\Local\Temp\ccBdSSuH.s 			page 27


 501:Generated_Source\PSoC6\pdl\middleware\ble/cy_ble_gap.h ****  * @{
 502:Generated_Source\PSoC6\pdl\middleware\ble/cy_ble_gap.h ****  */
 503:Generated_Source\PSoC6\pdl\middleware\ble/cy_ble_gap.h ****  
 504:Generated_Source\PSoC6\pdl\middleware\ble/cy_ble_gap.h **** #if (CY_BLE_GAP_ROLE_PERIPHERAL || CY_BLE_GAP_ROLE_BROADCASTER)
 505:Generated_Source\PSoC6\pdl\middleware\ble/cy_ble_gap.h **** cy_en_ble_api_result_t Cy_BLE_GAPP_StartAdvertisement(uint8_t advertisingIntervalType, uint8_t adve
 506:Generated_Source\PSoC6\pdl\middleware\ble/cy_ble_gap.h **** cy_en_ble_api_result_t Cy_BLE_GAPP_StopAdvertisement(void);
 507:Generated_Source\PSoC6\pdl\middleware\ble/cy_ble_gap.h **** 
 508:Generated_Source\PSoC6\pdl\middleware\ble/cy_ble_gap.h **** /** \cond IGNORE */
 509:Generated_Source\PSoC6\pdl\middleware\ble/cy_ble_gap.h **** void Cy_BLE_ChangeAdDeviceAddress(const cy_stc_ble_gap_bd_addr_t* bdAddr, uint8_t dest);
 510:Generated_Source\PSoC6\pdl\middleware\ble/cy_ble_gap.h **** /** \endcond */
 511:Generated_Source\PSoC6\pdl\middleware\ble/cy_ble_gap.h **** 
 512:Generated_Source\PSoC6\pdl\middleware\ble/cy_ble_gap.h **** #endif /* CY_BLE_GAP_ROLE_PERIPHERAL */
 513:Generated_Source\PSoC6\pdl\middleware\ble/cy_ble_gap.h **** 
 514:Generated_Source\PSoC6\pdl\middleware\ble/cy_ble_gap.h **** /** @} group_ble_common_api_gap_peripheral_functions */
 515:Generated_Source\PSoC6\pdl\middleware\ble/cy_ble_gap.h **** 
 516:Generated_Source\PSoC6\pdl\middleware\ble/cy_ble_gap.h **** /**
 517:Generated_Source\PSoC6\pdl\middleware\ble/cy_ble_gap.h ****  * \addtogroup group_ble_common_api_gap_central_functions
 518:Generated_Source\PSoC6\pdl\middleware\ble/cy_ble_gap.h ****  * @{
 519:Generated_Source\PSoC6\pdl\middleware\ble/cy_ble_gap.h ****  */
 520:Generated_Source\PSoC6\pdl\middleware\ble/cy_ble_gap.h ****  
 521:Generated_Source\PSoC6\pdl\middleware\ble/cy_ble_gap.h **** #if (CY_BLE_GAP_ROLE_CENTRAL || CY_BLE_GAP_ROLE_OBSERVER)
 522:Generated_Source\PSoC6\pdl\middleware\ble/cy_ble_gap.h **** cy_en_ble_api_result_t Cy_BLE_GAPC_StartScan(uint8_t scanningIntervalType, uint8_t scanParamIndex);
 523:Generated_Source\PSoC6\pdl\middleware\ble/cy_ble_gap.h **** cy_en_ble_api_result_t Cy_BLE_GAPC_StopScan(void);
 524:Generated_Source\PSoC6\pdl\middleware\ble/cy_ble_gap.h **** #endif /* CY_BLE_GAP_ROLE_CENTRAL || CY_BLE_GAP_ROLE_OBSERVER */
 525:Generated_Source\PSoC6\pdl\middleware\ble/cy_ble_gap.h **** 
 526:Generated_Source\PSoC6\pdl\middleware\ble/cy_ble_gap.h **** #if (CY_BLE_GAP_ROLE_CENTRAL)
 527:Generated_Source\PSoC6\pdl\middleware\ble/cy_ble_gap.h **** cy_en_ble_api_result_t Cy_BLE_GAPC_ConnectDevice(const cy_stc_ble_gap_bd_addr_t * address, uint8_t 
 528:Generated_Source\PSoC6\pdl\middleware\ble/cy_ble_gap.h **** cy_en_ble_api_result_t Cy_BLE_GAPC_CancelDeviceConnection(void);
 529:Generated_Source\PSoC6\pdl\middleware\ble/cy_ble_gap.h **** #endif /* CY_BLE_GAP_ROLE_CENTRAL */
 530:Generated_Source\PSoC6\pdl\middleware\ble/cy_ble_gap.h **** 
 531:Generated_Source\PSoC6\pdl\middleware\ble/cy_ble_gap.h **** /** @} group_ble_common_api_gap_central_functions */
 532:Generated_Source\PSoC6\pdl\middleware\ble/cy_ble_gap.h **** 
 533:Generated_Source\PSoC6\pdl\middleware\ble/cy_ble_gap.h **** /***************************************
 534:Generated_Source\PSoC6\pdl\middleware\ble/cy_ble_gap.h **** * External data references
 535:Generated_Source\PSoC6\pdl\middleware\ble/cy_ble_gap.h **** ***************************************/
 536:Generated_Source\PSoC6\pdl\middleware\ble/cy_ble_gap.h **** extern volatile uint8_t cy_ble_eventHandlerFlag;
 537:Generated_Source\PSoC6\pdl\middleware\ble/cy_ble_gap.h **** extern cy_stc_ble_gap_bd_addr_t *cy_ble_sflashDeviceAddress;
 538:Generated_Source\PSoC6\pdl\middleware\ble/cy_ble_gap.h **** extern cy_stc_ble_gap_bd_addr_t cy_ble_deviceAddress;
 539:Generated_Source\PSoC6\pdl\middleware\ble/cy_ble_gap.h **** extern cy_en_ble_state_t cy_ble_state;
 540:Generated_Source\PSoC6\pdl\middleware\ble/cy_ble_gap.h **** 
 541:Generated_Source\PSoC6\pdl\middleware\ble/cy_ble_gap.h **** #if ((CY_BLE_GAP_ROLE_PERIPHERAL || CY_BLE_GAP_ROLE_CENTRAL))
 542:Generated_Source\PSoC6\pdl\middleware\ble/cy_ble_gap.h **** extern cy_stc_ble_gap_auth_info_t cy_ble_authInfo[CY_BLE_AUTH_INFO_COUNT];
 543:Generated_Source\PSoC6\pdl\middleware\ble/cy_ble_gap.h **** #endif /* ((CY_BLE_GAP_ROLE_PERIPHERAL || CY_BLE_GAP_ROLE_CENTRAL)) */
 544:Generated_Source\PSoC6\pdl\middleware\ble/cy_ble_gap.h **** 
 545:Generated_Source\PSoC6\pdl\middleware\ble/cy_ble_gap.h **** #if (CY_BLE_GAP_ROLE_PERIPHERAL || CY_BLE_GAP_ROLE_BROADCASTER)
 546:Generated_Source\PSoC6\pdl\middleware\ble/cy_ble_gap.h **** extern cy_en_ble_adv_state_t cy_ble_advState;
 547:Generated_Source\PSoC6\pdl\middleware\ble/cy_ble_gap.h **** extern uint8_t cy_ble_advIndex;
 548:Generated_Source\PSoC6\pdl\middleware\ble/cy_ble_gap.h **** #endif  /* (CY_BLE_GAP_ROLE_PERIPHERAL || CY_BLE_GAP_ROLE_BROADCASTER) */
 549:Generated_Source\PSoC6\pdl\middleware\ble/cy_ble_gap.h **** 
 550:Generated_Source\PSoC6\pdl\middleware\ble/cy_ble_gap.h **** #if (CY_BLE_GAP_ROLE_CENTRAL || CY_BLE_GAP_ROLE_OBSERVER)
 551:Generated_Source\PSoC6\pdl\middleware\ble/cy_ble_gap.h **** extern cy_en_ble_scan_state_t cy_ble_scanState;
 552:Generated_Source\PSoC6\pdl\middleware\ble/cy_ble_gap.h **** extern uint8_t cy_ble_scanIndex;
 553:Generated_Source\PSoC6\pdl\middleware\ble/cy_ble_gap.h **** #endif /* (CY_BLE_GAP_ROLE_CENTRAL || CY_BLE_GAP_ROLE_OBSERVER) */
 554:Generated_Source\PSoC6\pdl\middleware\ble/cy_ble_gap.h **** 
 555:Generated_Source\PSoC6\pdl\middleware\ble/cy_ble_gap.h **** #if ((CY_BLE_GAP_ROLE_PERIPHERAL || CY_BLE_GAP_ROLE_CENTRAL))
 556:Generated_Source\PSoC6\pdl\middleware\ble/cy_ble_gap.h **** extern cy_stc_ble_conn_handle_t cy_ble_connHandle[CY_BLE_CONN_COUNT];
 557:Generated_Source\PSoC6\pdl\middleware\ble/cy_ble_gap.h **** extern cy_en_ble_conn_state_t cy_ble_connState[CY_BLE_CONN_COUNT];
ARM GAS  C:\Users\hkmnt\AppData\Local\Temp\ccBdSSuH.s 			page 28


 558:Generated_Source\PSoC6\pdl\middleware\ble/cy_ble_gap.h **** 
 559:Generated_Source\PSoC6\pdl\middleware\ble/cy_ble_gap.h **** extern volatile uint8_t cy_ble_devConnRole[CY_BLE_CONN_COUNT];                                     
 560:Generated_Source\PSoC6\pdl\middleware\ble/cy_ble_gap.h **** extern volatile bool cy_ble_pairStatus[CY_BLE_CONN_COUNT];
 561:Generated_Source\PSoC6\pdl\middleware\ble/cy_ble_gap.h **** 
 562:Generated_Source\PSoC6\pdl\middleware\ble/cy_ble_gap.h **** #endif /* ((CY_BLE_GAP_ROLE_PERIPHERAL || CY_BLE_GAP_ROLE_CENTRAL)) */
 563:Generated_Source\PSoC6\pdl\middleware\ble/cy_ble_gap.h **** 
 564:Generated_Source\PSoC6\pdl\middleware\ble/cy_ble_gap.h **** #if (CY_BLE_GAP_ROLE_CENTRAL || CY_BLE_GAP_ROLE_OBSERVER)
 565:Generated_Source\PSoC6\pdl\middleware\ble/cy_ble_gap.h **** extern cy_stc_ble_gapc_disc_info_t cy_ble_discoveryInfo[CY_BLE_GAPC_CONF_COUNT];
 566:Generated_Source\PSoC6\pdl\middleware\ble/cy_ble_gap.h **** #endif /* CY_BLE_GAP_ROLE_CENTRAL || CY_BLE_GAP_ROLE_OBSERVER */
 567:Generated_Source\PSoC6\pdl\middleware\ble/cy_ble_gap.h **** 
 568:Generated_Source\PSoC6\pdl\middleware\ble/cy_ble_gap.h **** #if (CY_BLE_GAP_ROLE_CENTRAL)
 569:Generated_Source\PSoC6\pdl\middleware\ble/cy_ble_gap.h **** extern cy_stc_ble_gapc_conn_info_t cy_ble_connectionParameters;
 570:Generated_Source\PSoC6\pdl\middleware\ble/cy_ble_gap.h **** extern cy_stc_ble_timer_info_t cy_ble_connectingTimeout;
 571:Generated_Source\PSoC6\pdl\middleware\ble/cy_ble_gap.h **** #endif /* CY_BLE_GAP_ROLE_CENTRAL */
 572:Generated_Source\PSoC6\pdl\middleware\ble/cy_ble_gap.h **** 
 573:Generated_Source\PSoC6\pdl\middleware\ble/cy_ble_gap.h **** #if (CY_BLE_GAP_ROLE_PERIPHERAL || CY_BLE_GAP_ROLE_BROADCASTER)
 574:Generated_Source\PSoC6\pdl\middleware\ble/cy_ble_gap.h **** extern cy_stc_ble_gapp_disc_mode_info_t cy_ble_discoveryModeInfo[CY_BLE_GAPP_CONF_COUNT];
 575:Generated_Source\PSoC6\pdl\middleware\ble/cy_ble_gap.h **** extern cy_stc_ble_gapp_disc_param_t cy_ble_discoveryParam[CY_BLE_GAPP_CONF_COUNT];
 576:Generated_Source\PSoC6\pdl\middleware\ble/cy_ble_gap.h **** extern cy_stc_ble_gapp_disc_data_t cy_ble_discoveryData[CY_BLE_GAPP_CONF_COUNT];
 577:Generated_Source\PSoC6\pdl\middleware\ble/cy_ble_gap.h **** extern cy_stc_ble_gapp_scan_rsp_data_t cy_ble_scanRspData[CY_BLE_GAPP_CONF_COUNT];
 578:Generated_Source\PSoC6\pdl\middleware\ble/cy_ble_gap.h **** #endif /* CY_BLE_GAP_ROLE_PERIPHERAL || CY_BLE_GAP_ROLE_BROADCASTER */
 579:Generated_Source\PSoC6\pdl\middleware\ble/cy_ble_gap.h **** 
 580:Generated_Source\PSoC6\pdl\middleware\ble/cy_ble_gap.h **** #if ((CY_BLE_GAP_ROLE_PERIPHERAL || CY_BLE_GAP_ROLE_CENTRAL) && (CY_BLE_BONDING_REQUIREMENT == CY_B
 581:Generated_Source\PSoC6\pdl\middleware\ble/cy_ble_gap.h **** 
 582:Generated_Source\PSoC6\pdl\middleware\ble/cy_ble_gap.h **** /**
 583:Generated_Source\PSoC6\pdl\middleware\ble/cy_ble_gap.h ****  * \addtogroup group_ble_common_api_global_variables
 584:Generated_Source\PSoC6\pdl\middleware\ble/cy_ble_gap.h ****  * @{
 585:Generated_Source\PSoC6\pdl\middleware\ble/cy_ble_gap.h ****  */  
 586:Generated_Source\PSoC6\pdl\middleware\ble/cy_ble_gap.h **** /** This is a two-bit variable that contains status of pending write to flash operation.
 587:Generated_Source\PSoC6\pdl\middleware\ble/cy_ble_gap.h ****  * This variable is initialized to zero in Cy_BLE_Init().
 588:Generated_Source\PSoC6\pdl\middleware\ble/cy_ble_gap.h ****  * CY_BLE_PENDING_CCCD_FLASH_WRITE_BIT flag is set after write to CCCD event when a
 589:Generated_Source\PSoC6\pdl\middleware\ble/cy_ble_gap.h ****  * peer device supports bonding (cy_ble_peerBonding[eventParam->connHandle.attId] == CY_BLE_GAP_BON
 590:Generated_Source\PSoC6\pdl\middleware\ble/cy_ble_gap.h ****  * CY_BLE_PENDING_STACK_FLASH_WRITE_BIT flag is set after CY_BLE_EVT_PENDING_FLASH_WRITE event.
 591:Generated_Source\PSoC6\pdl\middleware\ble/cy_ble_gap.h ****  * Cy_BLE_StoreBondingData() should be called to store pending bonding data.
 592:Generated_Source\PSoC6\pdl\middleware\ble/cy_ble_gap.h ****  * This function automatically clears pending bits after write operation is complete.
 593:Generated_Source\PSoC6\pdl\middleware\ble/cy_ble_gap.h ****  */
 594:Generated_Source\PSoC6\pdl\middleware\ble/cy_ble_gap.h **** extern uint8_t cy_ble_pendingFlashWrite;
 595:Generated_Source\PSoC6\pdl\middleware\ble/cy_ble_gap.h **** /** @} group_ble_common_api_global_variables */
 596:Generated_Source\PSoC6\pdl\middleware\ble/cy_ble_gap.h ****     
 597:Generated_Source\PSoC6\pdl\middleware\ble/cy_ble_gap.h **** /** Bonding type setting of peer device, CY_BLE_GAP_BONDING_NONE or CY_BLE_GAP_BONDING.
 598:Generated_Source\PSoC6\pdl\middleware\ble/cy_ble_gap.h ****  * It is initialized after pairing with peer device and used for cy_ble_pendingFlashWrite variable
 599:Generated_Source\PSoC6\pdl\middleware\ble/cy_ble_gap.h ****  * setting.
 600:Generated_Source\PSoC6\pdl\middleware\ble/cy_ble_gap.h ****  */
 601:Generated_Source\PSoC6\pdl\middleware\ble/cy_ble_gap.h **** extern uint8_t cy_ble_peerBonding[CY_BLE_CONN_COUNT];
 602:Generated_Source\PSoC6\pdl\middleware\ble/cy_ble_gap.h **** 
 603:Generated_Source\PSoC6\pdl\middleware\ble/cy_ble_gap.h **** #endif  /* (CY_BLE_BONDING_REQUIREMENT == CY_BLE_BONDING_YES) */
 604:Generated_Source\PSoC6\pdl\middleware\ble/cy_ble_gap.h **** 
 605:Generated_Source\PSoC6\pdl\middleware\ble/cy_ble_gap.h **** 
 606:Generated_Source\PSoC6\pdl\middleware\ble/cy_ble_gap.h **** /***************************************
 607:Generated_Source\PSoC6\pdl\middleware\ble/cy_ble_gap.h **** * Exported Functions (MACROS)
 608:Generated_Source\PSoC6\pdl\middleware\ble/cy_ble_gap.h **** ***************************************/
 609:Generated_Source\PSoC6\pdl\middleware\ble/cy_ble_gap.h **** #if ((CY_BLE_GAP_ROLE_PERIPHERAL || CY_BLE_GAP_ROLE_CENTRAL))
 610:Generated_Source\PSoC6\pdl\middleware\ble/cy_ble_gap.h ****    
 611:Generated_Source\PSoC6\pdl\middleware\ble/cy_ble_gap.h **** /******************************************************************************
 612:Generated_Source\PSoC6\pdl\middleware\ble/cy_ble_gap.h **** * Function Name: Cy_BLE_GetConnHandleIdx
 613:Generated_Source\PSoC6\pdl\middleware\ble/cy_ble_gap.h **** ***************************************************************************//**
 614:Generated_Source\PSoC6\pdl\middleware\ble/cy_ble_gap.h **** *
ARM GAS  C:\Users\hkmnt\AppData\Local\Temp\ccBdSSuH.s 			page 29


 615:Generated_Source\PSoC6\pdl\middleware\ble/cy_ble_gap.h **** *  This function searches the array of connection handles (cy_ble_connHandle[])
 616:Generated_Source\PSoC6\pdl\middleware\ble/cy_ble_gap.h **** *  for the location (index) of a handle that corresponds to the input parameter
 617:Generated_Source\PSoC6\pdl\middleware\ble/cy_ble_gap.h **** *  connHandle. bdHandle.
 618:Generated_Source\PSoC6\pdl\middleware\ble/cy_ble_gap.h **** *
 619:Generated_Source\PSoC6\pdl\middleware\ble/cy_ble_gap.h **** *  This function is designated for internal usage. 
 620:Generated_Source\PSoC6\pdl\middleware\ble/cy_ble_gap.h **** *    
 621:Generated_Source\PSoC6\pdl\middleware\ble/cy_ble_gap.h **** *  \param connHandle: The connection handle.
 622:Generated_Source\PSoC6\pdl\middleware\ble/cy_ble_gap.h **** *
 623:Generated_Source\PSoC6\pdl\middleware\ble/cy_ble_gap.h **** *  \return
 624:Generated_Source\PSoC6\pdl\middleware\ble/cy_ble_gap.h **** *  retValue: the index of connHandle  
 625:Generated_Source\PSoC6\pdl\middleware\ble/cy_ble_gap.h **** *    
 626:Generated_Source\PSoC6\pdl\middleware\ble/cy_ble_gap.h **** ******************************************************************************/
 627:Generated_Source\PSoC6\pdl\middleware\ble/cy_ble_gap.h **** __STATIC_INLINE uint8_t Cy_BLE_GetConnHandleIdx(cy_stc_ble_conn_handle_t connHandle)
 628:Generated_Source\PSoC6\pdl\middleware\ble/cy_ble_gap.h **** {
 629:Generated_Source\PSoC6\pdl\middleware\ble/cy_ble_gap.h ****     uint8_t idx;
 630:Generated_Source\PSoC6\pdl\middleware\ble/cy_ble_gap.h ****     uint8_t retValue = CY_BLE_CONN_COUNT;
 631:Generated_Source\PSoC6\pdl\middleware\ble/cy_ble_gap.h **** 
 632:Generated_Source\PSoC6\pdl\middleware\ble/cy_ble_gap.h ****     for(idx = 0u; idx < CY_BLE_CONN_COUNT; idx++)
 633:Generated_Source\PSoC6\pdl\middleware\ble/cy_ble_gap.h ****     {
 634:Generated_Source\PSoC6\pdl\middleware\ble/cy_ble_gap.h ****         if(cy_ble_connHandle[idx].bdHandle == connHandle.bdHandle)
 635:Generated_Source\PSoC6\pdl\middleware\ble/cy_ble_gap.h ****         {
 636:Generated_Source\PSoC6\pdl\middleware\ble/cy_ble_gap.h ****             retValue = idx;
 637:Generated_Source\PSoC6\pdl\middleware\ble/cy_ble_gap.h ****             break;
 638:Generated_Source\PSoC6\pdl\middleware\ble/cy_ble_gap.h ****         }
 639:Generated_Source\PSoC6\pdl\middleware\ble/cy_ble_gap.h ****     }
 640:Generated_Source\PSoC6\pdl\middleware\ble/cy_ble_gap.h ****     if(retValue == CY_BLE_CONN_COUNT)
 641:Generated_Source\PSoC6\pdl\middleware\ble/cy_ble_gap.h ****     {
 642:Generated_Source\PSoC6\pdl\middleware\ble/cy_ble_gap.h ****         /* HALT in debug mode */
 643:Generated_Source\PSoC6\pdl\middleware\ble/cy_ble_gap.h ****         CY_ASSERT(retValue != CY_BLE_CONN_COUNT);
 644:Generated_Source\PSoC6\pdl\middleware\ble/cy_ble_gap.h ****         retValue = 0u;
 645:Generated_Source\PSoC6\pdl\middleware\ble/cy_ble_gap.h ****     }
 646:Generated_Source\PSoC6\pdl\middleware\ble/cy_ble_gap.h **** 
 647:Generated_Source\PSoC6\pdl\middleware\ble/cy_ble_gap.h ****     return(retValue);
 648:Generated_Source\PSoC6\pdl\middleware\ble/cy_ble_gap.h **** }
 649:Generated_Source\PSoC6\pdl\middleware\ble/cy_ble_gap.h **** #endif  /* ((CY_BLE_GAP_ROLE_PERIPHERAL || CY_BLE_GAP_ROLE_CENTRAL)) */
 650:Generated_Source\PSoC6\pdl\middleware\ble/cy_ble_gap.h **** 
 651:Generated_Source\PSoC6\pdl\middleware\ble/cy_ble_gap.h **** /**
 652:Generated_Source\PSoC6\pdl\middleware\ble/cy_ble_gap.h ****  * \addtogroup group_ble_common_api_functions
 653:Generated_Source\PSoC6\pdl\middleware\ble/cy_ble_gap.h ****  * @{
 654:Generated_Source\PSoC6\pdl\middleware\ble/cy_ble_gap.h **** */
 655:Generated_Source\PSoC6\pdl\middleware\ble/cy_ble_gap.h **** /******************************************************************************
 656:Generated_Source\PSoC6\pdl\middleware\ble/cy_ble_gap.h **** * Function Name: Cy_BLE_GetState
 657:Generated_Source\PSoC6\pdl\middleware\ble/cy_ble_gap.h **** ***************************************************************************//**
 658:Generated_Source\PSoC6\pdl\middleware\ble/cy_ble_gap.h **** *
 659:Generated_Source\PSoC6\pdl\middleware\ble/cy_ble_gap.h **** *  This function is used to determine the current state of the BLE Middleware
 660:Generated_Source\PSoC6\pdl\middleware\ble/cy_ble_gap.h **** *  state machine :
 661:Generated_Source\PSoC6\pdl\middleware\ble/cy_ble_gap.h **** *
 662:Generated_Source\PSoC6\pdl\middleware\ble/cy_ble_gap.h **** *  \image html ble_middleware_state_machine.png
 663:Generated_Source\PSoC6\pdl\middleware\ble/cy_ble_gap.h **** *
 664:Generated_Source\PSoC6\pdl\middleware\ble/cy_ble_gap.h **** *  The BLE Middleware is in the state #CY_BLE_STATE_INITIALIZING after the 
 665:Generated_Source\PSoC6\pdl\middleware\ble/cy_ble_gap.h **** *  Cy_BLE_Enable() is called and until the #CY_BLE_EVT_STACK_ON event is not 
 666:Generated_Source\PSoC6\pdl\middleware\ble/cy_ble_gap.h **** *  received. After successful initialization the state is changed to 
 667:Generated_Source\PSoC6\pdl\middleware\ble/cy_ble_gap.h **** *  #CY_BLE_STATE_ON.
 668:Generated_Source\PSoC6\pdl\middleware\ble/cy_ble_gap.h **** *
 669:Generated_Source\PSoC6\pdl\middleware\ble/cy_ble_gap.h **** *  The BLE Middleware is in the state #CY_BLE_STATE_STOPPED 
 670:Generated_Source\PSoC6\pdl\middleware\ble/cy_ble_gap.h **** *  when the #CY_BLE_EVT_STACK_SHUTDOWN_COMPLETE event is received (after the 
 671:Generated_Source\PSoC6\pdl\middleware\ble/cy_ble_gap.h **** *  Cy_BLE_Disable() is called).
ARM GAS  C:\Users\hkmnt\AppData\Local\Temp\ccBdSSuH.s 			page 30


 672:Generated_Source\PSoC6\pdl\middleware\ble/cy_ble_gap.h **** *  
 673:Generated_Source\PSoC6\pdl\middleware\ble/cy_ble_gap.h **** *  For GAP Central role when the Cy_BLE_GAPC_ConnectDevice() is called, the state
 674:Generated_Source\PSoC6\pdl\middleware\ble/cy_ble_gap.h **** *  is changed to #CY_BLE_STATE_CONNECTING. After successful connection indicated
 675:Generated_Source\PSoC6\pdl\middleware\ble/cy_ble_gap.h **** *  by #CY_BLE_EVT_GAP_DEVICE_CONNECTED or #CY_BLE_EVT_GAP_ENHANCE_CONN_COMPLETE
 676:Generated_Source\PSoC6\pdl\middleware\ble/cy_ble_gap.h **** *  event or the timeout indicated by #CY_BLE_EVT_TIMEOUT event, the state is
 677:Generated_Source\PSoC6\pdl\middleware\ble/cy_ble_gap.h **** *  changed to #CY_BLE_STATE_ON.
 678:Generated_Source\PSoC6\pdl\middleware\ble/cy_ble_gap.h **** *
 679:Generated_Source\PSoC6\pdl\middleware\ble/cy_ble_gap.h **** * \return
 680:Generated_Source\PSoC6\pdl\middleware\ble/cy_ble_gap.h **** * \ref cy_en_ble_state_t : The current BLE Middleware state. The following are 
 681:Generated_Source\PSoC6\pdl\middleware\ble/cy_ble_gap.h **** *                         possible states:
 682:Generated_Source\PSoC6\pdl\middleware\ble/cy_ble_gap.h **** *
 683:Generated_Source\PSoC6\pdl\middleware\ble/cy_ble_gap.h **** *   State                      | Description
 684:Generated_Source\PSoC6\pdl\middleware\ble/cy_ble_gap.h **** *   -------------------------- | -----------
 685:Generated_Source\PSoC6\pdl\middleware\ble/cy_ble_gap.h **** *   CY_BLE_STATE_STOPPED       | BLE is turned off.
 686:Generated_Source\PSoC6\pdl\middleware\ble/cy_ble_gap.h **** *   CY_BLE_STATE_INITIALIZING  | BLE is initializing (waiting for #CY_BLE_EVT_STACK_ON event).
 687:Generated_Source\PSoC6\pdl\middleware\ble/cy_ble_gap.h **** *   CY_BLE_STATE_ON            | BLE is turned on.
 688:Generated_Source\PSoC6\pdl\middleware\ble/cy_ble_gap.h **** *   CY_BLE_STATE_CONNECTING    | BLE is connecting.
 689:Generated_Source\PSoC6\pdl\middleware\ble/cy_ble_gap.h **** 
 690:Generated_Source\PSoC6\pdl\middleware\ble/cy_ble_gap.h **** ******************************************************************************/
 691:Generated_Source\PSoC6\pdl\middleware\ble/cy_ble_gap.h **** #define Cy_BLE_GetState()    (cy_ble_state)
 692:Generated_Source\PSoC6\pdl\middleware\ble/cy_ble_gap.h **** 
 693:Generated_Source\PSoC6\pdl\middleware\ble/cy_ble_gap.h **** /** \cond IGNORE */
 694:Generated_Source\PSoC6\pdl\middleware\ble/cy_ble_gap.h **** /******************************************************************************
 695:Generated_Source\PSoC6\pdl\middleware\ble/cy_ble_gap.h **** * Function Name: Cy_BLE_SetState
 696:Generated_Source\PSoC6\pdl\middleware\ble/cy_ble_gap.h **** ***************************************************************************//**
 697:Generated_Source\PSoC6\pdl\middleware\ble/cy_ble_gap.h **** *
 698:Generated_Source\PSoC6\pdl\middleware\ble/cy_ble_gap.h **** *  Used to set the BLE Middleware state machine's state.
 699:Generated_Source\PSoC6\pdl\middleware\ble/cy_ble_gap.h **** *
 700:Generated_Source\PSoC6\pdl\middleware\ble/cy_ble_gap.h **** *  \param state: The desired state to which the event handler's
 701:Generated_Source\PSoC6\pdl\middleware\ble/cy_ble_gap.h **** *   state machine should be set. The parameter state is a variable
 702:Generated_Source\PSoC6\pdl\middleware\ble/cy_ble_gap.h **** *   of type cy_en_ble_state_t.
 703:Generated_Source\PSoC6\pdl\middleware\ble/cy_ble_gap.h **** *
 704:Generated_Source\PSoC6\pdl\middleware\ble/cy_ble_gap.h **** * \return
 705:Generated_Source\PSoC6\pdl\middleware\ble/cy_ble_gap.h **** *  None
 706:Generated_Source\PSoC6\pdl\middleware\ble/cy_ble_gap.h **** *
 707:Generated_Source\PSoC6\pdl\middleware\ble/cy_ble_gap.h **** ******************************************************************************/
 708:Generated_Source\PSoC6\pdl\middleware\ble/cy_ble_gap.h **** #define Cy_BLE_SetState(state)    (cy_ble_state = (state))
 709:Generated_Source\PSoC6\pdl\middleware\ble/cy_ble_gap.h **** /** \endcond */
 710:Generated_Source\PSoC6\pdl\middleware\ble/cy_ble_gap.h **** 
 711:Generated_Source\PSoC6\pdl\middleware\ble/cy_ble_gap.h **** #if (CY_BLE_GAP_ROLE_PERIPHERAL || CY_BLE_GAP_ROLE_BROADCASTER)
 712:Generated_Source\PSoC6\pdl\middleware\ble/cy_ble_gap.h **** 
 713:Generated_Source\PSoC6\pdl\middleware\ble/cy_ble_gap.h **** 
 714:Generated_Source\PSoC6\pdl\middleware\ble/cy_ble_gap.h **** /******************************************************************************
 715:Generated_Source\PSoC6\pdl\middleware\ble/cy_ble_gap.h **** * Function Name: Cy_BLE_GetAdvertisementState
 716:Generated_Source\PSoC6\pdl\middleware\ble/cy_ble_gap.h **** ***************************************************************************//**
 717:Generated_Source\PSoC6\pdl\middleware\ble/cy_ble_gap.h **** *    
 718:Generated_Source\PSoC6\pdl\middleware\ble/cy_ble_gap.h **** *  This function returns the state of the link layer hardware advertisement
 719:Generated_Source\PSoC6\pdl\middleware\ble/cy_ble_gap.h **** *  engine.
 720:Generated_Source\PSoC6\pdl\middleware\ble/cy_ble_gap.h **** *
 721:Generated_Source\PSoC6\pdl\middleware\ble/cy_ble_gap.h **** *  \image html ble_advertisement_state_machine.png
 722:Generated_Source\PSoC6\pdl\middleware\ble/cy_ble_gap.h **** *
 723:Generated_Source\PSoC6\pdl\middleware\ble/cy_ble_gap.h **** *  When Cy_BLE_GAPP_StartAdvertisement() is called, the state is set to
 724:Generated_Source\PSoC6\pdl\middleware\ble/cy_ble_gap.h **** *  #CY_BLE_ADV_STATE_ADV_INITIATED. It automatically changes to
 725:Generated_Source\PSoC6\pdl\middleware\ble/cy_ble_gap.h **** *  #CY_BLE_ADV_STATE_ADVERTISING when #CY_BLE_EVT_GAPP_ADVERTISEMENT_START_STOP
 726:Generated_Source\PSoC6\pdl\middleware\ble/cy_ble_gap.h **** *  event is received. When Cy_BLE_GAPP_StopAdvertisement() is called, the
 727:Generated_Source\PSoC6\pdl\middleware\ble/cy_ble_gap.h **** *  state is set to #CY_BLE_ADV_STATE_STOP_INITIATED. It automatically changes
 728:Generated_Source\PSoC6\pdl\middleware\ble/cy_ble_gap.h **** *  to #CY_BLE_ADV_STATE_STOPPED when the #CY_BLE_EVT_GAPP_ADVERTISEMENT_START_STOP
ARM GAS  C:\Users\hkmnt\AppData\Local\Temp\ccBdSSuH.s 			page 31


 729:Generated_Source\PSoC6\pdl\middleware\ble/cy_ble_gap.h **** *  event is received.
 730:Generated_Source\PSoC6\pdl\middleware\ble/cy_ble_gap.h **** *
 731:Generated_Source\PSoC6\pdl\middleware\ble/cy_ble_gap.h **** * \return
 732:Generated_Source\PSoC6\pdl\middleware\ble/cy_ble_gap.h **** * \ref cy_en_ble_adv_state_t :The current advertising state. The following are 
 733:Generated_Source\PSoC6\pdl\middleware\ble/cy_ble_gap.h **** *                              possible states.
 734:Generated_Source\PSoC6\pdl\middleware\ble/cy_ble_gap.h **** *
 735:Generated_Source\PSoC6\pdl\middleware\ble/cy_ble_gap.h **** *               State                |         Description
 736:Generated_Source\PSoC6\pdl\middleware\ble/cy_ble_gap.h **** *   -------------------------------- | -----------------------------
 737:Generated_Source\PSoC6\pdl\middleware\ble/cy_ble_gap.h **** *   CY_BLE_ADV_STATE_STOPPED         | Advertising is stopped.
 738:Generated_Source\PSoC6\pdl\middleware\ble/cy_ble_gap.h **** *   CY_BLE_ADV_STATE_ADV_INITIATED   | Advertising is initiated.
 739:Generated_Source\PSoC6\pdl\middleware\ble/cy_ble_gap.h **** *   CY_BLE_ADV_STATE_ADVERTISING     | Advertising is initiated.
 740:Generated_Source\PSoC6\pdl\middleware\ble/cy_ble_gap.h **** *   CY_BLE_ADV_STATE_STOP_INITIATED  | Stop advertising is initiated.
 741:Generated_Source\PSoC6\pdl\middleware\ble/cy_ble_gap.h **** *
 742:Generated_Source\PSoC6\pdl\middleware\ble/cy_ble_gap.h **** ******************************************************************************/
 743:Generated_Source\PSoC6\pdl\middleware\ble/cy_ble_gap.h **** __STATIC_INLINE cy_en_ble_adv_state_t Cy_BLE_GetAdvertisementState(void)
 744:Generated_Source\PSoC6\pdl\middleware\ble/cy_ble_gap.h **** {
 745:Generated_Source\PSoC6\pdl\middleware\ble/cy_ble_gap.h ****     return(cy_ble_advState);
 746:Generated_Source\PSoC6\pdl\middleware\ble/cy_ble_gap.h **** }
 747:Generated_Source\PSoC6\pdl\middleware\ble/cy_ble_gap.h **** 
 748:Generated_Source\PSoC6\pdl\middleware\ble/cy_ble_gap.h **** /** \cond IGNORE */
 749:Generated_Source\PSoC6\pdl\middleware\ble/cy_ble_gap.h **** /******************************************************************************
 750:Generated_Source\PSoC6\pdl\middleware\ble/cy_ble_gap.h **** * Function Name: Cy_BLE_SetAdvertisementState
 751:Generated_Source\PSoC6\pdl\middleware\ble/cy_ble_gap.h **** ***************************************************************************//**
 752:Generated_Source\PSoC6\pdl\middleware\ble/cy_ble_gap.h **** *
 753:Generated_Source\PSoC6\pdl\middleware\ble/cy_ble_gap.h **** *  Used to set the state of the link layer hardware advertisement engine.
 754:Generated_Source\PSoC6\pdl\middleware\ble/cy_ble_gap.h **** *
 755:Generated_Source\PSoC6\pdl\middleware\ble/cy_ble_gap.h **** *  \param state: The desired state.
 756:Generated_Source\PSoC6\pdl\middleware\ble/cy_ble_gap.h **** *
 757:Generated_Source\PSoC6\pdl\middleware\ble/cy_ble_gap.h **** * \return
 758:Generated_Source\PSoC6\pdl\middleware\ble/cy_ble_gap.h **** *  None
 759:Generated_Source\PSoC6\pdl\middleware\ble/cy_ble_gap.h **** *
 760:Generated_Source\PSoC6\pdl\middleware\ble/cy_ble_gap.h **** ******************************************************************************/
 761:Generated_Source\PSoC6\pdl\middleware\ble/cy_ble_gap.h **** __STATIC_INLINE void Cy_BLE_SetAdvertisementState(cy_en_ble_adv_state_t state)
 762:Generated_Source\PSoC6\pdl\middleware\ble/cy_ble_gap.h **** {
 763:Generated_Source\PSoC6\pdl\middleware\ble/cy_ble_gap.h ****     cy_ble_advState = state;
 559              		.loc 2 763 0
 560 01e6 4F4A     		ldr	r2, .L103+20
 561 01e8 1370     		strb	r3, [r2]
 562              	.LVL50:
 563              	.LBE83:
 564              	.LBE82:
 391:Generated_Source\PSoC6\pdl\middleware\ble/cy_ble_event_handler.c **** 
 392:Generated_Source\PSoC6\pdl\middleware\ble/cy_ble_event_handler.c ****             #if (CY_BLE_GAP_ROLE_PERIPHERAL || CY_BLE_GAP_ROLE_BROADCASTER)
 393:Generated_Source\PSoC6\pdl\middleware\ble/cy_ble_event_handler.c ****             Cy_BLE_SetAdvertisementState(CY_BLE_ADV_STATE_STOPPED);
 394:Generated_Source\PSoC6\pdl\middleware\ble/cy_ble_event_handler.c ****             #endif  /* (CY_BLE_GAP_ROLE_PERIPHERAL || CY_BLE_GAP_ROLE_BROADCASTER) */
 395:Generated_Source\PSoC6\pdl\middleware\ble/cy_ble_event_handler.c **** 
 396:Generated_Source\PSoC6\pdl\middleware\ble/cy_ble_event_handler.c ****             #if (CY_BLE_GAP_ROLE_CENTRAL || CY_BLE_GAP_ROLE_OBSERVER)
 397:Generated_Source\PSoC6\pdl\middleware\ble/cy_ble_event_handler.c ****             Cy_BLE_SetScanState(CY_BLE_SCAN_STATE_STOPPED);
 398:Generated_Source\PSoC6\pdl\middleware\ble/cy_ble_event_handler.c ****             #endif /* (CY_BLE_GAP_ROLE_CENTRAL || CY_BLE_GAP_ROLE_OBSERVER) */
 399:Generated_Source\PSoC6\pdl\middleware\ble/cy_ble_event_handler.c ****             
 400:Generated_Source\PSoC6\pdl\middleware\ble/cy_ble_event_handler.c ****             /* Clean pair status */
 401:Generated_Source\PSoC6\pdl\middleware\ble/cy_ble_event_handler.c ****             #if ((CY_BLE_GAP_ROLE_PERIPHERAL || CY_BLE_GAP_ROLE_CENTRAL))
 402:Generated_Source\PSoC6\pdl\middleware\ble/cy_ble_event_handler.c ****             (void)memset((uint8_t*)cy_ble_pairStatus, 0, sizeof(cy_ble_pairStatus));
 565              		.loc 1 402 0
 566 01ea 4F4A     		ldr	r2, .L103+24
 567 01ec 1370     		strb	r3, [r2]
 403:Generated_Source\PSoC6\pdl\middleware\ble/cy_ble_event_handler.c ****             #endif /*((CY_BLE_GAP_ROLE_PERIPHERAL || CY_BLE_GAP_ROLE_CENTRAL))*/
ARM GAS  C:\Users\hkmnt\AppData\Local\Temp\ccBdSSuH.s 			page 32


 404:Generated_Source\PSoC6\pdl\middleware\ble/cy_ble_event_handler.c **** 
 405:Generated_Source\PSoC6\pdl\middleware\ble/cy_ble_event_handler.c ****             /* Adding a delay of 10ms to ensure that the controller is completely 
 406:Generated_Source\PSoC6\pdl\middleware\ble/cy_ble_event_handler.c ****              * shut-down before generating the event to the application.
 407:Generated_Source\PSoC6\pdl\middleware\ble/cy_ble_event_handler.c ****              * Refer to CY_BLE_EVT_STACK_SHUTDOWN_COMPLETE event documentation. */
 408:Generated_Source\PSoC6\pdl\middleware\ble/cy_ble_event_handler.c ****             #if(CY_BLE_STACK_MODE_HOST_IPC)
 409:Generated_Source\PSoC6\pdl\middleware\ble/cy_ble_event_handler.c ****                 Cy_SysLib_Delay(10u);
 568              		.loc 1 409 0
 569 01ee 0A20     		movs	r0, #10
 570              	.LVL51:
 571 01f0 FFF7FEFF 		bl	Cy_SysLib_Delay
 572              	.LVL52:
 410:Generated_Source\PSoC6\pdl\middleware\ble/cy_ble_event_handler.c ****             #endif /* CY_BLE_STACK_MODE_HOST_IPC */  
 411:Generated_Source\PSoC6\pdl\middleware\ble/cy_ble_event_handler.c **** 
 412:Generated_Source\PSoC6\pdl\middleware\ble/cy_ble_event_handler.c ****             if ( event == CY_BLE_EVT_STACK_SHUTDOWN_COMPLETE)
 573              		.loc 1 412 0
 574 01f4 43F21203 		movw	r3, #12306
 575 01f8 9C42     		cmp	r4, r3
 576 01fa 40F0EF81 		bne	.L34
 413:Generated_Source\PSoC6\pdl\middleware\ble/cy_ble_event_handler.c ****             {
 414:Generated_Source\PSoC6\pdl\middleware\ble/cy_ble_event_handler.c ****                 /* Unregister BLE callback for Deepsleep/Sleep */
 415:Generated_Source\PSoC6\pdl\middleware\ble/cy_ble_event_handler.c ****                 Cy_BLE_UnregisterHostPMCallbacks();
 577              		.loc 1 415 0
 578 01fe FFF7FEFF 		bl	Cy_BLE_UnregisterHostPMCallbacks
 579              	.LVL53:
 580 0202 EBE1     		b	.L34
 581              	.LVL54:
 582              	.L44:
 416:Generated_Source\PSoC6\pdl\middleware\ble/cy_ble_event_handler.c ****             }
 417:Generated_Source\PSoC6\pdl\middleware\ble/cy_ble_event_handler.c ****             break;
 418:Generated_Source\PSoC6\pdl\middleware\ble/cy_ble_event_handler.c **** 
 419:Generated_Source\PSoC6\pdl\middleware\ble/cy_ble_event_handler.c ****         case CY_BLE_EVT_LE_SET_EVENT_MASK_COMPLETE:
 420:Generated_Source\PSoC6\pdl\middleware\ble/cy_ble_event_handler.c ****         #if (CY_BLE_MODE_PROFILE)
 421:Generated_Source\PSoC6\pdl\middleware\ble/cy_ble_event_handler.c ****             {
 422:Generated_Source\PSoC6\pdl\middleware\ble/cy_ble_event_handler.c ****                 if((cy_ble_cmdStatus & CY_BLE_STATUS_SET_TX_PWR_LVL) == 0u)
 583              		.loc 1 422 0
 584 0204 494B     		ldr	r3, .L103+28
 585 0206 1B68     		ldr	r3, [r3]
 586 0208 13F0010F 		tst	r3, #1
 587 020c 40F0E681 		bne	.L34
 588              	.LBB84:
 423:Generated_Source\PSoC6\pdl\middleware\ble/cy_ble_event_handler.c ****                 {
 424:Generated_Source\PSoC6\pdl\middleware\ble/cy_ble_event_handler.c ****                     cy_stc_ble_tx_pwr_lvl_info_t bleSsPowerLevel = { .pwrConfigParam.bdHandle = 0x0
 589              		.loc 1 424 0
 590 0210 0023     		movs	r3, #0
 591 0212 ADF81030 		strh	r3, [sp, #16]	@ movhi
 592 0216 8DF81230 		strb	r3, [sp, #18]
 425:Generated_Source\PSoC6\pdl\middleware\ble/cy_ble_event_handler.c **** 
 426:Generated_Source\PSoC6\pdl\middleware\ble/cy_ble_event_handler.c ****                     /* Set the Tx Power Level for advertising and connection channels */
 427:Generated_Source\PSoC6\pdl\middleware\ble/cy_ble_event_handler.c ****                     bleSsPowerLevel.blePwrLevel = cy_ble_configPtr->params->txPowerLevelAdv;
 593              		.loc 1 427 0
 594 021a 3F4E     		ldr	r6, .L103+8
 595 021c 3368     		ldr	r3, [r6]
 596 021e 9B6A     		ldr	r3, [r3, #40]
 597 0220 93F90030 		ldrsb	r3, [r3]
 598 0224 8DF81030 		strb	r3, [sp, #16]
 428:Generated_Source\PSoC6\pdl\middleware\ble/cy_ble_event_handler.c ****                     bleSsPowerLevel.pwrConfigParam.bleSsChId = CY_BLE_LL_ADV_CH_TYPE;
 429:Generated_Source\PSoC6\pdl\middleware\ble/cy_ble_event_handler.c ****                     (void)Cy_BLE_SetTxPowerLevel(&bleSsPowerLevel);
ARM GAS  C:\Users\hkmnt\AppData\Local\Temp\ccBdSSuH.s 			page 33


 599              		.loc 1 429 0
 600 0228 04A8     		add	r0, sp, #16
 601              	.LVL55:
 602 022a FFF7FEFF 		bl	Cy_BLE_SetTxPowerLevel
 603              	.LVL56:
 430:Generated_Source\PSoC6\pdl\middleware\ble/cy_ble_event_handler.c **** 
 431:Generated_Source\PSoC6\pdl\middleware\ble/cy_ble_event_handler.c ****                     bleSsPowerLevel.blePwrLevel = cy_ble_configPtr->params->txPowerLevelConn;
 604              		.loc 1 431 0
 605 022e 3368     		ldr	r3, [r6]
 606 0230 9B6A     		ldr	r3, [r3, #40]
 607 0232 93F90130 		ldrsb	r3, [r3, #1]
 608 0236 8DF81030 		strb	r3, [sp, #16]
 432:Generated_Source\PSoC6\pdl\middleware\ble/cy_ble_event_handler.c ****                     bleSsPowerLevel.pwrConfigParam.bleSsChId = CY_BLE_LL_CONN_CH_TYPE;
 609              		.loc 1 432 0
 610 023a 0123     		movs	r3, #1
 611 023c 8DF81130 		strb	r3, [sp, #17]
 433:Generated_Source\PSoC6\pdl\middleware\ble/cy_ble_event_handler.c ****                     bleSsPowerLevel.pwrConfigParam.bdHandle = 0xFFu; /* Set the tx power level valu
 612              		.loc 1 433 0
 613 0240 FF23     		movs	r3, #255
 614 0242 8DF81230 		strb	r3, [sp, #18]
 434:Generated_Source\PSoC6\pdl\middleware\ble/cy_ble_event_handler.c ****                     (void)Cy_BLE_SetTxPowerLevel(&bleSsPowerLevel);
 615              		.loc 1 434 0
 616 0246 04A8     		add	r0, sp, #16
 617 0248 FFF7FEFF 		bl	Cy_BLE_SetTxPowerLevel
 618              	.LVL57:
 435:Generated_Source\PSoC6\pdl\middleware\ble/cy_ble_event_handler.c ****                     
 436:Generated_Source\PSoC6\pdl\middleware\ble/cy_ble_event_handler.c ****                     /* Set flag that executed Cy_BLE_SetTxPowerLevel during BLE start-up  */
 437:Generated_Source\PSoC6\pdl\middleware\ble/cy_ble_event_handler.c ****                     cy_ble_cmdStatus |= CY_BLE_STATUS_SET_TX_PWR_LVL;
 619              		.loc 1 437 0
 620 024c 374A     		ldr	r2, .L103+28
 621 024e 1368     		ldr	r3, [r2]
 622 0250 43F00103 		orr	r3, r3, #1
 623 0254 1360     		str	r3, [r2]
 624 0256 C1E1     		b	.L34
 625              	.LVL58:
 626              	.L42:
 627              	.LBE84:
 438:Generated_Source\PSoC6\pdl\middleware\ble/cy_ble_event_handler.c ****                 }
 439:Generated_Source\PSoC6\pdl\middleware\ble/cy_ble_event_handler.c ****             }
 440:Generated_Source\PSoC6\pdl\middleware\ble/cy_ble_event_handler.c ****         #endif /* CY_BLE_MODE_PROFILE */
 441:Generated_Source\PSoC6\pdl\middleware\ble/cy_ble_event_handler.c ****             break;
 442:Generated_Source\PSoC6\pdl\middleware\ble/cy_ble_event_handler.c ****             
 443:Generated_Source\PSoC6\pdl\middleware\ble/cy_ble_event_handler.c ****         case CY_BLE_EVT_TIMEOUT:
 444:Generated_Source\PSoC6\pdl\middleware\ble/cy_ble_event_handler.c ****             Cy_BLE_TimeOutEventHandler((cy_stc_ble_timeout_param_t*)evParam);
 445:Generated_Source\PSoC6\pdl\middleware\ble/cy_ble_event_handler.c ****         #if (CY_BLE_GAP_ROLE_PERIPHERAL || CY_BLE_GAP_ROLE_CENTRAL)
 446:Generated_Source\PSoC6\pdl\middleware\ble/cy_ble_event_handler.c ****             (void)Cy_BLE_InvokeServiceEventHandler((uint32_t)event, (void*)evParam);
 628              		.loc 1 446 0
 629 0258 FFF7FEFF 		bl	Cy_BLE_InvokeServiceEventHandler
 630              	.LVL59:
 447:Generated_Source\PSoC6\pdl\middleware\ble/cy_ble_event_handler.c ****         #endif /*(CY_BLE_GAP_ROLE_PERIPHERAL || CY_BLE_GAP_ROLE_CENTRAL)*/
 448:Generated_Source\PSoC6\pdl\middleware\ble/cy_ble_event_handler.c ****             break;
 631              		.loc 1 448 0
 632 025c BEE1     		b	.L34
 633              	.LVL60:
 634              	.L39:
 449:Generated_Source\PSoC6\pdl\middleware\ble/cy_ble_event_handler.c **** 
 450:Generated_Source\PSoC6\pdl\middleware\ble/cy_ble_event_handler.c ****         case CY_BLE_EVT_STACK_BUSY_STATUS:
ARM GAS  C:\Users\hkmnt\AppData\Local\Temp\ccBdSSuH.s 			page 34


 451:Generated_Source\PSoC6\pdl\middleware\ble/cy_ble_event_handler.c ****         #if (CY_BLE_GAP_ROLE_PERIPHERAL || CY_BLE_GAP_ROLE_CENTRAL)
 452:Generated_Source\PSoC6\pdl\middleware\ble/cy_ble_event_handler.c ****             cy_ble_busyStatus[Cy_BLE_GetConnHandleByBdHandle(((cy_stc_ble_l2cap_state_info_t*)evPar
 635              		.loc 1 452 0
 636 025e 4978     		ldrb	r1, [r1, #1]	@ zero_extendqisi2
 637              	.LVL61:
 638              	.LBB85:
 639              	.LBB86:
 764:Generated_Source\PSoC6\pdl\middleware\ble/cy_ble_gap.h **** }
 765:Generated_Source\PSoC6\pdl\middleware\ble/cy_ble_gap.h **** /** \endcond */
 766:Generated_Source\PSoC6\pdl\middleware\ble/cy_ble_gap.h **** 
 767:Generated_Source\PSoC6\pdl\middleware\ble/cy_ble_gap.h **** #endif /* (CY_BLE_GAP_ROLE_PERIPHERAL || CY_BLE_GAP_ROLE_BROADCASTER) */
 768:Generated_Source\PSoC6\pdl\middleware\ble/cy_ble_gap.h **** 
 769:Generated_Source\PSoC6\pdl\middleware\ble/cy_ble_gap.h **** #if (CY_BLE_GAP_ROLE_CENTRAL || CY_BLE_GAP_ROLE_OBSERVER)
 770:Generated_Source\PSoC6\pdl\middleware\ble/cy_ble_gap.h **** 
 771:Generated_Source\PSoC6\pdl\middleware\ble/cy_ble_gap.h **** /******************************************************************************
 772:Generated_Source\PSoC6\pdl\middleware\ble/cy_ble_gap.h **** * Function Name: Cy_BLE_GetScanState
 773:Generated_Source\PSoC6\pdl\middleware\ble/cy_ble_gap.h **** ***************************************************************************//**
 774:Generated_Source\PSoC6\pdl\middleware\ble/cy_ble_gap.h **** *    
 775:Generated_Source\PSoC6\pdl\middleware\ble/cy_ble_gap.h **** *  This returns the state of the link layer hardware scan engine.
 776:Generated_Source\PSoC6\pdl\middleware\ble/cy_ble_gap.h **** *
 777:Generated_Source\PSoC6\pdl\middleware\ble/cy_ble_gap.h **** *  \image html ble_scanning_state_machine.png
 778:Generated_Source\PSoC6\pdl\middleware\ble/cy_ble_gap.h **** *   
 779:Generated_Source\PSoC6\pdl\middleware\ble/cy_ble_gap.h **** *  When Cy_BLE_GAPC_StartScan() is called the state is set to
 780:Generated_Source\PSoC6\pdl\middleware\ble/cy_ble_gap.h **** *  #CY_BLE_SCAN_STATE_SCAN_INITIATED. It automatically changes to
 781:Generated_Source\PSoC6\pdl\middleware\ble/cy_ble_gap.h **** *  #CY_BLE_SCAN_STATE_SCANNING when the #CY_BLE_EVT_GAPC_SCAN_START_STOP event is
 782:Generated_Source\PSoC6\pdl\middleware\ble/cy_ble_gap.h **** *  received. 
 783:Generated_Source\PSoC6\pdl\middleware\ble/cy_ble_gap.h **** *  When Cy_BLE_GAPC_StopScan() is called, the state is set to
 784:Generated_Source\PSoC6\pdl\middleware\ble/cy_ble_gap.h **** *  #CY_BLE_SCAN_STATE_STOP_INITIATED. It automatically changes to
 785:Generated_Source\PSoC6\pdl\middleware\ble/cy_ble_gap.h **** *  #CY_BLE_SCAN_STATE_STOPPED when the #CY_BLE_EVT_GAPC_SCAN_START_STOP event is
 786:Generated_Source\PSoC6\pdl\middleware\ble/cy_ble_gap.h **** *  received.
 787:Generated_Source\PSoC6\pdl\middleware\ble/cy_ble_gap.h **** *
 788:Generated_Source\PSoC6\pdl\middleware\ble/cy_ble_gap.h **** *  \return
 789:Generated_Source\PSoC6\pdl\middleware\ble/cy_ble_gap.h **** *  \ref cy_en_ble_scan_state_t : The current scan state. The following are 
 790:Generated_Source\PSoC6\pdl\middleware\ble/cy_ble_gap.h **** *                                possible states.
 791:Generated_Source\PSoC6\pdl\middleware\ble/cy_ble_gap.h **** *
 792:Generated_Source\PSoC6\pdl\middleware\ble/cy_ble_gap.h **** *               State                |         Description
 793:Generated_Source\PSoC6\pdl\middleware\ble/cy_ble_gap.h **** *   -------------------------------- | -----------------------------
 794:Generated_Source\PSoC6\pdl\middleware\ble/cy_ble_gap.h **** *   CY_BLE_SCAN_STATE_STOPPED        | Scanning is stopped.
 795:Generated_Source\PSoC6\pdl\middleware\ble/cy_ble_gap.h **** *   CY_BLE_SCAN_STATE_SCAN_INITIATED | Scanning is initiated.
 796:Generated_Source\PSoC6\pdl\middleware\ble/cy_ble_gap.h **** *   CY_BLE_SCAN_STATE_SCANNING       | Scanning process.
 797:Generated_Source\PSoC6\pdl\middleware\ble/cy_ble_gap.h **** *   CY_BLE_SCAN_STATE_STOP_INITIATED | Stop scanning is initiated.
 798:Generated_Source\PSoC6\pdl\middleware\ble/cy_ble_gap.h **** *
 799:Generated_Source\PSoC6\pdl\middleware\ble/cy_ble_gap.h **** ******************************************************************************/
 800:Generated_Source\PSoC6\pdl\middleware\ble/cy_ble_gap.h **** __STATIC_INLINE cy_en_ble_scan_state_t Cy_BLE_GetScanState(void)
 801:Generated_Source\PSoC6\pdl\middleware\ble/cy_ble_gap.h **** {
 802:Generated_Source\PSoC6\pdl\middleware\ble/cy_ble_gap.h ****     return(cy_ble_scanState);
 803:Generated_Source\PSoC6\pdl\middleware\ble/cy_ble_gap.h **** }
 804:Generated_Source\PSoC6\pdl\middleware\ble/cy_ble_gap.h **** 
 805:Generated_Source\PSoC6\pdl\middleware\ble/cy_ble_gap.h **** /** \cond IGNORE */
 806:Generated_Source\PSoC6\pdl\middleware\ble/cy_ble_gap.h **** /******************************************************************************
 807:Generated_Source\PSoC6\pdl\middleware\ble/cy_ble_gap.h **** * Function Name: Cy_BLE_SetScanState
 808:Generated_Source\PSoC6\pdl\middleware\ble/cy_ble_gap.h **** ***************************************************************************//**
 809:Generated_Source\PSoC6\pdl\middleware\ble/cy_ble_gap.h **** *
 810:Generated_Source\PSoC6\pdl\middleware\ble/cy_ble_gap.h **** *  Used to set the state of the link layer hardware scan engine.
 811:Generated_Source\PSoC6\pdl\middleware\ble/cy_ble_gap.h **** *
 812:Generated_Source\PSoC6\pdl\middleware\ble/cy_ble_gap.h **** *  \param state: The desired state.
 813:Generated_Source\PSoC6\pdl\middleware\ble/cy_ble_gap.h **** *
ARM GAS  C:\Users\hkmnt\AppData\Local\Temp\ccBdSSuH.s 			page 35


 814:Generated_Source\PSoC6\pdl\middleware\ble/cy_ble_gap.h **** *  \return
 815:Generated_Source\PSoC6\pdl\middleware\ble/cy_ble_gap.h **** *  None
 816:Generated_Source\PSoC6\pdl\middleware\ble/cy_ble_gap.h **** *
 817:Generated_Source\PSoC6\pdl\middleware\ble/cy_ble_gap.h **** ******************************************************************************/
 818:Generated_Source\PSoC6\pdl\middleware\ble/cy_ble_gap.h **** __STATIC_INLINE void Cy_BLE_SetScanState(cy_en_ble_scan_state_t state)
 819:Generated_Source\PSoC6\pdl\middleware\ble/cy_ble_gap.h **** {
 820:Generated_Source\PSoC6\pdl\middleware\ble/cy_ble_gap.h ****     cy_ble_scanState = state;
 821:Generated_Source\PSoC6\pdl\middleware\ble/cy_ble_gap.h **** }
 822:Generated_Source\PSoC6\pdl\middleware\ble/cy_ble_gap.h **** /** \endcond */
 823:Generated_Source\PSoC6\pdl\middleware\ble/cy_ble_gap.h **** 
 824:Generated_Source\PSoC6\pdl\middleware\ble/cy_ble_gap.h **** #endif  /* (CY_BLE_GAP_ROLE_CENTRAL || CY_BLE_GAP_ROLE_OBSERVER) */
 825:Generated_Source\PSoC6\pdl\middleware\ble/cy_ble_gap.h **** 
 826:Generated_Source\PSoC6\pdl\middleware\ble/cy_ble_gap.h ****  
 827:Generated_Source\PSoC6\pdl\middleware\ble/cy_ble_gap.h **** #if ((CY_BLE_GAP_ROLE_PERIPHERAL || CY_BLE_GAP_ROLE_CENTRAL))
 828:Generated_Source\PSoC6\pdl\middleware\ble/cy_ble_gap.h **** 
 829:Generated_Source\PSoC6\pdl\middleware\ble/cy_ble_gap.h **** /******************************************************************************
 830:Generated_Source\PSoC6\pdl\middleware\ble/cy_ble_gap.h **** * Function Name: Cy_BLE_GetConnectionState
 831:Generated_Source\PSoC6\pdl\middleware\ble/cy_ble_gap.h **** ***************************************************************************//**
 832:Generated_Source\PSoC6\pdl\middleware\ble/cy_ble_gap.h **** *  This function returns the state of the BLE link for the specified connection
 833:Generated_Source\PSoC6\pdl\middleware\ble/cy_ble_gap.h **** *  handle.
 834:Generated_Source\PSoC6\pdl\middleware\ble/cy_ble_gap.h **** *
 835:Generated_Source\PSoC6\pdl\middleware\ble/cy_ble_gap.h **** *  The state is set to #CY_BLE_CONN_STATE_CONNECTED when #CY_BLE_EVT_GATT_CONNECT_IND
 836:Generated_Source\PSoC6\pdl\middleware\ble/cy_ble_gap.h **** *  event is received with the corresponding connection handle.
 837:Generated_Source\PSoC6\pdl\middleware\ble/cy_ble_gap.h **** *  The state is set to #CY_BLE_CONN_STATE_DISCONNECTED when the
 838:Generated_Source\PSoC6\pdl\middleware\ble/cy_ble_gap.h **** *  #CY_BLE_EVT_GATT_DISCONNECT_IND event is received.
 839:Generated_Source\PSoC6\pdl\middleware\ble/cy_ble_gap.h **** *
 840:Generated_Source\PSoC6\pdl\middleware\ble/cy_ble_gap.h **** *  For GATT Client role when Cy_BLE_GATTC_StartDiscovery() is called, the state
 841:Generated_Source\PSoC6\pdl\middleware\ble/cy_ble_gap.h **** *  indicates the current flow of the discovery procedure by
 842:Generated_Source\PSoC6\pdl\middleware\ble/cy_ble_gap.h **** *  #CY_BLE_CONN_STATE_CLIENT_SRVC_DISCOVERING,
 843:Generated_Source\PSoC6\pdl\middleware\ble/cy_ble_gap.h **** *  #CY_BLE_CONN_STATE_CLIENT_INCL_DISCOVERING,
 844:Generated_Source\PSoC6\pdl\middleware\ble/cy_ble_gap.h **** *  #CY_BLE_CONN_STATE_CLIENT_CHAR_DISCOVERING,
 845:Generated_Source\PSoC6\pdl\middleware\ble/cy_ble_gap.h **** *  #CY_BLE_CONN_STATE_CLIENT_DESCR_DISCOVERING and changes to
 846:Generated_Source\PSoC6\pdl\middleware\ble/cy_ble_gap.h **** *  #CY_BLE_CONN_STATE_CLIENT_DISCOVERED when the procedure successfully completes.
 847:Generated_Source\PSoC6\pdl\middleware\ble/cy_ble_gap.h **** *
 848:Generated_Source\PSoC6\pdl\middleware\ble/cy_ble_gap.h **** *  The state changes from #CY_BLE_CONN_STATE_CLIENT_DISCOVERED to
 849:Generated_Source\PSoC6\pdl\middleware\ble/cy_ble_gap.h **** *  #CY_BLE_CONN_STATE_CLIENT_DISCONNECTED_DISCOVERED when
 850:Generated_Source\PSoC6\pdl\middleware\ble/cy_ble_gap.h **** *  the #CY_BLE_EVT_GATT_DISCONNECT_IND event is received.
 851:Generated_Source\PSoC6\pdl\middleware\ble/cy_ble_gap.h **** *  The state comes backs to #CY_BLE_CONN_STATE_CLIENT_DISCOVERED when
 852:Generated_Source\PSoC6\pdl\middleware\ble/cy_ble_gap.h **** *  #CY_BLE_EVT_GATT_CONNECT_IND event is received and resolvable device
 853:Generated_Source\PSoC6\pdl\middleware\ble/cy_ble_gap.h **** *  address is not changed.
 854:Generated_Source\PSoC6\pdl\middleware\ble/cy_ble_gap.h **** *
 855:Generated_Source\PSoC6\pdl\middleware\ble/cy_ble_gap.h **** *  \param connHandle: The connection handle.
 856:Generated_Source\PSoC6\pdl\middleware\ble/cy_ble_gap.h **** *
 857:Generated_Source\PSoC6\pdl\middleware\ble/cy_ble_gap.h **** * \return
 858:Generated_Source\PSoC6\pdl\middleware\ble/cy_ble_gap.h **** * \ref cy_en_ble_conn_state_t : The current client state. The following are 
 859:Generated_Source\PSoC6\pdl\middleware\ble/cy_ble_gap.h **** *                               possible states.
 860:Generated_Source\PSoC6\pdl\middleware\ble/cy_ble_gap.h **** *
 861:Generated_Source\PSoC6\pdl\middleware\ble/cy_ble_gap.h **** *               State                                |         Description
 862:Generated_Source\PSoC6\pdl\middleware\ble/cy_ble_gap.h **** *   ------------------------------------------------ | -----------------------------
 863:Generated_Source\PSoC6\pdl\middleware\ble/cy_ble_gap.h **** *   CY_BLE_CONN_STATE_DISCONNECTED                   | Essentially idle state
 864:Generated_Source\PSoC6\pdl\middleware\ble/cy_ble_gap.h **** *   CY_BLE_CONN_STATE_CLIENT_DISCONNECTED_DISCOVERED | Server is disconnected but discovered.
 865:Generated_Source\PSoC6\pdl\middleware\ble/cy_ble_gap.h **** *   CY_BLE_CONN_STATE_CONNECTED                      | Peer device is connected for this and follow
 866:Generated_Source\PSoC6\pdl\middleware\ble/cy_ble_gap.h **** *   CY_BLE_CONN_STATE_CLIENT_SRVC_DISCOVERING        | Server services are being discovered.
 867:Generated_Source\PSoC6\pdl\middleware\ble/cy_ble_gap.h **** *   CY_BLE_CONN_STATE_CLIENT_INCL_DISCOVERING        | Server included services are being discovere
 868:Generated_Source\PSoC6\pdl\middleware\ble/cy_ble_gap.h **** *   CY_BLE_CONN_STATE_CLIENT_CHAR_DISCOVERING        | Server characteristics are being discovered
 869:Generated_Source\PSoC6\pdl\middleware\ble/cy_ble_gap.h **** *   CY_BLE_CONN_STATE_CLIENT_DESCR_DISCOVERING       | Server char. descriptors are being discovere
 870:Generated_Source\PSoC6\pdl\middleware\ble/cy_ble_gap.h **** *   CY_BLE_CONN_STATE_CLIENT_DISCOVERED              | Server is discovered   
ARM GAS  C:\Users\hkmnt\AppData\Local\Temp\ccBdSSuH.s 			page 36


 871:Generated_Source\PSoC6\pdl\middleware\ble/cy_ble_gap.h **** *
 872:Generated_Source\PSoC6\pdl\middleware\ble/cy_ble_gap.h **** *  \funcusage 
 873:Generated_Source\PSoC6\pdl\middleware\ble/cy_ble_gap.h **** *  \snippet ble\3.0\snippet\main.c BLE Common API: Cy_BLE_GetConnectionState()
 874:Generated_Source\PSoC6\pdl\middleware\ble/cy_ble_gap.h **** *
 875:Generated_Source\PSoC6\pdl\middleware\ble/cy_ble_gap.h **** ******************************************************************************/
 876:Generated_Source\PSoC6\pdl\middleware\ble/cy_ble_gap.h **** __STATIC_INLINE cy_en_ble_conn_state_t Cy_BLE_GetConnectionState(cy_stc_ble_conn_handle_t connHandl
 877:Generated_Source\PSoC6\pdl\middleware\ble/cy_ble_gap.h **** {
 878:Generated_Source\PSoC6\pdl\middleware\ble/cy_ble_gap.h ****     return((connHandle.attId < CY_BLE_CONN_COUNT) ? cy_ble_connState[connHandle.attId] : CY_BLE_CON
 879:Generated_Source\PSoC6\pdl\middleware\ble/cy_ble_gap.h **** }
 880:Generated_Source\PSoC6\pdl\middleware\ble/cy_ble_gap.h **** 
 881:Generated_Source\PSoC6\pdl\middleware\ble/cy_ble_gap.h **** /** \cond IGNORE */
 882:Generated_Source\PSoC6\pdl\middleware\ble/cy_ble_gap.h **** /******************************************************************************
 883:Generated_Source\PSoC6\pdl\middleware\ble/cy_ble_gap.h **** * Function Name: Cy_BLE_SetConnectionState
 884:Generated_Source\PSoC6\pdl\middleware\ble/cy_ble_gap.h **** ***************************************************************************//**
 885:Generated_Source\PSoC6\pdl\middleware\ble/cy_ble_gap.h **** *
 886:Generated_Source\PSoC6\pdl\middleware\ble/cy_ble_gap.h **** *  Used to set BLE link state for the specified connection handle.
 887:Generated_Source\PSoC6\pdl\middleware\ble/cy_ble_gap.h **** *
 888:Generated_Source\PSoC6\pdl\middleware\ble/cy_ble_gap.h **** *  \param connHandle: Peer device handle
 889:Generated_Source\PSoC6\pdl\middleware\ble/cy_ble_gap.h **** *  \param state:  The state that is desired to be set
 890:Generated_Source\PSoC6\pdl\middleware\ble/cy_ble_gap.h **** *
 891:Generated_Source\PSoC6\pdl\middleware\ble/cy_ble_gap.h **** ******************************************************************************/
 892:Generated_Source\PSoC6\pdl\middleware\ble/cy_ble_gap.h **** __STATIC_INLINE void Cy_BLE_SetConnectionState(cy_stc_ble_conn_handle_t connHandle,
 893:Generated_Source\PSoC6\pdl\middleware\ble/cy_ble_gap.h ****                                                cy_en_ble_conn_state_t state)
 894:Generated_Source\PSoC6\pdl\middleware\ble/cy_ble_gap.h **** {
 895:Generated_Source\PSoC6\pdl\middleware\ble/cy_ble_gap.h ****     if(connHandle.attId < CY_BLE_CONN_COUNT)
 896:Generated_Source\PSoC6\pdl\middleware\ble/cy_ble_gap.h ****     {
 897:Generated_Source\PSoC6\pdl\middleware\ble/cy_ble_gap.h ****         cy_ble_connState[connHandle.attId] = state;
 898:Generated_Source\PSoC6\pdl\middleware\ble/cy_ble_gap.h ****     }
 899:Generated_Source\PSoC6\pdl\middleware\ble/cy_ble_gap.h ****     else
 900:Generated_Source\PSoC6\pdl\middleware\ble/cy_ble_gap.h ****     {
 901:Generated_Source\PSoC6\pdl\middleware\ble/cy_ble_gap.h ****         /* Halt in debug mode*/
 902:Generated_Source\PSoC6\pdl\middleware\ble/cy_ble_gap.h ****         CY_ASSERT(connHandle.attId >= CY_BLE_CONN_COUNT);
 903:Generated_Source\PSoC6\pdl\middleware\ble/cy_ble_gap.h ****     }
 904:Generated_Source\PSoC6\pdl\middleware\ble/cy_ble_gap.h **** }
 905:Generated_Source\PSoC6\pdl\middleware\ble/cy_ble_gap.h **** /** \endcond */
 906:Generated_Source\PSoC6\pdl\middleware\ble/cy_ble_gap.h **** 
 907:Generated_Source\PSoC6\pdl\middleware\ble/cy_ble_gap.h **** /******************************************************************************
 908:Generated_Source\PSoC6\pdl\middleware\ble/cy_ble_gap.h **** * Function Name: Cy_BLE_GetNumOfActiveConn
 909:Generated_Source\PSoC6\pdl\middleware\ble/cy_ble_gap.h **** ***************************************************************************//**
 910:Generated_Source\PSoC6\pdl\middleware\ble/cy_ble_gap.h **** *
 911:Generated_Source\PSoC6\pdl\middleware\ble/cy_ble_gap.h **** *  Used to get active number of connections.
 912:Generated_Source\PSoC6\pdl\middleware\ble/cy_ble_gap.h **** *
 913:Generated_Source\PSoC6\pdl\middleware\ble/cy_ble_gap.h **** *  \return
 914:Generated_Source\PSoC6\pdl\middleware\ble/cy_ble_gap.h **** *  connNum - number of active connections
 915:Generated_Source\PSoC6\pdl\middleware\ble/cy_ble_gap.h **** *
 916:Generated_Source\PSoC6\pdl\middleware\ble/cy_ble_gap.h **** ******************************************************************************/
 917:Generated_Source\PSoC6\pdl\middleware\ble/cy_ble_gap.h **** __STATIC_INLINE uint8_t Cy_BLE_GetNumOfActiveConn(void)
 918:Generated_Source\PSoC6\pdl\middleware\ble/cy_ble_gap.h **** {
 919:Generated_Source\PSoC6\pdl\middleware\ble/cy_ble_gap.h ****     uint32_t i;
 920:Generated_Source\PSoC6\pdl\middleware\ble/cy_ble_gap.h ****     uint8_t connNum = 0u;
 921:Generated_Source\PSoC6\pdl\middleware\ble/cy_ble_gap.h **** 
 922:Generated_Source\PSoC6\pdl\middleware\ble/cy_ble_gap.h ****     for(i = 0u; i < CY_BLE_CONN_COUNT; i++)
 923:Generated_Source\PSoC6\pdl\middleware\ble/cy_ble_gap.h ****     {
 924:Generated_Source\PSoC6\pdl\middleware\ble/cy_ble_gap.h ****         if(cy_ble_connState[i] >= CY_BLE_CONN_STATE_CONNECTED)
 925:Generated_Source\PSoC6\pdl\middleware\ble/cy_ble_gap.h ****         {
 926:Generated_Source\PSoC6\pdl\middleware\ble/cy_ble_gap.h ****             connNum++;
 927:Generated_Source\PSoC6\pdl\middleware\ble/cy_ble_gap.h ****         }
ARM GAS  C:\Users\hkmnt\AppData\Local\Temp\ccBdSSuH.s 			page 37


 928:Generated_Source\PSoC6\pdl\middleware\ble/cy_ble_gap.h ****     }
 929:Generated_Source\PSoC6\pdl\middleware\ble/cy_ble_gap.h **** 
 930:Generated_Source\PSoC6\pdl\middleware\ble/cy_ble_gap.h ****     return(connNum);
 931:Generated_Source\PSoC6\pdl\middleware\ble/cy_ble_gap.h **** }
 932:Generated_Source\PSoC6\pdl\middleware\ble/cy_ble_gap.h **** 
 933:Generated_Source\PSoC6\pdl\middleware\ble/cy_ble_gap.h **** 
 934:Generated_Source\PSoC6\pdl\middleware\ble/cy_ble_gap.h **** /******************************************************************************
 935:Generated_Source\PSoC6\pdl\middleware\ble/cy_ble_gap.h **** * Function Name: Cy_BLE_GetConnHandleByBdHandle
 936:Generated_Source\PSoC6\pdl\middleware\ble/cy_ble_gap.h **** ***************************************************************************//**
 937:Generated_Source\PSoC6\pdl\middleware\ble/cy_ble_gap.h **** *
 938:Generated_Source\PSoC6\pdl\middleware\ble/cy_ble_gap.h **** *  Used to get connection handle by bdHandle
 939:Generated_Source\PSoC6\pdl\middleware\ble/cy_ble_gap.h **** *  This function halts in debug mode if bdHandle does not exist in the connected device
 940:Generated_Source\PSoC6\pdl\middleware\ble/cy_ble_gap.h **** *  list
 941:Generated_Source\PSoC6\pdl\middleware\ble/cy_ble_gap.h **** *
 942:Generated_Source\PSoC6\pdl\middleware\ble/cy_ble_gap.h **** *  \param bdHandle: Peer device handle
 943:Generated_Source\PSoC6\pdl\middleware\ble/cy_ble_gap.h **** *
 944:Generated_Source\PSoC6\pdl\middleware\ble/cy_ble_gap.h **** *  \return
 945:Generated_Source\PSoC6\pdl\middleware\ble/cy_ble_gap.h **** *  * connHandle: Full connection handle.
 946:Generated_Source\PSoC6\pdl\middleware\ble/cy_ble_gap.h **** *  * connHandle.attId = CY_BLE_INVALID_CONN_HANDLE_VALUE: invalid bdHandle
 947:Generated_Source\PSoC6\pdl\middleware\ble/cy_ble_gap.h **** *
 948:Generated_Source\PSoC6\pdl\middleware\ble/cy_ble_gap.h **** ******************************************************************************/
 949:Generated_Source\PSoC6\pdl\middleware\ble/cy_ble_gap.h **** __STATIC_INLINE cy_stc_ble_conn_handle_t Cy_BLE_GetConnHandleByBdHandle(uint8_t bdHandle)
 950:Generated_Source\PSoC6\pdl\middleware\ble/cy_ble_gap.h **** {
 951:Generated_Source\PSoC6\pdl\middleware\ble/cy_ble_gap.h ****     uint32_t i;
 952:Generated_Source\PSoC6\pdl\middleware\ble/cy_ble_gap.h ****     cy_stc_ble_conn_handle_t cHandle =
 640              		.loc 2 952 0
 641 0260 334B     		ldr	r3, .L103+32
 642 0262 1B88     		ldrh	r3, [r3]	@ unaligned
 643 0264 ADF81030 		strh	r3, [sp, #16]	@ unaligned
 644              	.LVL62:
 953:Generated_Source\PSoC6\pdl\middleware\ble/cy_ble_gap.h ****     {
 954:Generated_Source\PSoC6\pdl\middleware\ble/cy_ble_gap.h ****         .attId    = CY_BLE_INVALID_CONN_HANDLE_VALUE,
 955:Generated_Source\PSoC6\pdl\middleware\ble/cy_ble_gap.h ****         .bdHandle = CY_BLE_INVALID_CONN_HANDLE_VALUE
 956:Generated_Source\PSoC6\pdl\middleware\ble/cy_ble_gap.h ****     };
 957:Generated_Source\PSoC6\pdl\middleware\ble/cy_ble_gap.h **** 
 958:Generated_Source\PSoC6\pdl\middleware\ble/cy_ble_gap.h ****     for(i = 0u; i < CY_BLE_CONN_COUNT; i++)
 645              		.loc 2 958 0
 646 0268 0023     		movs	r3, #0
 647 026a 19E0     		b	.L67
 648              	.LVL63:
 649              	.L71:
 650 026c 314A     		ldr	r2, .L103+36
 651 026e 32F81320 		ldrh	r2, [r2, r3, lsl #1]	@ unaligned
 652 0272 ADF80820 		strh	r2, [sp, #8]	@ unaligned
 653              	.LBB87:
 654              	.LBB88:
 878:Generated_Source\PSoC6\pdl\middleware\ble/cy_ble_gap.h **** }
 655              		.loc 2 878 0
 656 0276 9DF80920 		ldrb	r2, [sp, #9]	@ zero_extendqisi2
 657 027a 12B9     		cbnz	r2, .L99
 658 027c 2E48     		ldr	r0, .L103+40
 659 027e 825C     		ldrb	r2, [r0, r2]	@ zero_extendqisi2
 660 0280 00E0     		b	.L68
 661              	.L99:
 662 0282 0022     		movs	r2, #0
 663              	.L68:
 664              	.LBE88:
ARM GAS  C:\Users\hkmnt\AppData\Local\Temp\ccBdSSuH.s 			page 38


 665              	.LBE87:
 959:Generated_Source\PSoC6\pdl\middleware\ble/cy_ble_gap.h ****     {
 960:Generated_Source\PSoC6\pdl\middleware\ble/cy_ble_gap.h ****         if((Cy_BLE_GetConnectionState(cy_ble_connHandle[i]) >= CY_BLE_CONN_STATE_CONNECTED) &&
 666              		.loc 2 960 0
 667 0284 012A     		cmp	r2, #1
 668 0286 0AD9     		bls	.L69
 961:Generated_Source\PSoC6\pdl\middleware\ble/cy_ble_gap.h ****                 (cy_ble_connHandle[i].bdHandle == bdHandle))
 669              		.loc 2 961 0
 670 0288 2A4A     		ldr	r2, .L103+36
 671 028a 12F81320 		ldrb	r2, [r2, r3, lsl #1]	@ zero_extendqisi2
 960:Generated_Source\PSoC6\pdl\middleware\ble/cy_ble_gap.h ****                 (cy_ble_connHandle[i].bdHandle == bdHandle))
 672              		.loc 2 960 0
 673 028e 9142     		cmp	r1, r2
 674 0290 05D1     		bne	.L69
 962:Generated_Source\PSoC6\pdl\middleware\ble/cy_ble_gap.h ****         {
 963:Generated_Source\PSoC6\pdl\middleware\ble/cy_ble_gap.h ****             cHandle = cy_ble_connHandle[i];
 675              		.loc 2 963 0
 676 0292 284A     		ldr	r2, .L103+36
 677 0294 32F81330 		ldrh	r3, [r2, r3, lsl #1]	@ unaligned
 678              	.LVL64:
 679 0298 ADF81030 		strh	r3, [sp, #16]	@ unaligned
 680 029c 02E0     		b	.L70
 681              	.LVL65:
 682              	.L69:
 958:Generated_Source\PSoC6\pdl\middleware\ble/cy_ble_gap.h ****     {
 683              		.loc 2 958 0
 684 029e 0133     		adds	r3, r3, #1
 685              	.LVL66:
 686              	.L67:
 687 02a0 002B     		cmp	r3, #0
 688 02a2 E3D0     		beq	.L71
 689              	.LVL67:
 690              	.L70:
 964:Generated_Source\PSoC6\pdl\middleware\ble/cy_ble_gap.h ****             break;
 965:Generated_Source\PSoC6\pdl\middleware\ble/cy_ble_gap.h ****         }
 966:Generated_Source\PSoC6\pdl\middleware\ble/cy_ble_gap.h ****     }
 967:Generated_Source\PSoC6\pdl\middleware\ble/cy_ble_gap.h ****     if(cHandle.attId == CY_BLE_INVALID_CONN_HANDLE_VALUE)
 691              		.loc 2 967 0
 692 02a4 9DF81130 		ldrb	r3, [sp, #17]	@ zero_extendqisi2
 693 02a8 FF2B     		cmp	r3, #255
 694 02aa 05D1     		bne	.L72
 968:Generated_Source\PSoC6\pdl\middleware\ble/cy_ble_gap.h ****     {
 969:Generated_Source\PSoC6\pdl\middleware\ble/cy_ble_gap.h ****         /* HALT in debug mode */
 970:Generated_Source\PSoC6\pdl\middleware\ble/cy_ble_gap.h ****         CY_ASSERT(cHandle.attId != CY_BLE_INVALID_CONN_HANDLE_VALUE);
 695              		.loc 2 970 0
 696 02ac 04D1     		bne	.L72
 697 02ae 40F2CA31 		movw	r1, #970
 698              	.LVL68:
 699 02b2 2248     		ldr	r0, .L103+44
 700 02b4 FFF7FEFF 		bl	Cy_SysLib_AssertFailed
 701              	.LVL69:
 702              	.L72:
 971:Generated_Source\PSoC6\pdl\middleware\ble/cy_ble_gap.h ****     }
 972:Generated_Source\PSoC6\pdl\middleware\ble/cy_ble_gap.h **** 
 973:Generated_Source\PSoC6\pdl\middleware\ble/cy_ble_gap.h ****     return cHandle;
 703              		.loc 2 973 0
 704 02b8 BDF81030 		ldrh	r3, [sp, #16]
ARM GAS  C:\Users\hkmnt\AppData\Local\Temp\ccBdSSuH.s 			page 39


 705 02bc ADF81C30 		strh	r3, [sp, #28]	@ movhi
 706 02c0 ADF81830 		strh	r3, [sp, #24]	@ movhi
 707              	.LBE86:
 708              	.LBE85:
 709              		.loc 1 452 0
 710 02c4 C3F30723 		ubfx	r3, r3, #8, #8
 453:Generated_Source\PSoC6\pdl\middleware\ble/cy_ble_event_handler.c ****                 ((cy_stc_ble_l2cap_state_info_t*)evParam)->flowState;
 711              		.loc 1 453 0
 712 02c8 2978     		ldrb	r1, [r5]	@ zero_extendqisi2
 452:Generated_Source\PSoC6\pdl\middleware\ble/cy_ble_event_handler.c ****                 ((cy_stc_ble_l2cap_state_info_t*)evParam)->flowState;
 713              		.loc 1 452 0
 714 02ca 1D4A     		ldr	r2, .L103+48
 715 02cc D154     		strb	r1, [r2, r3]
 454:Generated_Source\PSoC6\pdl\middleware\ble/cy_ble_event_handler.c ****         #endif /*(CY_BLE_GAP_ROLE_PERIPHERAL || CY_BLE_GAP_ROLE_CENTRAL)*/
 455:Generated_Source\PSoC6\pdl\middleware\ble/cy_ble_event_handler.c ****             break;
 716              		.loc 1 455 0
 717 02ce 85E1     		b	.L34
 718              	.LVL70:
 719              	.L43:
 720              	.LBB89:
 456:Generated_Source\PSoC6\pdl\middleware\ble/cy_ble_event_handler.c **** 
 457:Generated_Source\PSoC6\pdl\middleware\ble/cy_ble_event_handler.c ****         case CY_BLE_EVT_MEMORY_REQUEST:
 458:Generated_Source\PSoC6\pdl\middleware\ble/cy_ble_event_handler.c ****         #if (CY_BLE_MODE_PROFILE)
 459:Generated_Source\PSoC6\pdl\middleware\ble/cy_ble_event_handler.c ****             {
 460:Generated_Source\PSoC6\pdl\middleware\ble/cy_ble_event_handler.c ****                 cy_stc_ble_memory_request_t *memReq = (cy_stc_ble_memory_request_t*)evParam;
 461:Generated_Source\PSoC6\pdl\middleware\ble/cy_ble_event_handler.c ****                 if(memReq->request == CY_BLE_PREPARED_WRITE_REQUEST)
 721              		.loc 1 461 0
 722 02d0 0B78     		ldrb	r3, [r1]	@ zero_extendqisi2
 723 02d2 002B     		cmp	r3, #0
 724 02d4 40F08281 		bne	.L34
 462:Generated_Source\PSoC6\pdl\middleware\ble/cy_ble_event_handler.c ****                 {
 463:Generated_Source\PSoC6\pdl\middleware\ble/cy_ble_event_handler.c ****             #if (CY_BLE_GATT_ENABLE_EXTERNAL_PREP_WRITE_BUFF == 0u)
 464:Generated_Source\PSoC6\pdl\middleware\ble/cy_ble_event_handler.c ****                     /* Stack requests to provide memory to process a remote request */
 465:Generated_Source\PSoC6\pdl\middleware\ble/cy_ble_event_handler.c ****                     if(memReq->allocFree == CY_BLE_ALLOC_MEMORY)
 725              		.loc 1 465 0
 726 02d8 0B7A     		ldrb	r3, [r1, #8]	@ zero_extendqisi2
 727 02da 3BB9     		cbnz	r3, .L73
 728              	.LBB90:
 466:Generated_Source\PSoC6\pdl\middleware\ble/cy_ble_event_handler.c ****                     {
 467:Generated_Source\PSoC6\pdl\middleware\ble/cy_ble_event_handler.c ****                         static cy_stc_ble_prepare_write_request_memory_t gPrepWriteReqMem;
 468:Generated_Source\PSoC6\pdl\middleware\ble/cy_ble_event_handler.c **** 
 469:Generated_Source\PSoC6\pdl\middleware\ble/cy_ble_event_handler.c ****                         /* Configure and return a statically allocated buffer at the end of the cy_
 470:Generated_Source\PSoC6\pdl\middleware\ble/cy_ble_event_handler.c ****                         gPrepWriteReqMem.prepareWriteQueueSize = CY_BLE_GATT_MAX_PREPARE_BUFF_COUNT
 729              		.loc 1 470 0
 730 02dc 194B     		ldr	r3, .L103+52
 731 02de 0322     		movs	r2, #3
 732 02e0 DA80     		strh	r2, [r3, #6]	@ movhi
 471:Generated_Source\PSoC6\pdl\middleware\ble/cy_ble_event_handler.c ****                         gPrepWriteReqMem.totalAttrValueLength = CY_BLE_GATT_PREPARE_LENGTH_ALIGN;
 733              		.loc 1 471 0
 734 02e2 2822     		movs	r2, #40
 735 02e4 9A80     		strh	r2, [r3, #4]	@ movhi
 472:Generated_Source\PSoC6\pdl\middleware\ble/cy_ble_event_handler.c ****                         gPrepWriteReqMem.queueBuffer = &cy_ble_stackMemoryRam[(CY_BLE_STACK_RAM_SIZ
 736              		.loc 1 472 0
 737 02e6 184A     		ldr	r2, .L103+56
 738 02e8 1A60     		str	r2, [r3]
 473:Generated_Source\PSoC6\pdl\middleware\ble/cy_ble_event_handler.c ****                                                                               CY_BLE_GATT_PREPARE_W
 474:Generated_Source\PSoC6\pdl\middleware\ble/cy_ble_event_handler.c ****                         memReq->configMemory = &gPrepWriteReqMem;
ARM GAS  C:\Users\hkmnt\AppData\Local\Temp\ccBdSSuH.s 			page 40


 739              		.loc 1 474 0
 740 02ea 4B60     		str	r3, [r1, #4]
 741              	.L73:
 742              	.LBE90:
 475:Generated_Source\PSoC6\pdl\middleware\ble/cy_ble_event_handler.c ****                     }
 476:Generated_Source\PSoC6\pdl\middleware\ble/cy_ble_event_handler.c ****                     /* Clear the CY_BLE_CALLBACK flag not to provide a handled event to the applica
 477:Generated_Source\PSoC6\pdl\middleware\ble/cy_ble_event_handler.c ****                     cy_ble_eventHandlerFlag &= (uint8_t) ~CY_BLE_CALLBACK;
 743              		.loc 1 477 0
 744 02ec 084A     		ldr	r2, .L103
 745 02ee 1378     		ldrb	r3, [r2]	@ zero_extendqisi2
 746 02f0 03F0FE03 		and	r3, r3, #254
 747 02f4 1370     		strb	r3, [r2]
 748 02f6 71E1     		b	.L34
 749              	.LVL71:
 750              	.L45:
 751              	.LBE89:
 478:Generated_Source\PSoC6\pdl\middleware\ble/cy_ble_event_handler.c ****             #endif  /* CY_BLE_GATT_ENABLE_EXTERNAL_PREP_WRITE_BUFF == 0u */
 479:Generated_Source\PSoC6\pdl\middleware\ble/cy_ble_event_handler.c ****                 }
 480:Generated_Source\PSoC6\pdl\middleware\ble/cy_ble_event_handler.c ****             }
 481:Generated_Source\PSoC6\pdl\middleware\ble/cy_ble_event_handler.c ****         #endif /* CY_BLE_MODE_PROFILE */
 482:Generated_Source\PSoC6\pdl\middleware\ble/cy_ble_event_handler.c ****             break;
 483:Generated_Source\PSoC6\pdl\middleware\ble/cy_ble_event_handler.c **** 
 484:Generated_Source\PSoC6\pdl\middleware\ble/cy_ble_event_handler.c ****         /**********************************************************
 485:Generated_Source\PSoC6\pdl\middleware\ble/cy_ble_event_handler.c ****          * GAP events
 486:Generated_Source\PSoC6\pdl\middleware\ble/cy_ble_event_handler.c ****          ************************************************************/
 487:Generated_Source\PSoC6\pdl\middleware\ble/cy_ble_event_handler.c ****         case CY_BLE_EVT_GAP_AUTH_REQ:
 488:Generated_Source\PSoC6\pdl\middleware\ble/cy_ble_event_handler.c ****             break;
 489:Generated_Source\PSoC6\pdl\middleware\ble/cy_ble_event_handler.c **** 
 490:Generated_Source\PSoC6\pdl\middleware\ble/cy_ble_event_handler.c ****         case CY_BLE_EVT_GAP_AUTH_COMPLETE:
 491:Generated_Source\PSoC6\pdl\middleware\ble/cy_ble_event_handler.c ****         #if ((CY_BLE_GAP_ROLE_PERIPHERAL || CY_BLE_GAP_ROLE_CENTRAL) && (CY_BLE_BONDING_REQUIREMENT
 492:Generated_Source\PSoC6\pdl\middleware\ble/cy_ble_event_handler.c ****             {
 493:Generated_Source\PSoC6\pdl\middleware\ble/cy_ble_event_handler.c ****                 cy_stc_ble_conn_handle_t connectedHandle;
 494:Generated_Source\PSoC6\pdl\middleware\ble/cy_ble_event_handler.c ****                 connectedHandle = Cy_BLE_GetConnHandleByBdHandle(((cy_stc_ble_gap_auth_info_t*)evPa
 495:Generated_Source\PSoC6\pdl\middleware\ble/cy_ble_event_handler.c ****                 cy_ble_peerBonding[connectedHandle.attId] = ((cy_stc_ble_gap_auth_info_t*)evParam)-
 496:Generated_Source\PSoC6\pdl\middleware\ble/cy_ble_event_handler.c ****             }
 497:Generated_Source\PSoC6\pdl\middleware\ble/cy_ble_event_handler.c ****         #endif  /* CY_BLE_BONDING_REQUIREMENT == CY_BLE_BONDING_YES */
 498:Generated_Source\PSoC6\pdl\middleware\ble/cy_ble_event_handler.c ****         
 499:Generated_Source\PSoC6\pdl\middleware\ble/cy_ble_event_handler.c ****         #if ((CY_BLE_GAP_ROLE_PERIPHERAL || CY_BLE_GAP_ROLE_CENTRAL))
 500:Generated_Source\PSoC6\pdl\middleware\ble/cy_ble_event_handler.c ****             if(((cy_stc_ble_gap_auth_info_t *)evParam)->authErr == CY_BLE_GAP_AUTH_ERROR_NONE)
 752              		.loc 1 500 0
 753 02f8 CB78     		ldrb	r3, [r1, #3]	@ zero_extendqisi2
 754 02fa 002B     		cmp	r3, #0
 755 02fc 40F06E81 		bne	.L34
 756              	.LBB91:
 501:Generated_Source\PSoC6\pdl\middleware\ble/cy_ble_event_handler.c ****             {
 502:Generated_Source\PSoC6\pdl\middleware\ble/cy_ble_event_handler.c ****                 cy_stc_ble_conn_handle_t connectedHandle;
 503:Generated_Source\PSoC6\pdl\middleware\ble/cy_ble_event_handler.c ****                 connectedHandle = Cy_BLE_GetConnHandleByBdHandle(((cy_stc_ble_gap_auth_info_t *)evP
 757              		.loc 1 503 0
 758 0300 4979     		ldrb	r1, [r1, #5]	@ zero_extendqisi2
 759              	.LVL72:
 760              	.LBB92:
 761              	.LBB93:
 952:Generated_Source\PSoC6\pdl\middleware\ble/cy_ble_gap.h ****     {
 762              		.loc 2 952 0
 763 0302 0B4B     		ldr	r3, .L103+32
 764 0304 1B88     		ldrh	r3, [r3]	@ unaligned
 765 0306 ADF81030 		strh	r3, [sp, #16]	@ unaligned
ARM GAS  C:\Users\hkmnt\AppData\Local\Temp\ccBdSSuH.s 			page 41


 766              	.LVL73:
 958:Generated_Source\PSoC6\pdl\middleware\ble/cy_ble_gap.h ****     {
 767              		.loc 2 958 0
 768 030a 0023     		movs	r3, #0
 769 030c 38E0     		b	.L74
 770              	.L104:
 771 030e 00BF     		.align	2
 772              	.L103:
 773 0310 00000000 		.word	cy_ble_eventHandlerFlag
 774 0314 00000000 		.word	cy_ble_sflashDeviceAddress
 775 0318 00000000 		.word	cy_ble_configPtr
 776 031c 00000000 		.word	.LANCHOR0
 777 0320 00000000 		.word	cy_ble_state
 778 0324 00000000 		.word	cy_ble_advState
 779 0328 00000000 		.word	cy_ble_pairStatus
 780 032c 00000000 		.word	cy_ble_cmdStatus
 781 0330 08000000 		.word	.LANCHOR0+8
 782 0334 00000000 		.word	cy_ble_connHandle
 783 0338 00000000 		.word	cy_ble_connState
 784 033c 00000000 		.word	.LC2
 785 0340 00000000 		.word	cy_ble_busyStatus
 786 0344 00000000 		.word	.LANCHOR1
 787 0348 D81C0000 		.word	cy_ble_stackMemoryRam+7384
 788              	.LVL74:
 789              	.L78:
 790 034c AC4A     		ldr	r2, .L105
 791 034e 32F81320 		ldrh	r2, [r2, r3, lsl #1]	@ unaligned
 792 0352 ADF80C20 		strh	r2, [sp, #12]	@ unaligned
 793              	.LBB94:
 794              	.LBB95:
 878:Generated_Source\PSoC6\pdl\middleware\ble/cy_ble_gap.h **** }
 795              		.loc 2 878 0
 796 0356 9DF80D20 		ldrb	r2, [sp, #13]	@ zero_extendqisi2
 797 035a 12B9     		cbnz	r2, .L100
 798 035c A948     		ldr	r0, .L105+4
 799 035e 825C     		ldrb	r2, [r0, r2]	@ zero_extendqisi2
 800 0360 00E0     		b	.L75
 801              	.L100:
 802 0362 0022     		movs	r2, #0
 803              	.L75:
 804              	.LBE95:
 805              	.LBE94:
 960:Generated_Source\PSoC6\pdl\middleware\ble/cy_ble_gap.h ****                 (cy_ble_connHandle[i].bdHandle == bdHandle))
 806              		.loc 2 960 0
 807 0364 012A     		cmp	r2, #1
 808 0366 0AD9     		bls	.L76
 961:Generated_Source\PSoC6\pdl\middleware\ble/cy_ble_gap.h ****         {
 809              		.loc 2 961 0
 810 0368 A54A     		ldr	r2, .L105
 811 036a 12F81320 		ldrb	r2, [r2, r3, lsl #1]	@ zero_extendqisi2
 960:Generated_Source\PSoC6\pdl\middleware\ble/cy_ble_gap.h ****                 (cy_ble_connHandle[i].bdHandle == bdHandle))
 812              		.loc 2 960 0
 813 036e 9142     		cmp	r1, r2
 814 0370 05D1     		bne	.L76
 963:Generated_Source\PSoC6\pdl\middleware\ble/cy_ble_gap.h ****             break;
 815              		.loc 2 963 0
 816 0372 A34A     		ldr	r2, .L105
ARM GAS  C:\Users\hkmnt\AppData\Local\Temp\ccBdSSuH.s 			page 42


 817 0374 32F81330 		ldrh	r3, [r2, r3, lsl #1]	@ unaligned
 818              	.LVL75:
 819 0378 ADF81030 		strh	r3, [sp, #16]	@ unaligned
 820 037c 02E0     		b	.L77
 821              	.LVL76:
 822              	.L76:
 958:Generated_Source\PSoC6\pdl\middleware\ble/cy_ble_gap.h ****     {
 823              		.loc 2 958 0
 824 037e 0133     		adds	r3, r3, #1
 825              	.LVL77:
 826              	.L74:
 827 0380 002B     		cmp	r3, #0
 828 0382 E3D0     		beq	.L78
 829              	.LVL78:
 830              	.L77:
 967:Generated_Source\PSoC6\pdl\middleware\ble/cy_ble_gap.h ****     {
 831              		.loc 2 967 0
 832 0384 9DF81130 		ldrb	r3, [sp, #17]	@ zero_extendqisi2
 833 0388 FF2B     		cmp	r3, #255
 834 038a 05D1     		bne	.L79
 970:Generated_Source\PSoC6\pdl\middleware\ble/cy_ble_gap.h ****     }
 835              		.loc 2 970 0
 836 038c 04D1     		bne	.L79
 837 038e 40F2CA31 		movw	r1, #970
 838              	.LVL79:
 839 0392 9D48     		ldr	r0, .L105+8
 840 0394 FFF7FEFF 		bl	Cy_SysLib_AssertFailed
 841              	.LVL80:
 842              	.L79:
 843              		.loc 2 973 0
 844 0398 BDF81030 		ldrh	r3, [sp, #16]
 845 039c ADF82030 		strh	r3, [sp, #32]	@ movhi
 846 03a0 ADF81030 		strh	r3, [sp, #16]	@ movhi
 847              	.LBE93:
 848              	.LBE92:
 504:Generated_Source\PSoC6\pdl\middleware\ble/cy_ble_event_handler.c ****                 cy_ble_pairStatus[connectedHandle.attId] = true;
 849              		.loc 1 504 0
 850 03a4 C3F30723 		ubfx	r3, r3, #8, #8
 851 03a8 0121     		movs	r1, #1
 852 03aa 984A     		ldr	r2, .L105+12
 853 03ac D154     		strb	r1, [r2, r3]
 854 03ae 15E1     		b	.L34
 855              	.LVL81:
 856              	.L54:
 857              	.LBE91:
 505:Generated_Source\PSoC6\pdl\middleware\ble/cy_ble_event_handler.c ****             }
 506:Generated_Source\PSoC6\pdl\middleware\ble/cy_ble_event_handler.c ****         #endif /* ((CY_BLE_GAP_ROLE_PERIPHERAL || CY_BLE_GAP_ROLE_CENTRAL)) */ 
 507:Generated_Source\PSoC6\pdl\middleware\ble/cy_ble_event_handler.c ****             break;
 508:Generated_Source\PSoC6\pdl\middleware\ble/cy_ble_event_handler.c **** 
 509:Generated_Source\PSoC6\pdl\middleware\ble/cy_ble_event_handler.c ****         case CY_BLE_EVT_GAP_CONNECTION_UPDATE_COMPLETE:
 510:Generated_Source\PSoC6\pdl\middleware\ble/cy_ble_event_handler.c ****         #if (CY_BLE_GAP_ROLE_PERIPHERAL || CY_BLE_GAP_ROLE_CENTRAL)
 511:Generated_Source\PSoC6\pdl\middleware\ble/cy_ble_event_handler.c ****             (void)Cy_BLE_InvokeServiceEventHandler((uint32_t)event, (void*)evParam);
 858              		.loc 1 511 0
 859 03b0 FFF7FEFF 		bl	Cy_BLE_InvokeServiceEventHandler
 860              	.LVL82:
 512:Generated_Source\PSoC6\pdl\middleware\ble/cy_ble_event_handler.c ****         #endif /*(CY_BLE_GAP_ROLE_PERIPHERAL || CY_BLE_GAP_ROLE_CENTRAL) */
 513:Generated_Source\PSoC6\pdl\middleware\ble/cy_ble_event_handler.c ****             break;
ARM GAS  C:\Users\hkmnt\AppData\Local\Temp\ccBdSSuH.s 			page 43


 861              		.loc 1 513 0
 862 03b4 12E1     		b	.L34
 863              	.LVL83:
 864              	.L49:
 865              	.LBB96:
 514:Generated_Source\PSoC6\pdl\middleware\ble/cy_ble_event_handler.c ****     
 515:Generated_Source\PSoC6\pdl\middleware\ble/cy_ble_event_handler.c ****         case CY_BLE_EVT_GAP_ENHANCE_CONN_COMPLETE:
 516:Generated_Source\PSoC6\pdl\middleware\ble/cy_ble_event_handler.c ****         case CY_BLE_EVT_GAP_DEVICE_CONNECTED:
 517:Generated_Source\PSoC6\pdl\middleware\ble/cy_ble_event_handler.c ****             {           
 518:Generated_Source\PSoC6\pdl\middleware\ble/cy_ble_event_handler.c ****             #if (CY_BLE_LL_PRIVACY_FEATURE != 0u)
 519:Generated_Source\PSoC6\pdl\middleware\ble/cy_ble_event_handler.c ****                 cy_stc_ble_gap_enhance_conn_complete_param_t *tEvParam = 
 520:Generated_Source\PSoC6\pdl\middleware\ble/cy_ble_event_handler.c ****                     (cy_stc_ble_gap_enhance_conn_complete_param_t *)evParam;
 521:Generated_Source\PSoC6\pdl\middleware\ble/cy_ble_event_handler.c ****             #else
 522:Generated_Source\PSoC6\pdl\middleware\ble/cy_ble_event_handler.c ****                 cy_stc_ble_gap_connected_param_t *tEvParam = (cy_stc_ble_gap_connected_param_t *)ev
 523:Generated_Source\PSoC6\pdl\middleware\ble/cy_ble_event_handler.c ****             #endif /* (CY_BLE_LL_PRIVACY_FEATURE != 0u) */    
 524:Generated_Source\PSoC6\pdl\middleware\ble/cy_ble_event_handler.c ****                 if(tEvParam->status == CY_BLE_HCI_SUCCESS)
 866              		.loc 1 524 0
 867 03b6 AB7E     		ldrb	r3, [r5, #26]	@ zero_extendqisi2
 868 03b8 002B     		cmp	r3, #0
 869 03ba 3FD1     		bne	.L80
 525:Generated_Source\PSoC6\pdl\middleware\ble/cy_ble_event_handler.c ****                 {
 526:Generated_Source\PSoC6\pdl\middleware\ble/cy_ble_event_handler.c ****                     /* Advertising is automatically stopped if a Slave is connected,
 527:Generated_Source\PSoC6\pdl\middleware\ble/cy_ble_event_handler.c ****                        so update the adv state to CY_BLE_ADV_STATE_STOPPED  */
 528:Generated_Source\PSoC6\pdl\middleware\ble/cy_ble_event_handler.c ****                     #if (CY_BLE_GAP_ROLE_PERIPHERAL || CY_BLE_GAP_ROLE_BROADCASTER)
 529:Generated_Source\PSoC6\pdl\middleware\ble/cy_ble_event_handler.c ****                         if(tEvParam->role == CY_BLE_GAP_LL_ROLE_SLAVE)
 870              		.loc 1 529 0
 871 03bc 2B7E     		ldrb	r3, [r5, #24]	@ zero_extendqisi2
 872 03be 012B     		cmp	r3, #1
 873 03c0 02D1     		bne	.L81
 874              	.LVL84:
 875              	.LBB97:
 876              	.LBB98:
 763:Generated_Source\PSoC6\pdl\middleware\ble/cy_ble_gap.h **** }
 877              		.loc 2 763 0
 878 03c2 0022     		movs	r2, #0
 879 03c4 924B     		ldr	r3, .L105+16
 880 03c6 1A70     		strb	r2, [r3]
 881              	.LVL85:
 882              	.L81:
 883              	.LBE98:
 884              	.LBE97:
 885              	.LBB99:
 530:Generated_Source\PSoC6\pdl\middleware\ble/cy_ble_event_handler.c ****                         {
 531:Generated_Source\PSoC6\pdl\middleware\ble/cy_ble_event_handler.c ****                             Cy_BLE_SetAdvertisementState(CY_BLE_ADV_STATE_STOPPED);
 532:Generated_Source\PSoC6\pdl\middleware\ble/cy_ble_event_handler.c ****                         }
 533:Generated_Source\PSoC6\pdl\middleware\ble/cy_ble_event_handler.c ****                     #endif /* (CY_BLE_GAP_ROLE_PERIPHERAL || CY_BLE_GAP_ROLE_BROADCASTER) */
 534:Generated_Source\PSoC6\pdl\middleware\ble/cy_ble_event_handler.c ****                     
 535:Generated_Source\PSoC6\pdl\middleware\ble/cy_ble_event_handler.c ****                     /* Stop Timer in central mode (if timer was started) */
 536:Generated_Source\PSoC6\pdl\middleware\ble/cy_ble_event_handler.c ****                     #if (CY_BLE_GAP_ROLE_CENTRAL)
 537:Generated_Source\PSoC6\pdl\middleware\ble/cy_ble_event_handler.c ****                         if(cy_ble_connectingTimeout.timeout != 0u)
 538:Generated_Source\PSoC6\pdl\middleware\ble/cy_ble_event_handler.c ****                         {
 539:Generated_Source\PSoC6\pdl\middleware\ble/cy_ble_event_handler.c ****                             (void)Cy_BLE_StopTimer(&cy_ble_connectingTimeout);
 540:Generated_Source\PSoC6\pdl\middleware\ble/cy_ble_event_handler.c ****                         }
 541:Generated_Source\PSoC6\pdl\middleware\ble/cy_ble_event_handler.c ****                     #endif /* CY_BLE_GAP_ROLE_CENTRAL */
 542:Generated_Source\PSoC6\pdl\middleware\ble/cy_ble_event_handler.c ****                     
 543:Generated_Source\PSoC6\pdl\middleware\ble/cy_ble_event_handler.c ****                     /* Store information about role of device connected (Master/Slave)*/
 544:Generated_Source\PSoC6\pdl\middleware\ble/cy_ble_event_handler.c ****                     #if ((CY_BLE_GAP_ROLE_PERIPHERAL || CY_BLE_GAP_ROLE_CENTRAL))
ARM GAS  C:\Users\hkmnt\AppData\Local\Temp\ccBdSSuH.s 			page 44


 545:Generated_Source\PSoC6\pdl\middleware\ble/cy_ble_event_handler.c ****                     {   
 546:Generated_Source\PSoC6\pdl\middleware\ble/cy_ble_event_handler.c ****                         cy_stc_ble_conn_handle_t tconnHandle = Cy_BLE_GetConnHandleByBdHandle(tEvPa
 886              		.loc 1 546 0
 887 03c8 E97E     		ldrb	r1, [r5, #27]	@ zero_extendqisi2
 888              	.LVL86:
 889              	.LBB100:
 890              	.LBB101:
 952:Generated_Source\PSoC6\pdl\middleware\ble/cy_ble_gap.h ****     {
 891              		.loc 2 952 0
 892 03ca 924B     		ldr	r3, .L105+20
 893 03cc 1B88     		ldrh	r3, [r3]	@ unaligned
 894 03ce ADF80C30 		strh	r3, [sp, #12]	@ unaligned
 895              	.LVL87:
 958:Generated_Source\PSoC6\pdl\middleware\ble/cy_ble_gap.h ****     {
 896              		.loc 2 958 0
 897 03d2 0023     		movs	r3, #0
 898 03d4 19E0     		b	.L82
 899              	.LVL88:
 900              	.L86:
 901 03d6 8A4A     		ldr	r2, .L105
 902 03d8 32F81320 		ldrh	r2, [r2, r3, lsl #1]	@ unaligned
 903 03dc ADF81020 		strh	r2, [sp, #16]	@ unaligned
 904              	.LBB102:
 905              	.LBB103:
 878:Generated_Source\PSoC6\pdl\middleware\ble/cy_ble_gap.h **** }
 906              		.loc 2 878 0
 907 03e0 9DF81120 		ldrb	r2, [sp, #17]	@ zero_extendqisi2
 908 03e4 12B9     		cbnz	r2, .L101
 909 03e6 8748     		ldr	r0, .L105+4
 910 03e8 825C     		ldrb	r2, [r0, r2]	@ zero_extendqisi2
 911 03ea 00E0     		b	.L83
 912              	.L101:
 913 03ec 0022     		movs	r2, #0
 914              	.L83:
 915              	.LBE103:
 916              	.LBE102:
 960:Generated_Source\PSoC6\pdl\middleware\ble/cy_ble_gap.h ****                 (cy_ble_connHandle[i].bdHandle == bdHandle))
 917              		.loc 2 960 0
 918 03ee 012A     		cmp	r2, #1
 919 03f0 0AD9     		bls	.L84
 961:Generated_Source\PSoC6\pdl\middleware\ble/cy_ble_gap.h ****         {
 920              		.loc 2 961 0
 921 03f2 834A     		ldr	r2, .L105
 922 03f4 12F81320 		ldrb	r2, [r2, r3, lsl #1]	@ zero_extendqisi2
 960:Generated_Source\PSoC6\pdl\middleware\ble/cy_ble_gap.h ****                 (cy_ble_connHandle[i].bdHandle == bdHandle))
 923              		.loc 2 960 0
 924 03f8 9142     		cmp	r1, r2
 925 03fa 05D1     		bne	.L84
 963:Generated_Source\PSoC6\pdl\middleware\ble/cy_ble_gap.h ****             break;
 926              		.loc 2 963 0
 927 03fc 804A     		ldr	r2, .L105
 928 03fe 32F81330 		ldrh	r3, [r2, r3, lsl #1]	@ unaligned
 929              	.LVL89:
 930 0402 ADF80C30 		strh	r3, [sp, #12]	@ unaligned
 931 0406 02E0     		b	.L85
 932              	.LVL90:
 933              	.L84:
ARM GAS  C:\Users\hkmnt\AppData\Local\Temp\ccBdSSuH.s 			page 45


 958:Generated_Source\PSoC6\pdl\middleware\ble/cy_ble_gap.h ****     {
 934              		.loc 2 958 0
 935 0408 0133     		adds	r3, r3, #1
 936              	.LVL91:
 937              	.L82:
 938 040a 002B     		cmp	r3, #0
 939 040c E3D0     		beq	.L86
 940              	.LVL92:
 941              	.L85:
 967:Generated_Source\PSoC6\pdl\middleware\ble/cy_ble_gap.h ****     {
 942              		.loc 2 967 0
 943 040e 9DF80D30 		ldrb	r3, [sp, #13]	@ zero_extendqisi2
 944 0412 FF2B     		cmp	r3, #255
 945 0414 05D1     		bne	.L87
 970:Generated_Source\PSoC6\pdl\middleware\ble/cy_ble_gap.h ****     }
 946              		.loc 2 970 0
 947 0416 04D1     		bne	.L87
 948 0418 40F2CA31 		movw	r1, #970
 949              	.LVL93:
 950 041c 7A48     		ldr	r0, .L105+8
 951 041e FFF7FEFF 		bl	Cy_SysLib_AssertFailed
 952              	.LVL94:
 953              	.L87:
 954              		.loc 2 973 0
 955 0422 BDF80C30 		ldrh	r3, [sp, #12]
 956 0426 ADF82430 		strh	r3, [sp, #36]	@ movhi
 957 042a ADF80C30 		strh	r3, [sp, #12]	@ movhi
 958              	.LBE101:
 959              	.LBE100:
 547:Generated_Source\PSoC6\pdl\middleware\ble/cy_ble_event_handler.c ****                         if( tconnHandle.attId != CY_BLE_INVALID_CONN_HANDLE_VALUE)   
 960              		.loc 1 547 0
 961 042e C3F30723 		ubfx	r3, r3, #8, #8
 962 0432 FF2B     		cmp	r3, #255
 963 0434 02D0     		beq	.L80
 548:Generated_Source\PSoC6\pdl\middleware\ble/cy_ble_event_handler.c ****                         {
 549:Generated_Source\PSoC6\pdl\middleware\ble/cy_ble_event_handler.c ****                             cy_ble_devConnRole[tconnHandle.attId] = tEvParam->role;
 964              		.loc 1 549 0
 965 0436 297E     		ldrb	r1, [r5, #24]	@ zero_extendqisi2
 966 0438 774A     		ldr	r2, .L105+24
 967 043a D154     		strb	r1, [r2, r3]
 968              	.L80:
 969              	.LBE99:
 550:Generated_Source\PSoC6\pdl\middleware\ble/cy_ble_event_handler.c ****                         }
 551:Generated_Source\PSoC6\pdl\middleware\ble/cy_ble_event_handler.c ****                     }
 552:Generated_Source\PSoC6\pdl\middleware\ble/cy_ble_event_handler.c ****                     #endif /*((CY_BLE_GAP_ROLE_PERIPHERAL || CY_BLE_GAP_ROLE_CENTRAL))*/
 553:Generated_Source\PSoC6\pdl\middleware\ble/cy_ble_event_handler.c ****                 }
 554:Generated_Source\PSoC6\pdl\middleware\ble/cy_ble_event_handler.c ****                 Cy_BLE_SetState(CY_BLE_STATE_ON);
 970              		.loc 1 554 0
 971 043c 0222     		movs	r2, #2
 972 043e 774B     		ldr	r3, .L105+28
 973 0440 1A70     		strb	r2, [r3]
 974              	.LBE96:
 555:Generated_Source\PSoC6\pdl\middleware\ble/cy_ble_event_handler.c ****             }
 556:Generated_Source\PSoC6\pdl\middleware\ble/cy_ble_event_handler.c ****             break;
 975              		.loc 1 556 0
 976 0442 CBE0     		b	.L34
 977              	.LVL95:
ARM GAS  C:\Users\hkmnt\AppData\Local\Temp\ccBdSSuH.s 			page 46


 978              	.L35:
 557:Generated_Source\PSoC6\pdl\middleware\ble/cy_ble_event_handler.c **** 
 558:Generated_Source\PSoC6\pdl\middleware\ble/cy_ble_event_handler.c ****         case CY_BLE_EVT_GAP_DEVICE_DISCONNECTED:
 559:Generated_Source\PSoC6\pdl\middleware\ble/cy_ble_event_handler.c ****             Cy_BLE_SetState(CY_BLE_STATE_ON);
 979              		.loc 1 559 0
 980 0444 0222     		movs	r2, #2
 981 0446 754B     		ldr	r3, .L105+28
 982 0448 1A70     		strb	r2, [r3]
 560:Generated_Source\PSoC6\pdl\middleware\ble/cy_ble_event_handler.c ****             break;
 983              		.loc 1 560 0
 984 044a C7E0     		b	.L34
 985              	.L48:
 561:Generated_Source\PSoC6\pdl\middleware\ble/cy_ble_event_handler.c ****         
 562:Generated_Source\PSoC6\pdl\middleware\ble/cy_ble_event_handler.c ****         #if (CY_BLE_GAP_ROLE_PERIPHERAL || CY_BLE_GAP_ROLE_BROADCASTER)
 563:Generated_Source\PSoC6\pdl\middleware\ble/cy_ble_event_handler.c ****         case CY_BLE_EVT_GAPP_ADVERTISEMENT_START_STOP:
 564:Generated_Source\PSoC6\pdl\middleware\ble/cy_ble_event_handler.c ****         #if (CY_BLE_GAP_ROLE_PERIPHERAL || CY_BLE_GAP_ROLE_CENTRAL)
 565:Generated_Source\PSoC6\pdl\middleware\ble/cy_ble_event_handler.c ****             (void)Cy_BLE_InvokeServiceEventHandler((uint32_t)event, (void*)evParam);
 986              		.loc 1 565 0
 987 044c FFF7FEFF 		bl	Cy_BLE_InvokeServiceEventHandler
 988              	.LVL96:
 566:Generated_Source\PSoC6\pdl\middleware\ble/cy_ble_event_handler.c ****         #endif /* (CY_BLE_GAP_ROLE_PERIPHERAL || CY_BLE_GAP_ROLE_CENTRAL) */
 567:Generated_Source\PSoC6\pdl\middleware\ble/cy_ble_event_handler.c **** 
 568:Generated_Source\PSoC6\pdl\middleware\ble/cy_ble_event_handler.c ****             if((cy_ble_eventHandlerFlag & CY_BLE_CALLBACK) != 0u)
 989              		.loc 1 568 0
 990 0450 734B     		ldr	r3, .L105+32
 991 0452 1B78     		ldrb	r3, [r3]	@ zero_extendqisi2
 992 0454 13F0010F 		tst	r3, #1
 993 0458 00F0C080 		beq	.L34
 994              	.LBB104:
 995              	.LBB105:
 745:Generated_Source\PSoC6\pdl\middleware\ble/cy_ble_gap.h **** }
 996              		.loc 2 745 0
 997 045c 6C4B     		ldr	r3, .L105+16
 998 045e 1B78     		ldrb	r3, [r3]	@ zero_extendqisi2
 999              	.LBE105:
 1000              	.LBE104:
 569:Generated_Source\PSoC6\pdl\middleware\ble/cy_ble_event_handler.c ****             {
 570:Generated_Source\PSoC6\pdl\middleware\ble/cy_ble_event_handler.c ****                 /* After Cy_BLE_GAPP_StartAdvertisement, the first event indicates that advertising
 571:Generated_Source\PSoC6\pdl\middleware\ble/cy_ble_event_handler.c ****                 if(Cy_BLE_GetAdvertisementState() == CY_BLE_ADV_STATE_ADV_INITIATED)
 1001              		.loc 1 571 0
 1002 0460 012B     		cmp	r3, #1
 1003 0462 03D1     		bne	.L89
 1004              	.LVL97:
 1005              	.LBB106:
 1006              	.LBB107:
 763:Generated_Source\PSoC6\pdl\middleware\ble/cy_ble_gap.h **** }
 1007              		.loc 2 763 0
 1008 0464 0222     		movs	r2, #2
 1009 0466 6A4B     		ldr	r3, .L105+16
 1010 0468 1A70     		strb	r2, [r3]
 1011 046a B7E0     		b	.L34
 1012              	.LVL98:
 1013              	.L89:
 1014              	.LBE107:
 1015              	.LBE106:
 572:Generated_Source\PSoC6\pdl\middleware\ble/cy_ble_event_handler.c ****                 {
 573:Generated_Source\PSoC6\pdl\middleware\ble/cy_ble_event_handler.c ****                     Cy_BLE_SetAdvertisementState(CY_BLE_ADV_STATE_ADVERTISING);
ARM GAS  C:\Users\hkmnt\AppData\Local\Temp\ccBdSSuH.s 			page 47


 574:Generated_Source\PSoC6\pdl\middleware\ble/cy_ble_event_handler.c ****                 }
 575:Generated_Source\PSoC6\pdl\middleware\ble/cy_ble_event_handler.c ****                 /* When the application initiated a stop advertisement */
 576:Generated_Source\PSoC6\pdl\middleware\ble/cy_ble_event_handler.c ****                 else if(Cy_BLE_GetAdvertisementState() == CY_BLE_ADV_STATE_STOP_INITIATED)
 1016              		.loc 1 576 0
 1017 046c 032B     		cmp	r3, #3
 1018 046e 03D1     		bne	.L90
 1019              	.LVL99:
 1020              	.LBB108:
 1021              	.LBB109:
 763:Generated_Source\PSoC6\pdl\middleware\ble/cy_ble_gap.h **** }
 1022              		.loc 2 763 0
 1023 0470 0022     		movs	r2, #0
 1024 0472 674B     		ldr	r3, .L105+16
 1025 0474 1A70     		strb	r2, [r3]
 1026 0476 B1E0     		b	.L34
 1027              	.LVL100:
 1028              	.L90:
 1029              	.LBE109:
 1030              	.LBE108:
 577:Generated_Source\PSoC6\pdl\middleware\ble/cy_ble_event_handler.c ****                 {
 578:Generated_Source\PSoC6\pdl\middleware\ble/cy_ble_event_handler.c ****                     Cy_BLE_SetAdvertisementState(CY_BLE_ADV_STATE_STOPPED);
 579:Generated_Source\PSoC6\pdl\middleware\ble/cy_ble_event_handler.c ****                 }
 580:Generated_Source\PSoC6\pdl\middleware\ble/cy_ble_event_handler.c ****                 else /* The following event indicates that advertising has been stopped */
 581:Generated_Source\PSoC6\pdl\middleware\ble/cy_ble_event_handler.c ****                 {
 582:Generated_Source\PSoC6\pdl\middleware\ble/cy_ble_event_handler.c ****                     if(Cy_BLE_GetAdvertisementState() == CY_BLE_ADV_STATE_ADVERTISING)
 1031              		.loc 1 582 0
 1032 0478 022B     		cmp	r3, #2
 1033 047a 40F0AF80 		bne	.L34
 1034              	.LVL101:
 1035              	.LBB110:
 1036              	.LBB111:
 763:Generated_Source\PSoC6\pdl\middleware\ble/cy_ble_gap.h **** }
 1037              		.loc 2 763 0
 1038 047e 0022     		movs	r2, #0
 1039 0480 634B     		ldr	r3, .L105+16
 1040 0482 1A70     		strb	r2, [r3]
 1041              	.LVL102:
 1042              	.LBE111:
 1043              	.LBE110:
 583:Generated_Source\PSoC6\pdl\middleware\ble/cy_ble_event_handler.c ****                     {
 584:Generated_Source\PSoC6\pdl\middleware\ble/cy_ble_event_handler.c ****                         Cy_BLE_SetAdvertisementState(CY_BLE_ADV_STATE_STOPPED);
 585:Generated_Source\PSoC6\pdl\middleware\ble/cy_ble_event_handler.c ****                         if((cy_ble_configPtr->gappAdvParams[cy_ble_advIndex].slowAdvEnable != 0u) &
 1044              		.loc 1 585 0
 1045 0484 674B     		ldr	r3, .L105+36
 1046 0486 1B68     		ldr	r3, [r3]
 1047 0488 5B68     		ldr	r3, [r3, #4]
 1048 048a 674A     		ldr	r2, .L105+40
 1049 048c 1178     		ldrb	r1, [r2]	@ zero_extendqisi2
 1050 048e C1EBC102 		rsb	r2, r1, r1, lsl #3
 1051 0492 03EB4203 		add	r3, r3, r2, lsl #1
 1052 0496 9A79     		ldrb	r2, [r3, #6]	@ zero_extendqisi2
 1053 0498 002A     		cmp	r2, #0
 1054 049a 00F09F80 		beq	.L34
 586:Generated_Source\PSoC6\pdl\middleware\ble/cy_ble_event_handler.c ****                            (cy_ble_configPtr->gappAdvParams[cy_ble_advIndex].fastAdvTimeOut != 0u))
 1055              		.loc 1 586 0 discriminator 1
 1056 049e 9B88     		ldrh	r3, [r3, #4]
 585:Generated_Source\PSoC6\pdl\middleware\ble/cy_ble_event_handler.c ****                            (cy_ble_configPtr->gappAdvParams[cy_ble_advIndex].fastAdvTimeOut != 0u))
ARM GAS  C:\Users\hkmnt\AppData\Local\Temp\ccBdSSuH.s 			page 48


 1057              		.loc 1 585 0 discriminator 1
 1058 04a0 002B     		cmp	r3, #0
 1059 04a2 00F09B80 		beq	.L34
 587:Generated_Source\PSoC6\pdl\middleware\ble/cy_ble_event_handler.c ****                         {
 588:Generated_Source\PSoC6\pdl\middleware\ble/cy_ble_event_handler.c ****                             if(cy_ble_advertisingIntervalType == CY_BLE_ADVERTISING_FAST)
 1060              		.loc 1 588 0
 1061 04a6 614B     		ldr	r3, .L105+44
 1062 04a8 1B78     		ldrb	r3, [r3]	@ zero_extendqisi2
 1063 04aa 002B     		cmp	r3, #0
 1064 04ac 40F09680 		bne	.L34
 589:Generated_Source\PSoC6\pdl\middleware\ble/cy_ble_event_handler.c ****                             {
 590:Generated_Source\PSoC6\pdl\middleware\ble/cy_ble_event_handler.c ****                                 /* When fast advertising time out occur: Start slow advertising */
 591:Generated_Source\PSoC6\pdl\middleware\ble/cy_ble_event_handler.c ****                                 if(Cy_BLE_GAPP_StartAdvertisement(CY_BLE_ADVERTISING_SLOW, cy_ble_a
 1065              		.loc 1 591 0
 1066 04b0 0120     		movs	r0, #1
 1067 04b2 FFF7FEFF 		bl	Cy_BLE_GAPP_StartAdvertisement
 1068              	.LVL103:
 1069 04b6 0028     		cmp	r0, #0
 1070 04b8 40F09080 		bne	.L34
 1071              	.LVL104:
 1072              	.LBB112:
 1073              	.LBB113:
 763:Generated_Source\PSoC6\pdl\middleware\ble/cy_ble_gap.h **** }
 1074              		.loc 2 763 0
 1075 04bc 0122     		movs	r2, #1
 1076 04be 544B     		ldr	r3, .L105+16
 1077 04c0 1A70     		strb	r2, [r3]
 1078 04c2 8BE0     		b	.L34
 1079              	.LVL105:
 1080              	.L62:
 1081              	.LBE113:
 1082              	.LBE112:
 592:Generated_Source\PSoC6\pdl\middleware\ble/cy_ble_event_handler.c ****                                    CY_BLE_SUCCESS)
 593:Generated_Source\PSoC6\pdl\middleware\ble/cy_ble_event_handler.c ****                                 {
 594:Generated_Source\PSoC6\pdl\middleware\ble/cy_ble_event_handler.c ****                                     Cy_BLE_SetAdvertisementState(CY_BLE_ADV_STATE_ADV_INITIATED);
 595:Generated_Source\PSoC6\pdl\middleware\ble/cy_ble_event_handler.c ****                                 }
 596:Generated_Source\PSoC6\pdl\middleware\ble/cy_ble_event_handler.c ****                             }
 597:Generated_Source\PSoC6\pdl\middleware\ble/cy_ble_event_handler.c ****                         }
 598:Generated_Source\PSoC6\pdl\middleware\ble/cy_ble_event_handler.c ****                     }
 599:Generated_Source\PSoC6\pdl\middleware\ble/cy_ble_event_handler.c ****                 }
 600:Generated_Source\PSoC6\pdl\middleware\ble/cy_ble_event_handler.c ****             }
 601:Generated_Source\PSoC6\pdl\middleware\ble/cy_ble_event_handler.c ****             break;
 602:Generated_Source\PSoC6\pdl\middleware\ble/cy_ble_event_handler.c ****         #endif /* CY_BLE_GAP_ROLE_PERIPHERAL || CY_BLE_GAP_ROLE_BROADCASTER */
 603:Generated_Source\PSoC6\pdl\middleware\ble/cy_ble_event_handler.c **** 
 604:Generated_Source\PSoC6\pdl\middleware\ble/cy_ble_event_handler.c ****         #if (CY_BLE_GAP_ROLE_CENTRAL || CY_BLE_GAP_ROLE_OBSERVER)
 605:Generated_Source\PSoC6\pdl\middleware\ble/cy_ble_event_handler.c ****         case CY_BLE_EVT_GAPC_SCAN_START_STOP:
 606:Generated_Source\PSoC6\pdl\middleware\ble/cy_ble_event_handler.c ****         #if (CY_BLE_GAP_ROLE_CENTRAL)
 607:Generated_Source\PSoC6\pdl\middleware\ble/cy_ble_event_handler.c ****             (void)Cy_BLE_InvokeServiceEventHandler((uint32_t)event, (void*)evParam);
 608:Generated_Source\PSoC6\pdl\middleware\ble/cy_ble_event_handler.c ****         #endif /* (CY_BLE_GAP_ROLE_CENTRAL) */
 609:Generated_Source\PSoC6\pdl\middleware\ble/cy_ble_event_handler.c **** 
 610:Generated_Source\PSoC6\pdl\middleware\ble/cy_ble_event_handler.c ****             if((cy_ble_eventHandlerFlag & CY_BLE_CALLBACK) != 0u)
 611:Generated_Source\PSoC6\pdl\middleware\ble/cy_ble_event_handler.c ****             {
 612:Generated_Source\PSoC6\pdl\middleware\ble/cy_ble_event_handler.c ****                 /* After Cy_BLE_GAPC_StartScan, the first event indicates that scanning has been st
 613:Generated_Source\PSoC6\pdl\middleware\ble/cy_ble_event_handler.c ****                 if(Cy_BLE_GetScanState() == CY_BLE_SCAN_STATE_SCAN_INITIATED)
 614:Generated_Source\PSoC6\pdl\middleware\ble/cy_ble_event_handler.c ****                 {
 615:Generated_Source\PSoC6\pdl\middleware\ble/cy_ble_event_handler.c ****                     Cy_BLE_SetScanState(CY_BLE_SCAN_STATE_SCANNING);
 616:Generated_Source\PSoC6\pdl\middleware\ble/cy_ble_event_handler.c ****                 }
ARM GAS  C:\Users\hkmnt\AppData\Local\Temp\ccBdSSuH.s 			page 49


 617:Generated_Source\PSoC6\pdl\middleware\ble/cy_ble_event_handler.c ****                 /* When the application initiated stop scanning */
 618:Generated_Source\PSoC6\pdl\middleware\ble/cy_ble_event_handler.c ****                 else if(Cy_BLE_GetScanState() == CY_BLE_SCAN_STATE_STOP_INITIATED)
 619:Generated_Source\PSoC6\pdl\middleware\ble/cy_ble_event_handler.c ****                 {
 620:Generated_Source\PSoC6\pdl\middleware\ble/cy_ble_event_handler.c ****                     Cy_BLE_SetScanState(CY_BLE_SCAN_STATE_STOPPED);
 621:Generated_Source\PSoC6\pdl\middleware\ble/cy_ble_event_handler.c ****                 }
 622:Generated_Source\PSoC6\pdl\middleware\ble/cy_ble_event_handler.c ****                 else /* The following event indicates that scanning has been stopped by BLE Stack *
 623:Generated_Source\PSoC6\pdl\middleware\ble/cy_ble_event_handler.c ****                 {
 624:Generated_Source\PSoC6\pdl\middleware\ble/cy_ble_event_handler.c ****                     if(Cy_BLE_GetScanState() == CY_BLE_SCAN_STATE_SCANNING)
 625:Generated_Source\PSoC6\pdl\middleware\ble/cy_ble_event_handler.c ****                     {
 626:Generated_Source\PSoC6\pdl\middleware\ble/cy_ble_event_handler.c ****                         Cy_BLE_SetScanState(CY_BLE_SCAN_STATE_STOPPED);
 627:Generated_Source\PSoC6\pdl\middleware\ble/cy_ble_event_handler.c ****                         if((cy_ble_configPtr->gapcScanParams[cy_ble_scanIndex].slowScanEnabled != 0
 628:Generated_Source\PSoC6\pdl\middleware\ble/cy_ble_event_handler.c ****                            (cy_ble_configPtr->gapcScanParams[cy_ble_scanIndex].fastScanTimeOut != 0
 629:Generated_Source\PSoC6\pdl\middleware\ble/cy_ble_event_handler.c ****                         {
 630:Generated_Source\PSoC6\pdl\middleware\ble/cy_ble_event_handler.c ****                             if(cy_ble_scanningIntervalType == CY_BLE_SCANNING_FAST)
 631:Generated_Source\PSoC6\pdl\middleware\ble/cy_ble_event_handler.c ****                             {
 632:Generated_Source\PSoC6\pdl\middleware\ble/cy_ble_event_handler.c ****                                 /* When a fast scanning timeout occurs: Start slow scanning */
 633:Generated_Source\PSoC6\pdl\middleware\ble/cy_ble_event_handler.c ****                                 if(Cy_BLE_GAPC_StartScan(CY_BLE_SCANNING_SLOW, cy_ble_scanIndex) ==
 634:Generated_Source\PSoC6\pdl\middleware\ble/cy_ble_event_handler.c ****                                 {
 635:Generated_Source\PSoC6\pdl\middleware\ble/cy_ble_event_handler.c ****                                     Cy_BLE_SetScanState(CY_BLE_SCAN_STATE_SCAN_INITIATED);
 636:Generated_Source\PSoC6\pdl\middleware\ble/cy_ble_event_handler.c ****                                 }
 637:Generated_Source\PSoC6\pdl\middleware\ble/cy_ble_event_handler.c ****                             }
 638:Generated_Source\PSoC6\pdl\middleware\ble/cy_ble_event_handler.c ****                         }
 639:Generated_Source\PSoC6\pdl\middleware\ble/cy_ble_event_handler.c ****                     }
 640:Generated_Source\PSoC6\pdl\middleware\ble/cy_ble_event_handler.c ****                 }
 641:Generated_Source\PSoC6\pdl\middleware\ble/cy_ble_event_handler.c ****             }
 642:Generated_Source\PSoC6\pdl\middleware\ble/cy_ble_event_handler.c ****             break;
 643:Generated_Source\PSoC6\pdl\middleware\ble/cy_ble_event_handler.c ****         #endif /* CY_BLE_GAP_ROLE_CENTRAL || CY_BLE_GAP_ROLE_OBSERVER */
 644:Generated_Source\PSoC6\pdl\middleware\ble/cy_ble_event_handler.c **** 
 645:Generated_Source\PSoC6\pdl\middleware\ble/cy_ble_event_handler.c ****         /**********************************************************
 646:Generated_Source\PSoC6\pdl\middleware\ble/cy_ble_event_handler.c ****          * L2AP events
 647:Generated_Source\PSoC6\pdl\middleware\ble/cy_ble_event_handler.c ****          ************************************************************/
 648:Generated_Source\PSoC6\pdl\middleware\ble/cy_ble_event_handler.c ****         case CY_BLE_EVT_L2CAP_CONN_PARAM_UPDATE_RSP:
 649:Generated_Source\PSoC6\pdl\middleware\ble/cy_ble_event_handler.c ****         #if (CY_BLE_GAP_ROLE_PERIPHERAL || CY_BLE_GAP_ROLE_CENTRAL)
 650:Generated_Source\PSoC6\pdl\middleware\ble/cy_ble_event_handler.c ****             (void)Cy_BLE_InvokeServiceEventHandler((uint32_t)event, (void*)evParam);
 1083              		.loc 1 650 0
 1084 04c4 FFF7FEFF 		bl	Cy_BLE_InvokeServiceEventHandler
 1085              	.LVL106:
 651:Generated_Source\PSoC6\pdl\middleware\ble/cy_ble_event_handler.c ****         #endif /* (CY_BLE_GAP_ROLE_PERIPHERAL || CY_BLE_GAP_ROLE_CENTRAL) */
 652:Generated_Source\PSoC6\pdl\middleware\ble/cy_ble_event_handler.c ****             break;
 1086              		.loc 1 652 0
 1087 04c8 88E0     		b	.L34
 1088              	.LVL107:
 1089              	.L52:
 1090 04ca 0B88     		ldrh	r3, [r1]	@ unaligned
 1091 04cc ADF80030 		strh	r3, [sp]	@ unaligned
 1092              	.LVL108:
 1093              	.LBB114:
 1094              	.LBB115:
 895:Generated_Source\PSoC6\pdl\middleware\ble/cy_ble_gap.h ****     {
 1095              		.loc 2 895 0
 1096 04d0 9DF80130 		ldrb	r3, [sp, #1]	@ zero_extendqisi2
 1097 04d4 1BB9     		cbnz	r3, .L91
 897:Generated_Source\PSoC6\pdl\middleware\ble/cy_ble_gap.h ****     }
 1098              		.loc 2 897 0
 1099 04d6 0221     		movs	r1, #2
 1100              	.LVL109:
 1101 04d8 4A4A     		ldr	r2, .L105+4
ARM GAS  C:\Users\hkmnt\AppData\Local\Temp\ccBdSSuH.s 			page 50


 1102 04da D154     		strb	r1, [r2, r3]
 1103 04dc 05E0     		b	.L92
 1104              	.LVL110:
 1105              	.L91:
 902:Generated_Source\PSoC6\pdl\middleware\ble/cy_ble_gap.h ****     }
 1106              		.loc 2 902 0
 1107 04de 23B9     		cbnz	r3, .L92
 1108 04e0 40F28631 		movw	r1, #902
 1109              	.LVL111:
 1110 04e4 4848     		ldr	r0, .L105+8
 1111              	.LVL112:
 1112 04e6 FFF7FEFF 		bl	Cy_SysLib_AssertFailed
 1113              	.LVL113:
 1114              	.L92:
 1115              	.LBE115:
 1116              	.LBE114:
 653:Generated_Source\PSoC6\pdl\middleware\ble/cy_ble_event_handler.c **** 
 654:Generated_Source\PSoC6\pdl\middleware\ble/cy_ble_event_handler.c ****             /**********************************************************
 655:Generated_Source\PSoC6\pdl\middleware\ble/cy_ble_event_handler.c ****              * GATT events
 656:Generated_Source\PSoC6\pdl\middleware\ble/cy_ble_event_handler.c ****              ************************************************************/
 657:Generated_Source\PSoC6\pdl\middleware\ble/cy_ble_event_handler.c ****         #if ((CY_BLE_GATT_ROLE_SERVER) || (CY_BLE_GATT_ROLE_CLIENT))
 658:Generated_Source\PSoC6\pdl\middleware\ble/cy_ble_event_handler.c ****         case CY_BLE_EVT_GATT_CONNECT_IND:
 659:Generated_Source\PSoC6\pdl\middleware\ble/cy_ble_event_handler.c ****         #if (CY_BLE_GATT_ROLE_CLIENT)
 660:Generated_Source\PSoC6\pdl\middleware\ble/cy_ble_event_handler.c ****             /* If connected to the same device which is already discovered */
 661:Generated_Source\PSoC6\pdl\middleware\ble/cy_ble_event_handler.c ****             if((Cy_BLE_GetConnectionState(*(cy_stc_ble_conn_handle_t*)evParam) ==
 662:Generated_Source\PSoC6\pdl\middleware\ble/cy_ble_event_handler.c ****                 CY_BLE_CONN_STATE_CLIENT_DISCONNECTED_DISCOVERED) &&
 663:Generated_Source\PSoC6\pdl\middleware\ble/cy_ble_event_handler.c ****                (((cy_stc_ble_conn_handle_t*)evParam)->bdHandle ==
 664:Generated_Source\PSoC6\pdl\middleware\ble/cy_ble_event_handler.c ****                 cy_ble_connHandle[((cy_stc_ble_conn_handle_t*)evParam)->attId].bdHandle))
 665:Generated_Source\PSoC6\pdl\middleware\ble/cy_ble_event_handler.c ****             {   /* Set a discovered state */
 666:Generated_Source\PSoC6\pdl\middleware\ble/cy_ble_event_handler.c ****                 Cy_BLE_SetConnectionState(*(cy_stc_ble_conn_handle_t*)evParam, CY_BLE_CONN_STATE_CL
 667:Generated_Source\PSoC6\pdl\middleware\ble/cy_ble_event_handler.c ****             }
 668:Generated_Source\PSoC6\pdl\middleware\ble/cy_ble_event_handler.c ****             else    /* Connected to a new device */
 669:Generated_Source\PSoC6\pdl\middleware\ble/cy_ble_event_handler.c ****         #endif /* CY_BLE_GATT_ROLE_CLIENT */
 670:Generated_Source\PSoC6\pdl\middleware\ble/cy_ble_event_handler.c ****             {
 671:Generated_Source\PSoC6\pdl\middleware\ble/cy_ble_event_handler.c ****                 /* Clear the discovery index for the Client role */
 672:Generated_Source\PSoC6\pdl\middleware\ble/cy_ble_event_handler.c ****             #if (CY_BLE_GATT_ROLE_CLIENT)
 673:Generated_Source\PSoC6\pdl\middleware\ble/cy_ble_event_handler.c ****                 (void)Cy_BLE_GATTC_RemoveConnHandle(*(cy_stc_ble_conn_handle_t*)evParam);
 674:Generated_Source\PSoC6\pdl\middleware\ble/cy_ble_event_handler.c ****             #endif /* CY_BLE_GATT_ROLE_CLIENT */
 675:Generated_Source\PSoC6\pdl\middleware\ble/cy_ble_event_handler.c ****                 Cy_BLE_SetConnectionState(*(cy_stc_ble_conn_handle_t*)evParam, CY_BLE_CONN_STATE_CO
 676:Generated_Source\PSoC6\pdl\middleware\ble/cy_ble_event_handler.c ****                 cy_ble_connHandle[((cy_stc_ble_conn_handle_t*)evParam)->attId] = *(cy_stc_ble_conn_
 1117              		.loc 1 676 0
 1118 04ea 6A78     		ldrb	r2, [r5, #1]	@ zero_extendqisi2
 1119 04ec 2988     		ldrh	r1, [r5]	@ unaligned
 1120 04ee 444B     		ldr	r3, .L105
 1121 04f0 23F81210 		strh	r1, [r3, r2, lsl #1]	@ unaligned
 677:Generated_Source\PSoC6\pdl\middleware\ble/cy_ble_event_handler.c ****             }
 678:Generated_Source\PSoC6\pdl\middleware\ble/cy_ble_event_handler.c **** 
 679:Generated_Source\PSoC6\pdl\middleware\ble/cy_ble_event_handler.c ****             cy_ble_busyStatus[((cy_stc_ble_conn_handle_t*)evParam)->attId] = CY_BLE_STACK_STATE_FRE
 1122              		.loc 1 679 0
 1123 04f4 6B78     		ldrb	r3, [r5, #1]	@ zero_extendqisi2
 1124 04f6 0021     		movs	r1, #0
 1125 04f8 4D4A     		ldr	r2, .L105+48
 1126 04fa D154     		strb	r1, [r2, r3]
 680:Generated_Source\PSoC6\pdl\middleware\ble/cy_ble_event_handler.c **** 
 681:Generated_Source\PSoC6\pdl\middleware\ble/cy_ble_event_handler.c ****         #if ((CY_BLE_GATT_ROLE_SERVER) && (CY_BLE_GATT_DB_CCCD_COUNT != 0u) && \
 682:Generated_Source\PSoC6\pdl\middleware\ble/cy_ble_event_handler.c ****             (CY_BLE_BONDING_REQUIREMENT == CY_BLE_BONDING_YES))
 683:Generated_Source\PSoC6\pdl\middleware\ble/cy_ble_event_handler.c ****             
ARM GAS  C:\Users\hkmnt\AppData\Local\Temp\ccBdSSuH.s 			page 51


 684:Generated_Source\PSoC6\pdl\middleware\ble/cy_ble_event_handler.c ****             /* Initialize the CCCD values in the RAM when bonding is enabled */
 685:Generated_Source\PSoC6\pdl\middleware\ble/cy_ble_event_handler.c ****             (void)memcpy((uint8_t*)cy_ble_attValuesCccdMultiple[((cy_stc_ble_conn_handle_t*)evParam
 686:Generated_Source\PSoC6\pdl\middleware\ble/cy_ble_event_handler.c ****                          cy_ble_configPtr->flashStorage->attValuesCCCDFlashMemory[((cy_stc_ble_conn
 687:Generated_Source\PSoC6\pdl\middleware\ble/cy_ble_event_handler.c ****                                                                                    bdHandle],
 688:Generated_Source\PSoC6\pdl\middleware\ble/cy_ble_event_handler.c ****                          CY_BLE_GATT_DB_CCCD_COUNT + CY_BLE_CCCD_CRC_BYTE);
 689:Generated_Source\PSoC6\pdl\middleware\ble/cy_ble_event_handler.c **** 
 690:Generated_Source\PSoC6\pdl\middleware\ble/cy_ble_event_handler.c ****             /* Check CRC for CCCD data */
 691:Generated_Source\PSoC6\pdl\middleware\ble/cy_ble_event_handler.c ****             {
 692:Generated_Source\PSoC6\pdl\middleware\ble/cy_ble_event_handler.c ****                 uint8_t cccdCrc = Cy_BLE_HAL_CalcCRC8(cy_ble_attValuesCccdMultiple[((cy_stc_ble_con
 693:Generated_Source\PSoC6\pdl\middleware\ble/cy_ble_event_handler.c ****                                                       CY_BLE_GATT_DB_CCCD_COUNT);
 694:Generated_Source\PSoC6\pdl\middleware\ble/cy_ble_event_handler.c **** 
 695:Generated_Source\PSoC6\pdl\middleware\ble/cy_ble_event_handler.c ****                 if(cy_ble_attValuesCccdMultiple[((cy_stc_ble_conn_handle_t*)evParam)->attId][CY_BLE
 696:Generated_Source\PSoC6\pdl\middleware\ble/cy_ble_event_handler.c ****                 {
 697:Generated_Source\PSoC6\pdl\middleware\ble/cy_ble_event_handler.c ****                     /* Inform that the CRC for CCCD is wrong */
 698:Generated_Source\PSoC6\pdl\middleware\ble/cy_ble_event_handler.c ****                     Cy_BLE_ApplCallback((uint32_t)CY_BLE_EVT_GATTS_EVT_CCCD_CORRUPT, NULL);
 699:Generated_Source\PSoC6\pdl\middleware\ble/cy_ble_event_handler.c ****                     
 700:Generated_Source\PSoC6\pdl\middleware\ble/cy_ble_event_handler.c ****                     /* Clean the CCCD buffer in the RAM */
 701:Generated_Source\PSoC6\pdl\middleware\ble/cy_ble_event_handler.c ****                     (void)memset((uint8_t*)cy_ble_attValuesCccdMultiple[((cy_stc_ble_conn_handle_t*
 702:Generated_Source\PSoC6\pdl\middleware\ble/cy_ble_event_handler.c ****                                   0, CY_BLE_GATT_DB_CCCD_COUNT + CY_BLE_CCCD_CRC_BYTE);
 703:Generated_Source\PSoC6\pdl\middleware\ble/cy_ble_event_handler.c ****                 }            
 704:Generated_Source\PSoC6\pdl\middleware\ble/cy_ble_event_handler.c ****             }        
 705:Generated_Source\PSoC6\pdl\middleware\ble/cy_ble_event_handler.c ****         #endif /* CY_BLE_GATT_ROLE_SERVER && (CY_BLE_BONDING_REQUIREMENT == CY_BLE_BONDING_YES) */
 706:Generated_Source\PSoC6\pdl\middleware\ble/cy_ble_event_handler.c **** 
 707:Generated_Source\PSoC6\pdl\middleware\ble/cy_ble_event_handler.c ****             (void)Cy_BLE_InvokeServiceEventHandler((uint32_t)event, (void*)evParam);
 1127              		.loc 1 707 0
 1128 04fc 2946     		mov	r1, r5
 1129 04fe 2046     		mov	r0, r4
 1130 0500 FFF7FEFF 		bl	Cy_BLE_InvokeServiceEventHandler
 1131              	.LVL114:
 708:Generated_Source\PSoC6\pdl\middleware\ble/cy_ble_event_handler.c ****             break;
 1132              		.loc 1 708 0
 1133 0504 6AE0     		b	.L34
 1134              	.LVL115:
 1135              	.L55:
 1136 0506 0B88     		ldrh	r3, [r1]	@ unaligned
 1137 0508 ADF80430 		strh	r3, [sp, #4]	@ unaligned
 1138              	.LVL116:
 1139              	.LBB116:
 1140              	.LBB117:
 895:Generated_Source\PSoC6\pdl\middleware\ble/cy_ble_gap.h ****     {
 1141              		.loc 2 895 0
 1142 050c 9DF80530 		ldrb	r3, [sp, #5]	@ zero_extendqisi2
 1143 0510 1BB9     		cbnz	r3, .L93
 897:Generated_Source\PSoC6\pdl\middleware\ble/cy_ble_gap.h ****     }
 1144              		.loc 2 897 0
 1145 0512 0021     		movs	r1, #0
 1146              	.LVL117:
 1147 0514 3B4A     		ldr	r2, .L105+4
 1148 0516 D154     		strb	r1, [r2, r3]
 1149 0518 05E0     		b	.L94
 1150              	.LVL118:
 1151              	.L93:
 902:Generated_Source\PSoC6\pdl\middleware\ble/cy_ble_gap.h ****     }
 1152              		.loc 2 902 0
 1153 051a 23B9     		cbnz	r3, .L94
 1154 051c 40F28631 		movw	r1, #902
 1155              	.LVL119:
ARM GAS  C:\Users\hkmnt\AppData\Local\Temp\ccBdSSuH.s 			page 52


 1156 0520 3948     		ldr	r0, .L105+8
 1157              	.LVL120:
 1158 0522 FFF7FEFF 		bl	Cy_SysLib_AssertFailed
 1159              	.LVL121:
 1160              	.L94:
 1161              	.LBE117:
 1162              	.LBE116:
 709:Generated_Source\PSoC6\pdl\middleware\ble/cy_ble_event_handler.c **** 
 710:Generated_Source\PSoC6\pdl\middleware\ble/cy_ble_event_handler.c ****         case CY_BLE_EVT_GATT_DISCONNECT_IND:
 711:Generated_Source\PSoC6\pdl\middleware\ble/cy_ble_event_handler.c ****         #if (CY_BLE_GATT_ROLE_CLIENT)
 712:Generated_Source\PSoC6\pdl\middleware\ble/cy_ble_event_handler.c ****             if((Cy_BLE_GetConnectionState(*(cy_stc_ble_conn_handle_t*)evParam) == CY_BLE_CONN_STATE
 713:Generated_Source\PSoC6\pdl\middleware\ble/cy_ble_event_handler.c ****                (CY_BLE_BONDING_REQUIREMENT == CY_BLE_BONDING_YES))
 714:Generated_Source\PSoC6\pdl\middleware\ble/cy_ble_event_handler.c ****             {
 715:Generated_Source\PSoC6\pdl\middleware\ble/cy_ble_event_handler.c ****                 Cy_BLE_SetConnectionState(*(cy_stc_ble_conn_handle_t*)evParam,
 716:Generated_Source\PSoC6\pdl\middleware\ble/cy_ble_event_handler.c ****                                           CY_BLE_CONN_STATE_CLIENT_DISCONNECTED_DISCOVERED);
 717:Generated_Source\PSoC6\pdl\middleware\ble/cy_ble_event_handler.c ****             }
 718:Generated_Source\PSoC6\pdl\middleware\ble/cy_ble_event_handler.c ****             else
 719:Generated_Source\PSoC6\pdl\middleware\ble/cy_ble_event_handler.c ****         #endif /* CY_BLE_GATT_ROLE_CLIENT */
 720:Generated_Source\PSoC6\pdl\middleware\ble/cy_ble_event_handler.c ****             {
 721:Generated_Source\PSoC6\pdl\middleware\ble/cy_ble_event_handler.c ****                 Cy_BLE_SetConnectionState(*(cy_stc_ble_conn_handle_t*)evParam, CY_BLE_CONN_STATE_DI
 722:Generated_Source\PSoC6\pdl\middleware\ble/cy_ble_event_handler.c ****             #if (CY_BLE_GATT_ROLE_CLIENT)
 723:Generated_Source\PSoC6\pdl\middleware\ble/cy_ble_event_handler.c ****                 (void)Cy_BLE_GATTC_RemoveConnHandle(*(cy_stc_ble_conn_handle_t*)evParam);
 724:Generated_Source\PSoC6\pdl\middleware\ble/cy_ble_event_handler.c ****             #endif /* CY_BLE_GATT_ROLE_CLIENT */
 725:Generated_Source\PSoC6\pdl\middleware\ble/cy_ble_event_handler.c ****             }
 726:Generated_Source\PSoC6\pdl\middleware\ble/cy_ble_event_handler.c **** 
 727:Generated_Source\PSoC6\pdl\middleware\ble/cy_ble_event_handler.c ****             #if ((CY_BLE_GAP_ROLE_PERIPHERAL || CY_BLE_GAP_ROLE_CENTRAL))
 728:Generated_Source\PSoC6\pdl\middleware\ble/cy_ble_event_handler.c ****                 cy_ble_pairStatus[(*(cy_stc_ble_conn_handle_t *)evParam).attId] = false;
 1163              		.loc 1 728 0
 1164 0526 6B78     		ldrb	r3, [r5, #1]	@ zero_extendqisi2
 1165 0528 0021     		movs	r1, #0
 1166 052a 384A     		ldr	r2, .L105+12
 1167 052c D154     		strb	r1, [r2, r3]
 729:Generated_Source\PSoC6\pdl\middleware\ble/cy_ble_event_handler.c ****             #endif /*((CY_BLE_GAP_ROLE_PERIPHERAL || CY_BLE_GAP_ROLE_CENTRAL))*/
 730:Generated_Source\PSoC6\pdl\middleware\ble/cy_ble_event_handler.c ****         
 731:Generated_Source\PSoC6\pdl\middleware\ble/cy_ble_event_handler.c ****             (void)Cy_BLE_InvokeServiceEventHandler((uint32_t)event, (void*)evParam);
 1168              		.loc 1 731 0
 1169 052e 2946     		mov	r1, r5
 1170 0530 2046     		mov	r0, r4
 1171 0532 FFF7FEFF 		bl	Cy_BLE_InvokeServiceEventHandler
 1172              	.LVL122:
 732:Generated_Source\PSoC6\pdl\middleware\ble/cy_ble_event_handler.c ****             break;
 1173              		.loc 1 732 0
 1174 0536 51E0     		b	.L34
 1175              	.LVL123:
 1176              	.L56:
 1177              	.LBB118:
 733:Generated_Source\PSoC6\pdl\middleware\ble/cy_ble_event_handler.c **** 
 734:Generated_Source\PSoC6\pdl\middleware\ble/cy_ble_event_handler.c ****         case CY_BLE_EVT_GATTS_XCNHG_MTU_REQ:
 735:Generated_Source\PSoC6\pdl\middleware\ble/cy_ble_event_handler.c ****         {
 736:Generated_Source\PSoC6\pdl\middleware\ble/cy_ble_event_handler.c ****             cy_stc_ble_gatt_xchg_mtu_param_t mtuParam;
 737:Generated_Source\PSoC6\pdl\middleware\ble/cy_ble_event_handler.c ****             mtuParam.connHandle = ((cy_stc_ble_gatt_xchg_mtu_param_t*)evParam)->connHandle;
 1178              		.loc 1 737 0
 1179 0538 0B88     		ldrh	r3, [r1]
 1180 053a ADF81030 		strh	r3, [sp, #16]	@ movhi
 738:Generated_Source\PSoC6\pdl\middleware\ble/cy_ble_event_handler.c ****             mtuParam.mtu = CY_BLE_GATT_MTU;
 1181              		.loc 1 738 0
 1182 053e 1723     		movs	r3, #23
ARM GAS  C:\Users\hkmnt\AppData\Local\Temp\ccBdSSuH.s 			page 53


 1183 0540 ADF81230 		strh	r3, [sp, #18]	@ movhi
 739:Generated_Source\PSoC6\pdl\middleware\ble/cy_ble_event_handler.c ****             
 740:Generated_Source\PSoC6\pdl\middleware\ble/cy_ble_event_handler.c ****             (void)Cy_BLE_GATTS_ExchangeMtuRsp(&mtuParam);
 1184              		.loc 1 740 0
 1185 0544 04A8     		add	r0, sp, #16
 1186              	.LVL124:
 1187 0546 FFF7FEFF 		bl	Cy_BLE_GATTS_ExchangeMtuRsp
 1188              	.LVL125:
 1189              	.LBE118:
 741:Generated_Source\PSoC6\pdl\middleware\ble/cy_ble_event_handler.c ****         }
 742:Generated_Source\PSoC6\pdl\middleware\ble/cy_ble_event_handler.c ****         break;
 1190              		.loc 1 742 0
 1191 054a 47E0     		b	.L34
 1192              	.LVL126:
 1193              	.L50:
 1194              	.LBB119:
 743:Generated_Source\PSoC6\pdl\middleware\ble/cy_ble_event_handler.c ****     #endif /* CY_BLE_GATT_ROLE_SERVER || CY_BLE_GATT_ROLE_CLIENT */
 744:Generated_Source\PSoC6\pdl\middleware\ble/cy_ble_event_handler.c **** 
 745:Generated_Source\PSoC6\pdl\middleware\ble/cy_ble_event_handler.c ****     #if (CY_BLE_GATT_ROLE_CLIENT)
 746:Generated_Source\PSoC6\pdl\middleware\ble/cy_ble_event_handler.c ****         case CY_BLE_EVT_GAPC_SCAN_PROGRESS_RESULT:
 747:Generated_Source\PSoC6\pdl\middleware\ble/cy_ble_event_handler.c ****             (void)Cy_BLE_InvokeServiceEventHandler((uint32_t)event, (void*)evParam);
 748:Generated_Source\PSoC6\pdl\middleware\ble/cy_ble_event_handler.c ****             break;
 749:Generated_Source\PSoC6\pdl\middleware\ble/cy_ble_event_handler.c ****     #endif /* CY_BLE_GATT_ROLE_CLIENT */
 750:Generated_Source\PSoC6\pdl\middleware\ble/cy_ble_event_handler.c **** 
 751:Generated_Source\PSoC6\pdl\middleware\ble/cy_ble_event_handler.c ****     #if (CY_BLE_GATT_ROLE_SERVER)
 752:Generated_Source\PSoC6\pdl\middleware\ble/cy_ble_event_handler.c ****         case CY_BLE_EVT_GATTS_WRITE_REQ:
 753:Generated_Source\PSoC6\pdl\middleware\ble/cy_ble_event_handler.c ****         {
 754:Generated_Source\PSoC6\pdl\middleware\ble/cy_ble_event_handler.c ****             cy_en_ble_gatt_err_code_t gattErr;
 755:Generated_Source\PSoC6\pdl\middleware\ble/cy_ble_event_handler.c ****             cy_ble_gatt_db_attr_handle_t attrHandle;
 756:Generated_Source\PSoC6\pdl\middleware\ble/cy_ble_event_handler.c **** 
 757:Generated_Source\PSoC6\pdl\middleware\ble/cy_ble_event_handler.c ****             /* Process GATT service */
 758:Generated_Source\PSoC6\pdl\middleware\ble/cy_ble_event_handler.c ****             gattErr = Cy_BLE_GATTS_WriteEventHandler((cy_stc_ble_gatts_write_cmd_req_param_t*)evPar
 1195              		.loc 1 758 0
 1196 054c 0846     		mov	r0, r1
 1197              	.LVL127:
 1198 054e FFF7FEFF 		bl	Cy_BLE_GATTS_WriteEventHandler
 1199              	.LVL128:
 759:Generated_Source\PSoC6\pdl\middleware\ble/cy_ble_event_handler.c ****             
 760:Generated_Source\PSoC6\pdl\middleware\ble/cy_ble_event_handler.c ****             /* Process all registered service */
 761:Generated_Source\PSoC6\pdl\middleware\ble/cy_ble_event_handler.c ****             if(gattErr == CY_BLE_GATT_ERR_NONE)
 1200              		.loc 1 761 0
 1201 0552 0146     		mov	r1, r0
 1202 0554 20B9     		cbnz	r0, .L95
 762:Generated_Source\PSoC6\pdl\middleware\ble/cy_ble_event_handler.c ****             {
 763:Generated_Source\PSoC6\pdl\middleware\ble/cy_ble_event_handler.c ****                 gattErr = Cy_BLE_InvokeServiceEventHandler((uint32_t)event, (void*)evParam);
 1203              		.loc 1 763 0
 1204 0556 2946     		mov	r1, r5
 1205 0558 2046     		mov	r0, r4
 1206              	.LVL129:
 1207 055a FFF7FEFF 		bl	Cy_BLE_InvokeServiceEventHandler
 1208              	.LVL130:
 1209 055e 0146     		mov	r1, r0
 1210              	.LVL131:
 1211              	.L95:
 764:Generated_Source\PSoC6\pdl\middleware\ble/cy_ble_event_handler.c ****             }
 765:Generated_Source\PSoC6\pdl\middleware\ble/cy_ble_event_handler.c ****             /* Send response if event was handled by the service */
 766:Generated_Source\PSoC6\pdl\middleware\ble/cy_ble_event_handler.c ****             Cy_BLE_SendWriteResponse((cy_stc_ble_gatts_write_cmd_req_param_t*)evParam, gattErr);
ARM GAS  C:\Users\hkmnt\AppData\Local\Temp\ccBdSSuH.s 			page 54


 1212              		.loc 1 766 0
 1213 0560 2846     		mov	r0, r5
 1214 0562 FFF7FEFF 		bl	Cy_BLE_SendWriteResponse
 1215              	.LVL132:
 767:Generated_Source\PSoC6\pdl\middleware\ble/cy_ble_event_handler.c **** 
 768:Generated_Source\PSoC6\pdl\middleware\ble/cy_ble_event_handler.c ****             /* Call Cy_BLE_ApplCallback if event was not processed */
 769:Generated_Source\PSoC6\pdl\middleware\ble/cy_ble_event_handler.c ****             if((cy_ble_eventHandlerFlag & (CY_BLE_CALLBACK | CY_BLE_ENABLE_ALL_EVENTS)) != 0u)
 1216              		.loc 1 769 0
 1217 0566 2E4B     		ldr	r3, .L105+32
 1218 0568 1B78     		ldrb	r3, [r3]	@ zero_extendqisi2
 1219 056a 13F0110F 		tst	r3, #17
 1220 056e 04D0     		beq	.L96
 770:Generated_Source\PSoC6\pdl\middleware\ble/cy_ble_event_handler.c ****             {
 771:Generated_Source\PSoC6\pdl\middleware\ble/cy_ble_event_handler.c ****                 Cy_BLE_ApplCallback((uint32_t)event, evParam);
 1221              		.loc 1 771 0
 1222 0570 304B     		ldr	r3, .L105+52
 1223 0572 1B68     		ldr	r3, [r3]
 1224 0574 2946     		mov	r1, r5
 1225 0576 2046     		mov	r0, r4
 1226 0578 9847     		blx	r3
 1227              	.LVL133:
 1228              	.L96:
 772:Generated_Source\PSoC6\pdl\middleware\ble/cy_ble_event_handler.c ****             }
 773:Generated_Source\PSoC6\pdl\middleware\ble/cy_ble_event_handler.c **** 
 774:Generated_Source\PSoC6\pdl\middleware\ble/cy_ble_event_handler.c ****             /* Send Error response if unknown attr handle */
 775:Generated_Source\PSoC6\pdl\middleware\ble/cy_ble_event_handler.c ****             attrHandle = ((cy_stc_ble_gatts_write_cmd_req_param_t*)evParam)->handleValPair.attrHand
 1229              		.loc 1 775 0
 1230 057a 2A89     		ldrh	r2, [r5, #8]
 1231              	.LVL134:
 776:Generated_Source\PSoC6\pdl\middleware\ble/cy_ble_event_handler.c ****             if( ((cy_ble_eventHandlerFlag & CY_BLE_CALLBACK) != 0u) && 
 1232              		.loc 1 776 0
 1233 057c 284B     		ldr	r3, .L105+32
 1234 057e 1B78     		ldrb	r3, [r3]	@ zero_extendqisi2
 1235 0580 13F0010F 		tst	r3, #1
 1236 0584 11D0     		beq	.L97
 777:Generated_Source\PSoC6\pdl\middleware\ble/cy_ble_event_handler.c ****                 ((attrHandle > CY_BLE_GATT_DB_INDEX_COUNT) || (attrHandle == 0u)))
 1237              		.loc 1 777 0 discriminator 1
 1238 0586 531E     		subs	r3, r2, #1
 1239 0588 9BB2     		uxth	r3, r3
 776:Generated_Source\PSoC6\pdl\middleware\ble/cy_ble_event_handler.c ****             if( ((cy_ble_eventHandlerFlag & CY_BLE_CALLBACK) != 0u) && 
 1240              		.loc 1 776 0 discriminator 1
 1241 058a 182B     		cmp	r3, #24
 1242 058c 0DD9     		bls	.L97
 1243              	.LBB120:
 778:Generated_Source\PSoC6\pdl\middleware\ble/cy_ble_event_handler.c ****             {
 779:Generated_Source\PSoC6\pdl\middleware\ble/cy_ble_event_handler.c ****                 /* Processing unknown attr handle (send an Error Response) */
 780:Generated_Source\PSoC6\pdl\middleware\ble/cy_ble_event_handler.c ****                 cy_stc_ble_gatt_err_param_t err_param;
 781:Generated_Source\PSoC6\pdl\middleware\ble/cy_ble_event_handler.c ****                 err_param.errInfo.opCode     = CY_BLE_GATT_WRITE_REQ;
 1244              		.loc 1 781 0
 1245 058e 1223     		movs	r3, #18
 1246 0590 8DF81430 		strb	r3, [sp, #20]
 782:Generated_Source\PSoC6\pdl\middleware\ble/cy_ble_event_handler.c ****                 err_param.errInfo.attrHandle = ((cy_stc_ble_gatts_write_cmd_req_param_t*)evParam)->
 1247              		.loc 1 782 0
 1248 0594 ADF81220 		strh	r2, [sp, #18]	@ movhi
 783:Generated_Source\PSoC6\pdl\middleware\ble/cy_ble_event_handler.c ****                 err_param.connHandle         = ((cy_stc_ble_gatts_write_cmd_req_param_t*)evParam)->
 1249              		.loc 1 783 0
 1250 0598 AB89     		ldrh	r3, [r5, #12]
ARM GAS  C:\Users\hkmnt\AppData\Local\Temp\ccBdSSuH.s 			page 55


 1251 059a ADF81030 		strh	r3, [sp, #16]	@ movhi
 784:Generated_Source\PSoC6\pdl\middleware\ble/cy_ble_event_handler.c ****                 err_param.errInfo.errorCode  = CY_BLE_GATT_ERR_INVALID_HANDLE;
 1252              		.loc 1 784 0
 1253 059e 0123     		movs	r3, #1
 1254 05a0 8DF81530 		strb	r3, [sp, #21]
 785:Generated_Source\PSoC6\pdl\middleware\ble/cy_ble_event_handler.c **** 
 786:Generated_Source\PSoC6\pdl\middleware\ble/cy_ble_event_handler.c ****                 (void)Cy_BLE_GATTS_ErrorRsp(&err_param);
 1255              		.loc 1 786 0
 1256 05a4 04A8     		add	r0, sp, #16
 1257 05a6 FFF7FEFF 		bl	Cy_BLE_GATTS_ErrorRsp
 1258              	.LVL135:
 1259              	.L97:
 1260              	.LBE120:
 787:Generated_Source\PSoC6\pdl\middleware\ble/cy_ble_event_handler.c ****             }
 788:Generated_Source\PSoC6\pdl\middleware\ble/cy_ble_event_handler.c ****             
 789:Generated_Source\PSoC6\pdl\middleware\ble/cy_ble_event_handler.c ****             /* Indicate that request was handled */
 790:Generated_Source\PSoC6\pdl\middleware\ble/cy_ble_event_handler.c ****             cy_ble_eventHandlerFlag &= (uint8_t) ~CY_BLE_CALLBACK;
 1261              		.loc 1 790 0
 1262 05aa 1D4A     		ldr	r2, .L105+32
 1263 05ac 1378     		ldrb	r3, [r2]	@ zero_extendqisi2
 1264 05ae 03F0FE03 		and	r3, r3, #254
 1265 05b2 1370     		strb	r3, [r2]
 1266              	.LBE119:
 791:Generated_Source\PSoC6\pdl\middleware\ble/cy_ble_event_handler.c ****         }
 792:Generated_Source\PSoC6\pdl\middleware\ble/cy_ble_event_handler.c ****         break;
 1267              		.loc 1 792 0
 1268 05b4 12E0     		b	.L34
 1269              	.LVL136:
 1270              	.L59:
 793:Generated_Source\PSoC6\pdl\middleware\ble/cy_ble_event_handler.c **** 
 794:Generated_Source\PSoC6\pdl\middleware\ble/cy_ble_event_handler.c ****         case CY_BLE_EVT_GATTS_WRITE_CMD_REQ:
 795:Generated_Source\PSoC6\pdl\middleware\ble/cy_ble_event_handler.c ****             (void)Cy_BLE_InvokeServiceEventHandler((uint32_t)event, (void*)evParam);
 1271              		.loc 1 795 0
 1272 05b6 FFF7FEFF 		bl	Cy_BLE_InvokeServiceEventHandler
 1273              	.LVL137:
 796:Generated_Source\PSoC6\pdl\middleware\ble/cy_ble_event_handler.c ****             break;
 1274              		.loc 1 796 0
 1275 05ba 0FE0     		b	.L34
 1276              	.LVL138:
 1277              	.L60:
 797:Generated_Source\PSoC6\pdl\middleware\ble/cy_ble_event_handler.c **** 
 798:Generated_Source\PSoC6\pdl\middleware\ble/cy_ble_event_handler.c ****         case CY_BLE_EVT_GATTS_PREP_WRITE_REQ:
 799:Generated_Source\PSoC6\pdl\middleware\ble/cy_ble_event_handler.c ****             (void)Cy_BLE_InvokeServiceEventHandler((uint32_t)event, (void*)evParam);
 1278              		.loc 1 799 0
 1279 05bc FFF7FEFF 		bl	Cy_BLE_InvokeServiceEventHandler
 1280              	.LVL139:
 800:Generated_Source\PSoC6\pdl\middleware\ble/cy_ble_event_handler.c ****             break;
 1281              		.loc 1 800 0
 1282 05c0 0CE0     		b	.L34
 1283              	.LVL140:
 1284              	.L57:
 801:Generated_Source\PSoC6\pdl\middleware\ble/cy_ble_event_handler.c **** 
 802:Generated_Source\PSoC6\pdl\middleware\ble/cy_ble_event_handler.c ****         case CY_BLE_EVT_GATTS_EXEC_WRITE_REQ:
 803:Generated_Source\PSoC6\pdl\middleware\ble/cy_ble_event_handler.c ****             (void)Cy_BLE_InvokeServiceEventHandler((uint32_t)event, (void*)evParam);
 1285              		.loc 1 803 0
 1286 05c2 FFF7FEFF 		bl	Cy_BLE_InvokeServiceEventHandler
 1287              	.LVL141:
ARM GAS  C:\Users\hkmnt\AppData\Local\Temp\ccBdSSuH.s 			page 56


 804:Generated_Source\PSoC6\pdl\middleware\ble/cy_ble_event_handler.c ****             break;
 1288              		.loc 1 804 0
 1289 05c6 09E0     		b	.L34
 1290              	.LVL142:
 1291              	.L63:
 805:Generated_Source\PSoC6\pdl\middleware\ble/cy_ble_event_handler.c **** 
 806:Generated_Source\PSoC6\pdl\middleware\ble/cy_ble_event_handler.c ****         case CY_BLE_EVT_GATTS_HANDLE_VALUE_CNF:
 807:Generated_Source\PSoC6\pdl\middleware\ble/cy_ble_event_handler.c ****             (void)Cy_BLE_InvokeServiceEventHandler((uint32_t)event, (void*)evParam);
 1292              		.loc 1 807 0
 1293 05c8 FFF7FEFF 		bl	Cy_BLE_InvokeServiceEventHandler
 1294              	.LVL143:
 808:Generated_Source\PSoC6\pdl\middleware\ble/cy_ble_event_handler.c ****             break;
 1295              		.loc 1 808 0
 1296 05cc 06E0     		b	.L34
 1297              	.LVL144:
 1298              	.L61:
 809:Generated_Source\PSoC6\pdl\middleware\ble/cy_ble_event_handler.c **** 
 810:Generated_Source\PSoC6\pdl\middleware\ble/cy_ble_event_handler.c ****         case CY_BLE_EVT_GATTS_READ_CHAR_VAL_ACCESS_REQ:
 811:Generated_Source\PSoC6\pdl\middleware\ble/cy_ble_event_handler.c ****         #if (CY_BLE_GATT_DB_CCCD_COUNT != 0u)
 812:Generated_Source\PSoC6\pdl\middleware\ble/cy_ble_event_handler.c ****             (void)Cy_BLE_GATTS_ReadAttributeValueCCCDReqHandler((cy_stc_ble_gatts_char_val_read_req
 1299              		.loc 1 812 0
 1300 05ce 0846     		mov	r0, r1
 1301              	.LVL145:
 1302 05d0 FFF7FEFF 		bl	Cy_BLE_GATTS_ReadAttributeValueCCCDReqHandler
 1303              	.LVL146:
 813:Generated_Source\PSoC6\pdl\middleware\ble/cy_ble_event_handler.c ****         #endif  /* (CY_BLE_GATT_DB_CCCD_COUNT != 0u) */
 814:Generated_Source\PSoC6\pdl\middleware\ble/cy_ble_event_handler.c ****             (void)Cy_BLE_InvokeServiceEventHandler((uint32_t)event, (void*)evParam);
 1304              		.loc 1 814 0
 1305 05d4 2946     		mov	r1, r5
 1306 05d6 2046     		mov	r0, r4
 1307 05d8 FFF7FEFF 		bl	Cy_BLE_InvokeServiceEventHandler
 1308              	.LVL147:
 1309              	.L34:
 815:Generated_Source\PSoC6\pdl\middleware\ble/cy_ble_event_handler.c ****             break;
 816:Generated_Source\PSoC6\pdl\middleware\ble/cy_ble_event_handler.c ****     #endif /* CY_BLE_GATT_ROLE_SERVER */
 817:Generated_Source\PSoC6\pdl\middleware\ble/cy_ble_event_handler.c **** 
 818:Generated_Source\PSoC6\pdl\middleware\ble/cy_ble_event_handler.c ****     #if (CY_BLE_GATT_ROLE_CLIENT)
 819:Generated_Source\PSoC6\pdl\middleware\ble/cy_ble_event_handler.c ****         case CY_BLE_EVT_GATTC_READ_BY_GROUP_TYPE_RSP:
 820:Generated_Source\PSoC6\pdl\middleware\ble/cy_ble_event_handler.c ****             Cy_BLE_ReadByGroupEventHandler((cy_stc_ble_gattc_read_by_grp_rsp_param_t*)evParam);
 821:Generated_Source\PSoC6\pdl\middleware\ble/cy_ble_event_handler.c ****             break;
 822:Generated_Source\PSoC6\pdl\middleware\ble/cy_ble_event_handler.c **** 
 823:Generated_Source\PSoC6\pdl\middleware\ble/cy_ble_event_handler.c ****         case CY_BLE_EVT_GATTC_READ_BY_TYPE_RSP:
 824:Generated_Source\PSoC6\pdl\middleware\ble/cy_ble_event_handler.c ****             Cy_BLE_ReadByTypeEventHandler((cy_stc_ble_gattc_read_by_type_rsp_param_t*)evParam);
 825:Generated_Source\PSoC6\pdl\middleware\ble/cy_ble_event_handler.c ****             break;
 826:Generated_Source\PSoC6\pdl\middleware\ble/cy_ble_event_handler.c **** 
 827:Generated_Source\PSoC6\pdl\middleware\ble/cy_ble_event_handler.c ****         case CY_BLE_EVT_GATTC_READ_BLOB_RSP:
 828:Generated_Source\PSoC6\pdl\middleware\ble/cy_ble_event_handler.c ****             (void)Cy_BLE_InvokeServiceEventHandler((uint32_t)event, (void*)evParam);
 829:Generated_Source\PSoC6\pdl\middleware\ble/cy_ble_event_handler.c ****             break;
 830:Generated_Source\PSoC6\pdl\middleware\ble/cy_ble_event_handler.c **** 
 831:Generated_Source\PSoC6\pdl\middleware\ble/cy_ble_event_handler.c ****         case CY_BLE_EVT_GATTC_LONG_PROCEDURE_END:
 832:Generated_Source\PSoC6\pdl\middleware\ble/cy_ble_event_handler.c ****             Cy_BLE_LongProcedureEndEventHandler(((cy_stc_ble_gattc_long_procedure_end_param_t*)evPa
 833:Generated_Source\PSoC6\pdl\middleware\ble/cy_ble_event_handler.c ****             break;
 834:Generated_Source\PSoC6\pdl\middleware\ble/cy_ble_event_handler.c **** 
 835:Generated_Source\PSoC6\pdl\middleware\ble/cy_ble_event_handler.c ****         case CY_BLE_EVT_GATTC_FIND_INFO_RSP:
 836:Generated_Source\PSoC6\pdl\middleware\ble/cy_ble_event_handler.c ****             Cy_BLE_FindInfoEventHandler((cy_stc_ble_gattc_find_info_rsp_param_t*)evParam);
 837:Generated_Source\PSoC6\pdl\middleware\ble/cy_ble_event_handler.c ****             break;
 838:Generated_Source\PSoC6\pdl\middleware\ble/cy_ble_event_handler.c **** 
ARM GAS  C:\Users\hkmnt\AppData\Local\Temp\ccBdSSuH.s 			page 57


 839:Generated_Source\PSoC6\pdl\middleware\ble/cy_ble_event_handler.c ****         case CY_BLE_EVT_GATTC_ERROR_RSP:
 840:Generated_Source\PSoC6\pdl\middleware\ble/cy_ble_event_handler.c ****             Cy_BLE_ErrorResponseEventHandler((cy_stc_ble_gatt_err_param_t*)evParam);
 841:Generated_Source\PSoC6\pdl\middleware\ble/cy_ble_event_handler.c ****             (void)Cy_BLE_InvokeServiceEventHandler((uint32_t)event, (void*)evParam);
 842:Generated_Source\PSoC6\pdl\middleware\ble/cy_ble_event_handler.c ****             break;
 843:Generated_Source\PSoC6\pdl\middleware\ble/cy_ble_event_handler.c **** 
 844:Generated_Source\PSoC6\pdl\middleware\ble/cy_ble_event_handler.c ****         case CY_BLE_EVT_GATTC_HANDLE_VALUE_NTF:
 845:Generated_Source\PSoC6\pdl\middleware\ble/cy_ble_event_handler.c ****             (void)Cy_BLE_InvokeServiceEventHandler((uint32_t)event, (void*)evParam);
 846:Generated_Source\PSoC6\pdl\middleware\ble/cy_ble_event_handler.c ****             break;
 847:Generated_Source\PSoC6\pdl\middleware\ble/cy_ble_event_handler.c **** 
 848:Generated_Source\PSoC6\pdl\middleware\ble/cy_ble_event_handler.c ****         case CY_BLE_EVT_GATTC_HANDLE_VALUE_IND:
 849:Generated_Source\PSoC6\pdl\middleware\ble/cy_ble_event_handler.c ****             Cy_BLE_GATTC_IndicationEventHandler((cy_stc_ble_gattc_handle_value_ind_param_t*)evParam
 850:Generated_Source\PSoC6\pdl\middleware\ble/cy_ble_event_handler.c ****             (void)Cy_BLE_InvokeServiceEventHandler((uint32_t)event, (void*)evParam);
 851:Generated_Source\PSoC6\pdl\middleware\ble/cy_ble_event_handler.c **** 
 852:Generated_Source\PSoC6\pdl\middleware\ble/cy_ble_event_handler.c ****             /* Respond with a Handle Value Confirmation when request handled */
 853:Generated_Source\PSoC6\pdl\middleware\ble/cy_ble_event_handler.c ****             if((cy_ble_eventHandlerFlag & CY_BLE_CALLBACK) == 0u)
 854:Generated_Source\PSoC6\pdl\middleware\ble/cy_ble_event_handler.c ****             {
 855:Generated_Source\PSoC6\pdl\middleware\ble/cy_ble_event_handler.c ****                 cy_stc_ble_gattc_confirmation_req_t confirmationParam;
 856:Generated_Source\PSoC6\pdl\middleware\ble/cy_ble_event_handler.c ****                 confirmationParam.connHandle = ((cy_stc_ble_gattc_handle_value_ind_param_t*)evParam
 857:Generated_Source\PSoC6\pdl\middleware\ble/cy_ble_event_handler.c **** 
 858:Generated_Source\PSoC6\pdl\middleware\ble/cy_ble_event_handler.c ****                 (void)Cy_BLE_GATTC_Confirmation(&confirmationParam);
 859:Generated_Source\PSoC6\pdl\middleware\ble/cy_ble_event_handler.c ****             }
 860:Generated_Source\PSoC6\pdl\middleware\ble/cy_ble_event_handler.c ****             break;
 861:Generated_Source\PSoC6\pdl\middleware\ble/cy_ble_event_handler.c **** 
 862:Generated_Source\PSoC6\pdl\middleware\ble/cy_ble_event_handler.c ****         case CY_BLE_EVT_GATTC_READ_RSP:
 863:Generated_Source\PSoC6\pdl\middleware\ble/cy_ble_event_handler.c ****             (void)Cy_BLE_InvokeServiceEventHandler((uint32_t)event, (void*)evParam);
 864:Generated_Source\PSoC6\pdl\middleware\ble/cy_ble_event_handler.c ****             break;
 865:Generated_Source\PSoC6\pdl\middleware\ble/cy_ble_event_handler.c **** 
 866:Generated_Source\PSoC6\pdl\middleware\ble/cy_ble_event_handler.c ****         case CY_BLE_EVT_GATTC_READ_MULTI_RSP:
 867:Generated_Source\PSoC6\pdl\middleware\ble/cy_ble_event_handler.c ****             (void)Cy_BLE_InvokeServiceEventHandler((uint32_t)event, (void*)evParam);
 868:Generated_Source\PSoC6\pdl\middleware\ble/cy_ble_event_handler.c ****             break;
 869:Generated_Source\PSoC6\pdl\middleware\ble/cy_ble_event_handler.c **** 
 870:Generated_Source\PSoC6\pdl\middleware\ble/cy_ble_event_handler.c ****         case CY_BLE_EVT_GATTC_WRITE_RSP:
 871:Generated_Source\PSoC6\pdl\middleware\ble/cy_ble_event_handler.c ****             (void)Cy_BLE_InvokeServiceEventHandler((uint32_t)event, (void*)evParam);
 872:Generated_Source\PSoC6\pdl\middleware\ble/cy_ble_event_handler.c ****             break;
 873:Generated_Source\PSoC6\pdl\middleware\ble/cy_ble_event_handler.c **** 
 874:Generated_Source\PSoC6\pdl\middleware\ble/cy_ble_event_handler.c ****         case CY_BLE_EVT_GATTC_EXEC_WRITE_RSP:
 875:Generated_Source\PSoC6\pdl\middleware\ble/cy_ble_event_handler.c ****             (void)Cy_BLE_InvokeServiceEventHandler((uint32_t)event, (void*)evParam);
 876:Generated_Source\PSoC6\pdl\middleware\ble/cy_ble_event_handler.c ****             break;
 877:Generated_Source\PSoC6\pdl\middleware\ble/cy_ble_event_handler.c ****             
 878:Generated_Source\PSoC6\pdl\middleware\ble/cy_ble_event_handler.c ****         case CY_BLE_EVT_GATTC_STOP_CMD_COMPLETE:
 879:Generated_Source\PSoC6\pdl\middleware\ble/cy_ble_event_handler.c ****             {
 880:Generated_Source\PSoC6\pdl\middleware\ble/cy_ble_event_handler.c ****                 uint32_t discIdx = Cy_BLE_GetDiscoveryIdx(*(cy_stc_ble_conn_handle_t *)evParam);
 881:Generated_Source\PSoC6\pdl\middleware\ble/cy_ble_event_handler.c ****                 if( (Cy_BLE_GetConnectionState(*(cy_stc_ble_conn_handle_t *)evParam) == CY_BLE_CONN
 882:Generated_Source\PSoC6\pdl\middleware\ble/cy_ble_event_handler.c ****                     (discIdx < CY_BLE_GATTC_COUNT) && (cy_ble_discovery[discIdx].autoDiscoveryFlag 
 883:Generated_Source\PSoC6\pdl\middleware\ble/cy_ble_event_handler.c ****                 {    
 884:Generated_Source\PSoC6\pdl\middleware\ble/cy_ble_event_handler.c ****                     
 885:Generated_Source\PSoC6\pdl\middleware\ble/cy_ble_event_handler.c ****                     cy_stc_ble_gattc_read_req_t readReqParam =
 886:Generated_Source\PSoC6\pdl\middleware\ble/cy_ble_event_handler.c ****                     {
 887:Generated_Source\PSoC6\pdl\middleware\ble/cy_ble_event_handler.c ****                         .attrHandle = cy_ble_discovery[discIdx].inclInfo.inclHandleRange.startHandl
 888:Generated_Source\PSoC6\pdl\middleware\ble/cy_ble_event_handler.c ****                         .connHandle = *(cy_stc_ble_conn_handle_t *)evParam
 889:Generated_Source\PSoC6\pdl\middleware\ble/cy_ble_event_handler.c ****                     };
 890:Generated_Source\PSoC6\pdl\middleware\ble/cy_ble_event_handler.c ****                     
 891:Generated_Source\PSoC6\pdl\middleware\ble/cy_ble_event_handler.c ****                     /* Get the included service UUID when the included service uses a 128-bit
 892:Generated_Source\PSoC6\pdl\middleware\ble/cy_ble_event_handler.c ****                      * UUID, a Read Request is used. The Attribute Handle for the Read Request is
 893:Generated_Source\PSoC6\pdl\middleware\ble/cy_ble_event_handler.c ****                      * the Attribute Handle of the included service.
 894:Generated_Source\PSoC6\pdl\middleware\ble/cy_ble_event_handler.c ****                      */
 895:Generated_Source\PSoC6\pdl\middleware\ble/cy_ble_event_handler.c **** 
ARM GAS  C:\Users\hkmnt\AppData\Local\Temp\ccBdSSuH.s 			page 58


 896:Generated_Source\PSoC6\pdl\middleware\ble/cy_ble_event_handler.c ****                     if(Cy_BLE_GATTC_ReadCharacteristicValue(&readReqParam) != CY_BLE_SUCCESS)
 897:Generated_Source\PSoC6\pdl\middleware\ble/cy_ble_event_handler.c ****                     {
 898:Generated_Source\PSoC6\pdl\middleware\ble/cy_ble_event_handler.c ****                         Cy_BLE_ApplCallback((uint32_t)CY_BLE_EVT_GATTC_INCL_DISCOVERY_FAILED, (cy_s
 899:Generated_Source\PSoC6\pdl\middleware\ble/cy_ble_event_handler.c ****                         cy_ble_discovery[discIdx].autoDiscoveryFlag = 0u;
 900:Generated_Source\PSoC6\pdl\middleware\ble/cy_ble_event_handler.c ****                     }
 901:Generated_Source\PSoC6\pdl\middleware\ble/cy_ble_event_handler.c ****                     
 902:Generated_Source\PSoC6\pdl\middleware\ble/cy_ble_event_handler.c ****                     cy_ble_eventHandlerFlag &= (uint8_t) ~CY_BLE_CALLBACK;
 903:Generated_Source\PSoC6\pdl\middleware\ble/cy_ble_event_handler.c ****                 }
 904:Generated_Source\PSoC6\pdl\middleware\ble/cy_ble_event_handler.c ****             }     
 905:Generated_Source\PSoC6\pdl\middleware\ble/cy_ble_event_handler.c ****             break;
 906:Generated_Source\PSoC6\pdl\middleware\ble/cy_ble_event_handler.c ****     #endif /* CY_BLE_GATT_ROLE_CLIENT */
 907:Generated_Source\PSoC6\pdl\middleware\ble/cy_ble_event_handler.c **** 
 908:Generated_Source\PSoC6\pdl\middleware\ble/cy_ble_event_handler.c ****     #if ((CY_BLE_GAP_ROLE_PERIPHERAL || CY_BLE_GAP_ROLE_CENTRAL) && (CY_BLE_BONDING_REQUIREMENT == 
 909:Generated_Source\PSoC6\pdl\middleware\ble/cy_ble_event_handler.c ****         case CY_BLE_EVT_PENDING_FLASH_WRITE:
 910:Generated_Source\PSoC6\pdl\middleware\ble/cy_ble_event_handler.c ****             cy_ble_pendingFlashWrite |= CY_BLE_PENDING_STACK_FLASH_WRITE_BIT;
 911:Generated_Source\PSoC6\pdl\middleware\ble/cy_ble_event_handler.c ****             break;
 912:Generated_Source\PSoC6\pdl\middleware\ble/cy_ble_event_handler.c ****     #endif  /* (CY_BLE_BONDING_REQUIREMENT == CY_BLE_BONDING_YES) */
 913:Generated_Source\PSoC6\pdl\middleware\ble/cy_ble_event_handler.c **** 
 914:Generated_Source\PSoC6\pdl\middleware\ble/cy_ble_event_handler.c ****         default:
 915:Generated_Source\PSoC6\pdl\middleware\ble/cy_ble_event_handler.c ****             break;
 916:Generated_Source\PSoC6\pdl\middleware\ble/cy_ble_event_handler.c ****     }
 917:Generated_Source\PSoC6\pdl\middleware\ble/cy_ble_event_handler.c **** 
 918:Generated_Source\PSoC6\pdl\middleware\ble/cy_ble_event_handler.c ****     if((cy_ble_eventHandlerFlag & (CY_BLE_CALLBACK | CY_BLE_ENABLE_ALL_EVENTS)) != 0u)
 1310              		.loc 1 918 0
 1311 05dc 104B     		ldr	r3, .L105+32
 1312 05de 1B78     		ldrb	r3, [r3]	@ zero_extendqisi2
 1313 05e0 13F0110F 		tst	r3, #17
 1314 05e4 09D0     		beq	.L33
 919:Generated_Source\PSoC6\pdl\middleware\ble/cy_ble_event_handler.c ****     {
 920:Generated_Source\PSoC6\pdl\middleware\ble/cy_ble_event_handler.c ****         cy_ble_eventHandlerFlag &= (uint8_t) ~CY_BLE_CALLBACK;
 1315              		.loc 1 920 0
 1316 05e6 0E4A     		ldr	r2, .L105+32
 1317 05e8 1378     		ldrb	r3, [r2]	@ zero_extendqisi2
 1318 05ea 03F0FE03 		and	r3, r3, #254
 1319 05ee 1370     		strb	r3, [r2]
 921:Generated_Source\PSoC6\pdl\middleware\ble/cy_ble_event_handler.c ****         Cy_BLE_ApplCallback((uint32_t)event, evParam);
 1320              		.loc 1 921 0
 1321 05f0 104B     		ldr	r3, .L105+52
 1322 05f2 1B68     		ldr	r3, [r3]
 1323 05f4 2946     		mov	r1, r5
 1324 05f6 2046     		mov	r0, r4
 1325 05f8 9847     		blx	r3
 1326              	.LVL148:
 1327              	.L33:
 922:Generated_Source\PSoC6\pdl\middleware\ble/cy_ble_event_handler.c ****     }
 923:Generated_Source\PSoC6\pdl\middleware\ble/cy_ble_event_handler.c **** }
 1328              		.loc 1 923 0
 1329 05fa 0AB0     		add	sp, sp, #40
 1330              		.cfi_def_cfa_offset 16
 1331              		@ sp needed
 1332 05fc 70BD     		pop	{r4, r5, r6, pc}
 1333              	.LVL149:
 1334              	.L106:
 1335 05fe 00BF     		.align	2
 1336              	.L105:
 1337 0600 00000000 		.word	cy_ble_connHandle
 1338 0604 00000000 		.word	cy_ble_connState
ARM GAS  C:\Users\hkmnt\AppData\Local\Temp\ccBdSSuH.s 			page 59


 1339 0608 00000000 		.word	.LC2
 1340 060c 00000000 		.word	cy_ble_pairStatus
 1341 0610 00000000 		.word	cy_ble_advState
 1342 0614 08000000 		.word	.LANCHOR0+8
 1343 0618 00000000 		.word	cy_ble_devConnRole
 1344 061c 00000000 		.word	cy_ble_state
 1345 0620 00000000 		.word	cy_ble_eventHandlerFlag
 1346 0624 00000000 		.word	cy_ble_configPtr
 1347 0628 00000000 		.word	cy_ble_advIndex
 1348 062c 00000000 		.word	cy_ble_advertisingIntervalType
 1349 0630 00000000 		.word	cy_ble_busyStatus
 1350 0634 00000000 		.word	Cy_BLE_ApplCallback
 1351              		.cfi_endproc
 1352              	.LFE260:
 1353              		.size	Cy_BLE_EventHandler, .-Cy_BLE_EventHandler
 1354              		.comm	cy_ble_eventHandler,12,4
 1355              		.comm	cy_ble_advertisingIntervalType,1,1
 1356              		.comm	cy_ble_cmdStatus,4,4
 1357              		.comm	cy_ble_eventHandlerFlag,1,1
 1358              		.comm	cy_ble_busyStatus,1,4
 1359              		.section	.rodata
 1360              		.align	2
 1361              		.set	.LANCHOR0,. + 0
 1362              	.LC0:
 1363 0000 3F       		.byte	63
 1364 0001 06       		.byte	6
 1365 0002 00       		.byte	0
 1366 0003 00       		.byte	0
 1367 0004 00       		.byte	0
 1368 0005 00       		.byte	0
 1369 0006 00       		.byte	0
 1370 0007 00       		.byte	0
 1371              	.LC1:
 1372 0008 FF       		.byte	-1
 1373 0009 FF       		.byte	-1
 1374              		.section	.rodata.str1.4,"aMS",%progbits,1
 1375              		.align	2
 1376              	.LC2:
 1377 0000 47656E65 		.ascii	"Generated_Source\\PSoC6\\pdl\\middleware\\ble\\cy_b"
 1377      72617465 
 1377      645F536F 
 1377      75726365 
 1377      5C50536F 
 1378 002e 6C655F67 		.ascii	"le_gap.h\000"
 1378      61702E68 
 1378      00
 1379              		.bss
 1380              		.align	2
 1381              		.set	.LANCHOR1,. + 0
 1382              		.type	gPrepWriteReqMem.14272, %object
 1383              		.size	gPrepWriteReqMem.14272, 12
 1384              	gPrepWriteReqMem.14272:
 1385 0000 00000000 		.space	12
 1385      00000000 
 1385      00000000 
 1386              		.text
 1387              	.Letext0:
ARM GAS  C:\Users\hkmnt\AppData\Local\Temp\ccBdSSuH.s 			page 60


 1388              		.file 3 "c:\\program files (x86)\\cypress\\psoc creator\\4.4\\psoc creator\\import\\gnu\\arm\\5.4.
 1389              		.file 4 "c:\\program files (x86)\\cypress\\psoc creator\\4.4\\psoc creator\\import\\gnu\\arm\\5.4.
 1390              		.file 5 "Generated_Source\\PSoC6\\pdl\\devices/psoc6/include/ip/cyip_sflash.h"
 1391              		.file 6 "Generated_Source\\PSoC6\\pdl\\drivers/peripheral/device/cy_device.h"
 1392              		.file 7 "Generated_Source\\PSoC6\\pdl\\devices/psoc6/include/cyble_416045_02.h"
 1393              		.file 8 "Generated_Source\\PSoC6\\pdl\\devices/psoc6/include/psoc6_01_config.h"
 1394              		.file 9 "Generated_Source\\PSoC6\\pdl\\drivers/peripheral/syslib/cy_syslib.h"
 1395              		.file 10 "Generated_Source\\PSoC6\\pdl\\drivers/peripheral/sysint/cy_sysint.h"
 1396              		.file 11 "Generated_Source\\PSoC6\\pdl\\middleware\\ble\\cy_ble_stack.h"
 1397              		.file 12 "Generated_Source\\PSoC6\\pdl\\middleware\\ble\\cy_ble_stack_host_main.h"
 1398              		.file 13 "Generated_Source\\PSoC6\\pdl\\middleware\\ble\\cy_ble_stack_gatt.h"
 1399              		.file 14 "Generated_Source\\PSoC6\\pdl\\middleware\\ble\\cy_ble_stack_gap.h"
 1400              		.file 15 "Generated_Source\\PSoC6\\pdl\\middleware\\ble\\cy_ble_stack_gap_central.h"
 1401              		.file 16 "Generated_Source\\PSoC6\\pdl\\middleware\\ble\\cy_ble_stack_gap_peripheral.h"
 1402              		.file 17 "Generated_Source\\PSoC6\\pdl\\middleware\\ble\\cy_ble_stack_gatt_server.h"
 1403              		.file 18 "Generated_Source\\PSoC6\\pdl\\middleware\\ble\\cy_ble_stack_gatt_db.h"
 1404              		.file 19 "Generated_Source\\PSoC6\\pdl\\middleware\\ble\\cy_ble_gatt.h"
 1405              		.file 20 "Generated_Source\\PSoC6\\pdl\\middleware\\ble\\cy_ble_stack_l2cap.h"
 1406              		.file 21 "Generated_Source\\PSoC6\\pdl\\middleware\\ble\\cy_ble.h"
 1407              		.file 22 "Generated_Source\\PSoC6\\pdl\\middleware\\ble\\cy_ble_dis.h"
 1408              		.file 23 "Generated_Source\\PSoC6\\pdl\\middleware\\ble\\cy_ble_event_handler.h"
 1409              		.file 24 "Generated_Source\\PSoC6\\pdl\\cmsis/include/core_cm4.h"
 1410              		.section	.debug_info,"",%progbits
 1411              	.Ldebug_info0:
 1412 0000 FC300000 		.4byte	0x30fc
 1413 0004 0400     		.2byte	0x4
 1414 0006 00000000 		.4byte	.Ldebug_abbrev0
 1415 000a 04       		.byte	0x4
 1416 000b 01       		.uleb128 0x1
 1417 000c 75250000 		.4byte	.LASF925
 1418 0010 0C       		.byte	0xc
 1419 0011 952E0000 		.4byte	.LASF926
 1420 0015 4F300000 		.4byte	.LASF927
 1421 0019 18000000 		.4byte	.Ldebug_ranges0+0x18
 1422 001d 00000000 		.4byte	0
 1423 0021 00000000 		.4byte	.Ldebug_line0
 1424 0025 02       		.uleb128 0x2
 1425 0026 04       		.byte	0x4
 1426 0027 05       		.byte	0x5
 1427 0028 696E7400 		.ascii	"int\000"
 1428 002c 03       		.uleb128 0x3
 1429 002d 04       		.byte	0x4
 1430 002e 07       		.byte	0x7
 1431 002f 94320000 		.4byte	.LASF0
 1432 0033 03       		.uleb128 0x3
 1433 0034 08       		.byte	0x8
 1434 0035 05       		.byte	0x5
 1435 0036 902A0000 		.4byte	.LASF1
 1436 003a 03       		.uleb128 0x3
 1437 003b 08       		.byte	0x8
 1438 003c 04       		.byte	0x4
 1439 003d 5B380000 		.4byte	.LASF2
 1440 0041 03       		.uleb128 0x3
 1441 0042 01       		.byte	0x1
 1442 0043 06       		.byte	0x6
 1443 0044 BB3D0000 		.4byte	.LASF3
 1444 0048 04       		.uleb128 0x4
ARM GAS  C:\Users\hkmnt\AppData\Local\Temp\ccBdSSuH.s 			page 61


 1445 0049 970A0000 		.4byte	.LASF5
 1446 004d 03       		.byte	0x3
 1447 004e 1D       		.byte	0x1d
 1448 004f 53000000 		.4byte	0x53
 1449 0053 03       		.uleb128 0x3
 1450 0054 01       		.byte	0x1
 1451 0055 08       		.byte	0x8
 1452 0056 71000000 		.4byte	.LASF4
 1453 005a 04       		.uleb128 0x4
 1454 005b EB410000 		.4byte	.LASF6
 1455 005f 03       		.byte	0x3
 1456 0060 29       		.byte	0x29
 1457 0061 65000000 		.4byte	0x65
 1458 0065 03       		.uleb128 0x3
 1459 0066 02       		.byte	0x2
 1460 0067 05       		.byte	0x5
 1461 0068 7A470000 		.4byte	.LASF7
 1462 006c 04       		.uleb128 0x4
 1463 006d 62180000 		.4byte	.LASF8
 1464 0071 03       		.byte	0x3
 1465 0072 2B       		.byte	0x2b
 1466 0073 77000000 		.4byte	0x77
 1467 0077 03       		.uleb128 0x3
 1468 0078 02       		.byte	0x2
 1469 0079 07       		.byte	0x7
 1470 007a 080E0000 		.4byte	.LASF9
 1471 007e 04       		.uleb128 0x4
 1472 007f 72530000 		.4byte	.LASF10
 1473 0083 03       		.byte	0x3
 1474 0084 3F       		.byte	0x3f
 1475 0085 89000000 		.4byte	0x89
 1476 0089 03       		.uleb128 0x3
 1477 008a 04       		.byte	0x4
 1478 008b 05       		.byte	0x5
 1479 008c 180C0000 		.4byte	.LASF11
 1480 0090 04       		.uleb128 0x4
 1481 0091 CB1D0000 		.4byte	.LASF12
 1482 0095 03       		.byte	0x3
 1483 0096 41       		.byte	0x41
 1484 0097 9B000000 		.4byte	0x9b
 1485 009b 03       		.uleb128 0x3
 1486 009c 04       		.byte	0x4
 1487 009d 07       		.byte	0x7
 1488 009e 68220000 		.4byte	.LASF13
 1489 00a2 03       		.uleb128 0x3
 1490 00a3 08       		.byte	0x8
 1491 00a4 07       		.byte	0x7
 1492 00a5 F94D0000 		.4byte	.LASF14
 1493 00a9 03       		.uleb128 0x3
 1494 00aa 04       		.byte	0x4
 1495 00ab 07       		.byte	0x7
 1496 00ac C8000000 		.4byte	.LASF15
 1497 00b0 05       		.uleb128 0x5
 1498 00b1 04       		.byte	0x4
 1499 00b2 03       		.uleb128 0x3
 1500 00b3 01       		.byte	0x1
 1501 00b4 08       		.byte	0x8
ARM GAS  C:\Users\hkmnt\AppData\Local\Temp\ccBdSSuH.s 			page 62


 1502 00b5 9E160000 		.4byte	.LASF16
 1503 00b9 04       		.uleb128 0x4
 1504 00ba 17110000 		.4byte	.LASF17
 1505 00be 04       		.byte	0x4
 1506 00bf 18       		.byte	0x18
 1507 00c0 48000000 		.4byte	0x48
 1508 00c4 04       		.uleb128 0x4
 1509 00c5 89480000 		.4byte	.LASF18
 1510 00c9 04       		.byte	0x4
 1511 00ca 20       		.byte	0x20
 1512 00cb 5A000000 		.4byte	0x5a
 1513 00cf 04       		.uleb128 0x4
 1514 00d0 E43D0000 		.4byte	.LASF19
 1515 00d4 04       		.byte	0x4
 1516 00d5 24       		.byte	0x24
 1517 00d6 6C000000 		.4byte	0x6c
 1518 00da 04       		.uleb128 0x4
 1519 00db 10410000 		.4byte	.LASF20
 1520 00df 04       		.byte	0x4
 1521 00e0 2C       		.byte	0x2c
 1522 00e1 7E000000 		.4byte	0x7e
 1523 00e5 04       		.uleb128 0x4
 1524 00e6 7A4E0000 		.4byte	.LASF21
 1525 00ea 04       		.byte	0x4
 1526 00eb 30       		.byte	0x30
 1527 00ec 90000000 		.4byte	0x90
 1528 00f0 06       		.uleb128 0x6
 1529 00f1 E5000000 		.4byte	0xe5
 1530 00f5 07       		.uleb128 0x7
 1531 00f6 F0000000 		.4byte	0xf0
 1532 00fa 08       		.uleb128 0x8
 1533 00fb F0000000 		.4byte	0xf0
 1534 00ff 0A010000 		.4byte	0x10a
 1535 0103 09       		.uleb128 0x9
 1536 0104 A9000000 		.4byte	0xa9
 1537 0108 0F       		.byte	0xf
 1538 0109 00       		.byte	0
 1539 010a 08       		.uleb128 0x8
 1540 010b F5000000 		.4byte	0xf5
 1541 010f 1A010000 		.4byte	0x11a
 1542 0113 09       		.uleb128 0x9
 1543 0114 A9000000 		.4byte	0xa9
 1544 0118 06       		.byte	0x6
 1545 0119 00       		.byte	0
 1546 011a 08       		.uleb128 0x8
 1547 011b F5000000 		.4byte	0xf5
 1548 011f 2A010000 		.4byte	0x12a
 1549 0123 09       		.uleb128 0x9
 1550 0124 A9000000 		.4byte	0xa9
 1551 0128 07       		.byte	0x7
 1552 0129 00       		.byte	0
 1553 012a 08       		.uleb128 0x8
 1554 012b F5000000 		.4byte	0xf5
 1555 012f 3A010000 		.4byte	0x13a
 1556 0133 09       		.uleb128 0x9
 1557 0134 A9000000 		.4byte	0xa9
 1558 0138 01       		.byte	0x1
ARM GAS  C:\Users\hkmnt\AppData\Local\Temp\ccBdSSuH.s 			page 63


 1559 0139 00       		.byte	0
 1560 013a 0A       		.uleb128 0xa
 1561 013b 0080     		.2byte	0x8000
 1562 013d 05       		.byte	0x5
 1563 013e 21       		.byte	0x21
 1564 013f 20070000 		.4byte	0x720
 1565 0143 0B       		.uleb128 0xb
 1566 0144 861E0000 		.4byte	.LASF22
 1567 0148 05       		.byte	0x5
 1568 0149 22       		.byte	0x22
 1569 014a 25070000 		.4byte	0x725
 1570 014e 00       		.byte	0
 1571 014f 0B       		.uleb128 0xb
 1572 0150 49330000 		.4byte	.LASF23
 1573 0154 05       		.byte	0x5
 1574 0155 23       		.byte	0x23
 1575 0156 20070000 		.4byte	0x720
 1576 015a 01       		.byte	0x1
 1577 015b 0B       		.uleb128 0xb
 1578 015c 7B200000 		.4byte	.LASF24
 1579 0160 05       		.byte	0x5
 1580 0161 24       		.byte	0x24
 1581 0162 2A070000 		.4byte	0x72a
 1582 0166 02       		.byte	0x2
 1583 0167 0B       		.uleb128 0xb
 1584 0168 02130000 		.4byte	.LASF25
 1585 016c 05       		.byte	0x5
 1586 016d 25       		.byte	0x25
 1587 016e 34070000 		.4byte	0x734
 1588 0172 04       		.byte	0x4
 1589 0173 0B       		.uleb128 0xb
 1590 0174 451F0000 		.4byte	.LASF26
 1591 0178 05       		.byte	0x5
 1592 0179 26       		.byte	0x26
 1593 017a 2A070000 		.4byte	0x72a
 1594 017e 0C       		.byte	0xc
 1595 017f 0B       		.uleb128 0xb
 1596 0180 11190000 		.4byte	.LASF27
 1597 0184 05       		.byte	0x5
 1598 0185 27       		.byte	0x27
 1599 0186 53070000 		.4byte	0x753
 1600 018a 0E       		.byte	0xe
 1601 018b 0B       		.uleb128 0xb
 1602 018c C5450000 		.4byte	.LASF28
 1603 0190 05       		.byte	0x5
 1604 0191 28       		.byte	0x28
 1605 0192 F0000000 		.4byte	0xf0
 1606 0196 14       		.byte	0x14
 1607 0197 0B       		.uleb128 0xb
 1608 0198 27130000 		.4byte	.LASF29
 1609 019c 05       		.byte	0x5
 1610 019d 29       		.byte	0x29
 1611 019e 6E070000 		.4byte	0x76e
 1612 01a2 18       		.byte	0x18
 1613 01a3 0C       		.uleb128 0xc
 1614 01a4 E2070000 		.4byte	.LASF30
 1615 01a8 05       		.byte	0x5
ARM GAS  C:\Users\hkmnt\AppData\Local\Temp\ccBdSSuH.s 			page 64


 1616 01a9 2A       		.byte	0x2a
 1617 01aa 83070000 		.4byte	0x783
 1618 01ae 0006     		.2byte	0x600
 1619 01b0 0C       		.uleb128 0xc
 1620 01b1 4C250000 		.4byte	.LASF31
 1621 01b5 05       		.byte	0x5
 1622 01b6 2B       		.byte	0x2b
 1623 01b7 20070000 		.4byte	0x720
 1624 01bb 0306     		.2byte	0x603
 1625 01bd 0C       		.uleb128 0xc
 1626 01be 5A550000 		.4byte	.LASF32
 1627 01c2 05       		.byte	0x5
 1628 01c3 2C       		.byte	0x2c
 1629 01c4 20070000 		.4byte	0x720
 1630 01c8 0406     		.2byte	0x604
 1631 01ca 0C       		.uleb128 0xc
 1632 01cb 60550000 		.4byte	.LASF33
 1633 01cf 05       		.byte	0x5
 1634 01d0 2D       		.byte	0x2d
 1635 01d1 20070000 		.4byte	0x720
 1636 01d5 0506     		.2byte	0x605
 1637 01d7 0C       		.uleb128 0xc
 1638 01d8 D54E0000 		.4byte	.LASF34
 1639 01dc 05       		.byte	0x5
 1640 01dd 2E       		.byte	0x2e
 1641 01de 20070000 		.4byte	0x720
 1642 01e2 0606     		.2byte	0x606
 1643 01e4 0C       		.uleb128 0xc
 1644 01e5 632C0000 		.4byte	.LASF35
 1645 01e9 05       		.byte	0x5
 1646 01ea 2F       		.byte	0x2f
 1647 01eb 20070000 		.4byte	0x720
 1648 01ef 0706     		.2byte	0x607
 1649 01f1 0C       		.uleb128 0xc
 1650 01f2 262C0000 		.4byte	.LASF36
 1651 01f6 05       		.byte	0x5
 1652 01f7 30       		.byte	0x30
 1653 01f8 20070000 		.4byte	0x720
 1654 01fc 0806     		.2byte	0x608
 1655 01fe 0C       		.uleb128 0xc
 1656 01ff 660D0000 		.4byte	.LASF37
 1657 0203 05       		.byte	0x5
 1658 0204 31       		.byte	0x31
 1659 0205 20070000 		.4byte	0x720
 1660 0209 0906     		.2byte	0x609
 1661 020b 0C       		.uleb128 0xc
 1662 020c E21E0000 		.4byte	.LASF38
 1663 0210 05       		.byte	0x5
 1664 0211 32       		.byte	0x32
 1665 0212 20070000 		.4byte	0x720
 1666 0216 0A06     		.2byte	0x60a
 1667 0218 0C       		.uleb128 0xc
 1668 0219 31130000 		.4byte	.LASF39
 1669 021d 05       		.byte	0x5
 1670 021e 33       		.byte	0x33
 1671 021f 9D070000 		.4byte	0x79d
 1672 0223 0B06     		.2byte	0x60b
ARM GAS  C:\Users\hkmnt\AppData\Local\Temp\ccBdSSuH.s 			page 65


 1673 0225 0C       		.uleb128 0xc
 1674 0226 27480000 		.4byte	.LASF40
 1675 022a 05       		.byte	0x5
 1676 022b 34       		.byte	0x34
 1677 022c 2A070000 		.4byte	0x72a
 1678 0230 4806     		.2byte	0x648
 1679 0232 0C       		.uleb128 0xc
 1680 0233 CD1C0000 		.4byte	.LASF41
 1681 0237 05       		.byte	0x5
 1682 0238 35       		.byte	0x35
 1683 0239 2A070000 		.4byte	0x72a
 1684 023d 4A06     		.2byte	0x64a
 1685 023f 0C       		.uleb128 0xc
 1686 0240 3B130000 		.4byte	.LASF42
 1687 0244 05       		.byte	0x5
 1688 0245 36       		.byte	0x36
 1689 0246 A7070000 		.4byte	0x7a7
 1690 024a 4C06     		.2byte	0x64c
 1691 024c 0C       		.uleb128 0xc
 1692 024d F5410000 		.4byte	.LASF43
 1693 0251 05       		.byte	0x5
 1694 0252 37       		.byte	0x37
 1695 0253 F0000000 		.4byte	0xf0
 1696 0257 6C06     		.2byte	0x66c
 1697 0259 0C       		.uleb128 0xc
 1698 025a 45130000 		.4byte	.LASF44
 1699 025e 05       		.byte	0x5
 1700 025f 38       		.byte	0x38
 1701 0260 C1070000 		.4byte	0x7c1
 1702 0264 7006     		.2byte	0x670
 1703 0266 0C       		.uleb128 0xc
 1704 0267 00220000 		.4byte	.LASF45
 1705 026b 05       		.byte	0x5
 1706 026c 39       		.byte	0x39
 1707 026d 20070000 		.4byte	0x720
 1708 0271 4007     		.2byte	0x740
 1709 0273 0C       		.uleb128 0xc
 1710 0274 C8060000 		.4byte	.LASF46
 1711 0278 05       		.byte	0x5
 1712 0279 3A       		.byte	0x3a
 1713 027a 20070000 		.4byte	0x720
 1714 027e 4107     		.2byte	0x741
 1715 0280 0C       		.uleb128 0xc
 1716 0281 4F130000 		.4byte	.LASF47
 1717 0285 05       		.byte	0x5
 1718 0286 3B       		.byte	0x3b
 1719 0287 DB070000 		.4byte	0x7db
 1720 028b 4207     		.2byte	0x742
 1721 028d 0C       		.uleb128 0xc
 1722 028e A31B0000 		.4byte	.LASF48
 1723 0292 05       		.byte	0x5
 1724 0293 3C       		.byte	0x3c
 1725 0294 F0070000 		.4byte	0x7f0
 1726 0298 0008     		.2byte	0x800
 1727 029a 0C       		.uleb128 0xc
 1728 029b 1A2A0000 		.4byte	.LASF49
 1729 029f 05       		.byte	0x5
ARM GAS  C:\Users\hkmnt\AppData\Local\Temp\ccBdSSuH.s 			page 66


 1730 02a0 3D       		.byte	0x3d
 1731 02a1 F5070000 		.4byte	0x7f5
 1732 02a5 000A     		.2byte	0xa00
 1733 02a7 0C       		.uleb128 0xc
 1734 02a8 292A0000 		.4byte	.LASF50
 1735 02ac 05       		.byte	0x5
 1736 02ad 3E       		.byte	0x3e
 1737 02ae FA070000 		.4byte	0x7fa
 1738 02b2 000C     		.2byte	0xc00
 1739 02b4 0C       		.uleb128 0xc
 1740 02b5 382A0000 		.4byte	.LASF51
 1741 02b9 05       		.byte	0x5
 1742 02ba 3F       		.byte	0x3f
 1743 02bb FF070000 		.4byte	0x7ff
 1744 02bf 000E     		.2byte	0xe00
 1745 02c1 0C       		.uleb128 0xc
 1746 02c2 59130000 		.4byte	.LASF52
 1747 02c6 05       		.byte	0x5
 1748 02c7 40       		.byte	0x40
 1749 02c8 1A080000 		.4byte	0x81a
 1750 02cc 0010     		.2byte	0x1000
 1751 02ce 0C       		.uleb128 0xc
 1752 02cf DF0A0000 		.4byte	.LASF53
 1753 02d3 05       		.byte	0x5
 1754 02d4 41       		.byte	0x41
 1755 02d5 2F080000 		.4byte	0x82f
 1756 02d9 B814     		.2byte	0x14b8
 1757 02db 0C       		.uleb128 0xc
 1758 02dc 631C0000 		.4byte	.LASF54
 1759 02e0 05       		.byte	0x5
 1760 02e1 42       		.byte	0x42
 1761 02e2 34080000 		.4byte	0x834
 1762 02e6 C814     		.2byte	0x14c8
 1763 02e8 0C       		.uleb128 0xc
 1764 02e9 B3480000 		.4byte	.LASF55
 1765 02ed 05       		.byte	0x5
 1766 02ee 43       		.byte	0x43
 1767 02ef 39080000 		.4byte	0x839
 1768 02f3 D814     		.2byte	0x14d8
 1769 02f5 0C       		.uleb128 0xc
 1770 02f6 7B330000 		.4byte	.LASF56
 1771 02fa 05       		.byte	0x5
 1772 02fb 44       		.byte	0x44
 1773 02fc 3E080000 		.4byte	0x83e
 1774 0300 1815     		.2byte	0x1518
 1775 0302 0C       		.uleb128 0xc
 1776 0303 7C490000 		.4byte	.LASF57
 1777 0307 05       		.byte	0x5
 1778 0308 45       		.byte	0x45
 1779 0309 43080000 		.4byte	0x843
 1780 030d 5815     		.2byte	0x1558
 1781 030f 0C       		.uleb128 0xc
 1782 0310 180A0000 		.4byte	.LASF58
 1783 0314 05       		.byte	0x5
 1784 0315 46       		.byte	0x46
 1785 0316 48080000 		.4byte	0x848
 1786 031a 9815     		.2byte	0x1598
ARM GAS  C:\Users\hkmnt\AppData\Local\Temp\ccBdSSuH.s 			page 67


 1787 031c 0C       		.uleb128 0xc
 1788 031d 53320000 		.4byte	.LASF59
 1789 0321 05       		.byte	0x5
 1790 0322 47       		.byte	0x47
 1791 0323 4D080000 		.4byte	0x84d
 1792 0327 D815     		.2byte	0x15d8
 1793 0329 0C       		.uleb128 0xc
 1794 032a 63130000 		.4byte	.LASF60
 1795 032e 05       		.byte	0x5
 1796 032f 48       		.byte	0x48
 1797 0330 67080000 		.4byte	0x867
 1798 0334 1816     		.2byte	0x1618
 1799 0336 0C       		.uleb128 0xc
 1800 0337 622E0000 		.4byte	.LASF61
 1801 033b 05       		.byte	0x5
 1802 033c 49       		.byte	0x49
 1803 033d 2A070000 		.4byte	0x72a
 1804 0341 0018     		.2byte	0x1800
 1805 0343 0C       		.uleb128 0xc
 1806 0344 DC3E0000 		.4byte	.LASF62
 1807 0348 05       		.byte	0x5
 1808 0349 4A       		.byte	0x4a
 1809 034a 49070000 		.4byte	0x749
 1810 034e 0218     		.2byte	0x1802
 1811 0350 0C       		.uleb128 0xc
 1812 0351 85020000 		.4byte	.LASF63
 1813 0355 05       		.byte	0x5
 1814 0356 4B       		.byte	0x4b
 1815 0357 F0000000 		.4byte	0xf0
 1816 035b 0418     		.2byte	0x1804
 1817 035d 0C       		.uleb128 0xc
 1818 035e 51000000 		.4byte	.LASF64
 1819 0362 05       		.byte	0x5
 1820 0363 4C       		.byte	0x4c
 1821 0364 F0000000 		.4byte	0xf0
 1822 0368 0818     		.2byte	0x1808
 1823 036a 0C       		.uleb128 0xc
 1824 036b B6020000 		.4byte	.LASF65
 1825 036f 05       		.byte	0x5
 1826 0370 4D       		.byte	0x4d
 1827 0371 F0000000 		.4byte	0xf0
 1828 0375 0C18     		.2byte	0x180c
 1829 0377 0C       		.uleb128 0xc
 1830 0378 504F0000 		.4byte	.LASF66
 1831 037c 05       		.byte	0x5
 1832 037d 4E       		.byte	0x4e
 1833 037e F0000000 		.4byte	0xf0
 1834 0382 1018     		.2byte	0x1810
 1835 0384 0C       		.uleb128 0xc
 1836 0385 E73E0000 		.4byte	.LASF67
 1837 0389 05       		.byte	0x5
 1838 038a 4F       		.byte	0x4f
 1839 038b 49070000 		.4byte	0x749
 1840 038f 1418     		.2byte	0x1814
 1841 0391 0C       		.uleb128 0xc
 1842 0392 1A4E0000 		.4byte	.LASF68
 1843 0396 05       		.byte	0x5
ARM GAS  C:\Users\hkmnt\AppData\Local\Temp\ccBdSSuH.s 			page 68


 1844 0397 50       		.byte	0x50
 1845 0398 2A070000 		.4byte	0x72a
 1846 039c 1618     		.2byte	0x1816
 1847 039e 0C       		.uleb128 0xc
 1848 039f 94070000 		.4byte	.LASF69
 1849 03a3 05       		.byte	0x5
 1850 03a4 51       		.byte	0x51
 1851 03a5 F0000000 		.4byte	0xf0
 1852 03a9 1818     		.2byte	0x1818
 1853 03ab 0C       		.uleb128 0xc
 1854 03ac 33340000 		.4byte	.LASF70
 1855 03b0 05       		.byte	0x5
 1856 03b1 52       		.byte	0x52
 1857 03b2 F0000000 		.4byte	0xf0
 1858 03b6 1C18     		.2byte	0x181c
 1859 03b8 0C       		.uleb128 0xc
 1860 03b9 14120000 		.4byte	.LASF71
 1861 03bd 05       		.byte	0x5
 1862 03be 53       		.byte	0x53
 1863 03bf F0000000 		.4byte	0xf0
 1864 03c3 2018     		.2byte	0x1820
 1865 03c5 0C       		.uleb128 0xc
 1866 03c6 603F0000 		.4byte	.LASF72
 1867 03ca 05       		.byte	0x5
 1868 03cb 54       		.byte	0x54
 1869 03cc F0000000 		.4byte	0xf0
 1870 03d0 2418     		.2byte	0x1824
 1871 03d2 0C       		.uleb128 0xc
 1872 03d3 F23E0000 		.4byte	.LASF73
 1873 03d7 05       		.byte	0x5
 1874 03d8 55       		.byte	0x55
 1875 03d9 71080000 		.4byte	0x871
 1876 03dd 2818     		.2byte	0x1828
 1877 03df 0C       		.uleb128 0xc
 1878 03e0 D0180000 		.4byte	.LASF74
 1879 03e4 05       		.byte	0x5
 1880 03e5 56       		.byte	0x56
 1881 03e6 F0000000 		.4byte	0xf0
 1882 03ea 4418     		.2byte	0x1844
 1883 03ec 0C       		.uleb128 0xc
 1884 03ed ED3D0000 		.4byte	.LASF75
 1885 03f1 05       		.byte	0x5
 1886 03f2 57       		.byte	0x57
 1887 03f3 F0000000 		.4byte	0xf0
 1888 03f7 4818     		.2byte	0x1848
 1889 03f9 0C       		.uleb128 0xc
 1890 03fa 754B0000 		.4byte	.LASF76
 1891 03fe 05       		.byte	0x5
 1892 03ff 58       		.byte	0x58
 1893 0400 F0000000 		.4byte	0xf0
 1894 0404 4C18     		.2byte	0x184c
 1895 0406 0C       		.uleb128 0xc
 1896 0407 7A060000 		.4byte	.LASF77
 1897 040b 05       		.byte	0x5
 1898 040c 59       		.byte	0x59
 1899 040d F0000000 		.4byte	0xf0
 1900 0411 5018     		.2byte	0x1850
ARM GAS  C:\Users\hkmnt\AppData\Local\Temp\ccBdSSuH.s 			page 69


 1901 0413 0C       		.uleb128 0xc
 1902 0414 FD3E0000 		.4byte	.LASF78
 1903 0418 05       		.byte	0x5
 1904 0419 5A       		.byte	0x5a
 1905 041a 8C080000 		.4byte	0x88c
 1906 041e 5418     		.2byte	0x1854
 1907 0420 0C       		.uleb128 0xc
 1908 0421 2E100000 		.4byte	.LASF79
 1909 0425 05       		.byte	0x5
 1910 0426 5B       		.byte	0x5b
 1911 0427 F0000000 		.4byte	0xf0
 1912 042b 0020     		.2byte	0x2000
 1913 042d 0C       		.uleb128 0xc
 1914 042e 17400000 		.4byte	.LASF80
 1915 0432 05       		.byte	0x5
 1916 0433 5C       		.byte	0x5c
 1917 0434 F0000000 		.4byte	0xf0
 1918 0438 0420     		.2byte	0x2004
 1919 043a 0C       		.uleb128 0xc
 1920 043b 98390000 		.4byte	.LASF81
 1921 043f 05       		.byte	0x5
 1922 0440 5D       		.byte	0x5d
 1923 0441 F0000000 		.4byte	0xf0
 1924 0445 0820     		.2byte	0x2008
 1925 0447 0C       		.uleb128 0xc
 1926 0448 EB2D0000 		.4byte	.LASF82
 1927 044c 05       		.byte	0x5
 1928 044d 5E       		.byte	0x5e
 1929 044e F0000000 		.4byte	0xf0
 1930 0452 0C20     		.2byte	0x200c
 1931 0454 0C       		.uleb128 0xc
 1932 0455 DB340000 		.4byte	.LASF83
 1933 0459 05       		.byte	0x5
 1934 045a 5F       		.byte	0x5f
 1935 045b F0000000 		.4byte	0xf0
 1936 045f 1020     		.2byte	0x2010
 1937 0461 0C       		.uleb128 0xc
 1938 0462 DC350000 		.4byte	.LASF84
 1939 0466 05       		.byte	0x5
 1940 0467 60       		.byte	0x60
 1941 0468 F0000000 		.4byte	0xf0
 1942 046c 1420     		.2byte	0x2014
 1943 046e 0C       		.uleb128 0xc
 1944 046f 083F0000 		.4byte	.LASF85
 1945 0473 05       		.byte	0x5
 1946 0474 61       		.byte	0x61
 1947 0475 A6080000 		.4byte	0x8a6
 1948 0479 1820     		.2byte	0x2018
 1949 047b 0C       		.uleb128 0xc
 1950 047c 6A240000 		.4byte	.LASF86
 1951 0480 05       		.byte	0x5
 1952 0481 62       		.byte	0x62
 1953 0482 BC080000 		.4byte	0x8bc
 1954 0486 D820     		.2byte	0x20d8
 1955 0488 0C       		.uleb128 0xc
 1956 0489 93160000 		.4byte	.LASF87
 1957 048d 05       		.byte	0x5
ARM GAS  C:\Users\hkmnt\AppData\Local\Temp\ccBdSSuH.s 			page 70


 1958 048e 63       		.byte	0x63
 1959 048f D2080000 		.4byte	0x8d2
 1960 0493 005A     		.2byte	0x5a00
 1961 0495 0C       		.uleb128 0xc
 1962 0496 261E0000 		.4byte	.LASF88
 1963 049a 05       		.byte	0x5
 1964 049b 64       		.byte	0x64
 1965 049c E8080000 		.4byte	0x8e8
 1966 04a0 0066     		.2byte	0x6600
 1967 04a2 0C       		.uleb128 0xc
 1968 04a3 133F0000 		.4byte	.LASF89
 1969 04a7 05       		.byte	0x5
 1970 04a8 65       		.byte	0x65
 1971 04a9 03090000 		.4byte	0x903
 1972 04ad 006C     		.2byte	0x6c00
 1973 04af 0C       		.uleb128 0xc
 1974 04b0 A3410000 		.4byte	.LASF90
 1975 04b4 05       		.byte	0x5
 1976 04b5 66       		.byte	0x66
 1977 04b6 F0000000 		.4byte	0xf0
 1978 04ba 0078     		.2byte	0x7800
 1979 04bc 0C       		.uleb128 0xc
 1980 04bd FF470000 		.4byte	.LASF91
 1981 04c1 05       		.byte	0x5
 1982 04c2 68       		.byte	0x68
 1983 04c3 F0000000 		.4byte	0xf0
 1984 04c7 0478     		.2byte	0x7804
 1985 04c9 0C       		.uleb128 0xc
 1986 04ca D1540000 		.4byte	.LASF92
 1987 04ce 05       		.byte	0x5
 1988 04cf 69       		.byte	0x69
 1989 04d0 F0000000 		.4byte	0xf0
 1990 04d4 0878     		.2byte	0x7808
 1991 04d6 0C       		.uleb128 0xc
 1992 04d7 29400000 		.4byte	.LASF93
 1993 04db 05       		.byte	0x5
 1994 04dc 6B       		.byte	0x6b
 1995 04dd F0000000 		.4byte	0xf0
 1996 04e1 0C78     		.2byte	0x780c
 1997 04e3 0C       		.uleb128 0xc
 1998 04e4 B1040000 		.4byte	.LASF94
 1999 04e8 05       		.byte	0x5
 2000 04e9 6C       		.byte	0x6c
 2001 04ea F0000000 		.4byte	0xf0
 2002 04ee 1078     		.2byte	0x7810
 2003 04f0 0C       		.uleb128 0xc
 2004 04f1 D9310000 		.4byte	.LASF95
 2005 04f5 05       		.byte	0x5
 2006 04f6 6D       		.byte	0x6d
 2007 04f7 F0000000 		.4byte	0xf0
 2008 04fb 1478     		.2byte	0x7814
 2009 04fd 0C       		.uleb128 0xc
 2010 04fe 74160000 		.4byte	.LASF96
 2011 0502 05       		.byte	0x5
 2012 0503 6E       		.byte	0x6e
 2013 0504 F0000000 		.4byte	0xf0
 2014 0508 1878     		.2byte	0x7818
ARM GAS  C:\Users\hkmnt\AppData\Local\Temp\ccBdSSuH.s 			page 71


 2015 050a 0C       		.uleb128 0xc
 2016 050b 9B530000 		.4byte	.LASF97
 2017 050f 05       		.byte	0x5
 2018 0510 6F       		.byte	0x6f
 2019 0511 F0000000 		.4byte	0xf0
 2020 0515 1C78     		.2byte	0x781c
 2021 0517 0C       		.uleb128 0xc
 2022 0518 E4520000 		.4byte	.LASF98
 2023 051c 05       		.byte	0x5
 2024 051d 70       		.byte	0x70
 2025 051e 1D090000 		.4byte	0x91d
 2026 0522 2078     		.2byte	0x7820
 2027 0524 0C       		.uleb128 0xc
 2028 0525 CE0F0000 		.4byte	.LASF99
 2029 0529 05       		.byte	0x5
 2030 052a 71       		.byte	0x71
 2031 052b F0000000 		.4byte	0xf0
 2032 052f FC79     		.2byte	0x79fc
 2033 0531 0C       		.uleb128 0xc
 2034 0532 4C480000 		.4byte	.LASF100
 2035 0536 05       		.byte	0x5
 2036 0537 72       		.byte	0x72
 2037 0538 F0000000 		.4byte	0xf0
 2038 053c 007A     		.2byte	0x7a00
 2039 053e 0C       		.uleb128 0xc
 2040 053f B9490000 		.4byte	.LASF101
 2041 0543 05       		.byte	0x5
 2042 0544 74       		.byte	0x74
 2043 0545 F0000000 		.4byte	0xf0
 2044 0549 047A     		.2byte	0x7a04
 2045 054b 0C       		.uleb128 0xc
 2046 054c 71420000 		.4byte	.LASF102
 2047 0550 05       		.byte	0x5
 2048 0551 75       		.byte	0x75
 2049 0552 F0000000 		.4byte	0xf0
 2050 0556 087A     		.2byte	0x7a08
 2051 0558 0C       		.uleb128 0xc
 2052 0559 5A110000 		.4byte	.LASF103
 2053 055d 05       		.byte	0x5
 2054 055e 77       		.byte	0x77
 2055 055f F0000000 		.4byte	0xf0
 2056 0563 0C7A     		.2byte	0x7a0c
 2057 0565 0C       		.uleb128 0xc
 2058 0566 E90F0000 		.4byte	.LASF104
 2059 056a 05       		.byte	0x5
 2060 056b 78       		.byte	0x78
 2061 056c F0000000 		.4byte	0xf0
 2062 0570 107A     		.2byte	0x7a10
 2063 0572 0C       		.uleb128 0xc
 2064 0573 EB200000 		.4byte	.LASF105
 2065 0577 05       		.byte	0x5
 2066 0578 79       		.byte	0x79
 2067 0579 F0000000 		.4byte	0xf0
 2068 057d 147A     		.2byte	0x7a14
 2069 057f 0C       		.uleb128 0xc
 2070 0580 F8140000 		.4byte	.LASF106
 2071 0584 05       		.byte	0x5
ARM GAS  C:\Users\hkmnt\AppData\Local\Temp\ccBdSSuH.s 			page 72


 2072 0585 7B       		.byte	0x7b
 2073 0586 F0000000 		.4byte	0xf0
 2074 058a 187A     		.2byte	0x7a18
 2075 058c 0C       		.uleb128 0xc
 2076 058d AB1E0000 		.4byte	.LASF107
 2077 0591 05       		.byte	0x5
 2078 0592 7C       		.byte	0x7c
 2079 0593 F0000000 		.4byte	0xf0
 2080 0597 1C7A     		.2byte	0x7a1c
 2081 0599 0C       		.uleb128 0xc
 2082 059a 3F3F0000 		.4byte	.LASF108
 2083 059e 05       		.byte	0x5
 2084 059f 7D       		.byte	0x7d
 2085 05a0 27090000 		.4byte	0x927
 2086 05a4 207A     		.2byte	0x7a20
 2087 05a6 0C       		.uleb128 0xc
 2088 05a7 6A0A0000 		.4byte	.LASF109
 2089 05ab 05       		.byte	0x5
 2090 05ac 7E       		.byte	0x7e
 2091 05ad F0000000 		.4byte	0xf0
 2092 05b1 FC7B     		.2byte	0x7bfc
 2093 05b3 0C       		.uleb128 0xc
 2094 05b4 440D0000 		.4byte	.LASF110
 2095 05b8 05       		.byte	0x5
 2096 05b9 80       		.byte	0x80
 2097 05ba F0000000 		.4byte	0xf0
 2098 05be 007C     		.2byte	0x7c00
 2099 05c0 0C       		.uleb128 0xc
 2100 05c1 13350000 		.4byte	.LASF111
 2101 05c5 05       		.byte	0x5
 2102 05c6 82       		.byte	0x82
 2103 05c7 F0000000 		.4byte	0xf0
 2104 05cb 047C     		.2byte	0x7c04
 2105 05cd 0C       		.uleb128 0xc
 2106 05ce 48060000 		.4byte	.LASF112
 2107 05d2 05       		.byte	0x5
 2108 05d3 83       		.byte	0x83
 2109 05d4 F0000000 		.4byte	0xf0
 2110 05d8 087C     		.2byte	0x7c08
 2111 05da 0C       		.uleb128 0xc
 2112 05db D3500000 		.4byte	.LASF113
 2113 05df 05       		.byte	0x5
 2114 05e0 84       		.byte	0x84
 2115 05e1 F0000000 		.4byte	0xf0
 2116 05e5 0C7C     		.2byte	0x7c0c
 2117 05e7 0C       		.uleb128 0xc
 2118 05e8 4A340000 		.4byte	.LASF114
 2119 05ec 05       		.byte	0x5
 2120 05ed 86       		.byte	0x86
 2121 05ee F0000000 		.4byte	0xf0
 2122 05f2 107C     		.2byte	0x7c10
 2123 05f4 0C       		.uleb128 0xc
 2124 05f5 0C130000 		.4byte	.LASF115
 2125 05f9 05       		.byte	0x5
 2126 05fa 87       		.byte	0x87
 2127 05fb F0000000 		.4byte	0xf0
 2128 05ff 147C     		.2byte	0x7c14
ARM GAS  C:\Users\hkmnt\AppData\Local\Temp\ccBdSSuH.s 			page 73


 2129 0601 0C       		.uleb128 0xc
 2130 0602 2B2F0000 		.4byte	.LASF116
 2131 0606 05       		.byte	0x5
 2132 0607 89       		.byte	0x89
 2133 0608 F0000000 		.4byte	0xf0
 2134 060c 187C     		.2byte	0x7c18
 2135 060e 0C       		.uleb128 0xc
 2136 060f 40490000 		.4byte	.LASF117
 2137 0613 05       		.byte	0x5
 2138 0614 8A       		.byte	0x8a
 2139 0615 F0000000 		.4byte	0xf0
 2140 0619 1C7C     		.2byte	0x7c1c
 2141 061b 0C       		.uleb128 0xc
 2142 061c 37110000 		.4byte	.LASF118
 2143 0620 05       		.byte	0x5
 2144 0621 8C       		.byte	0x8c
 2145 0622 F0000000 		.4byte	0xf0
 2146 0626 207C     		.2byte	0x7c20
 2147 0628 0C       		.uleb128 0xc
 2148 0629 ED290000 		.4byte	.LASF119
 2149 062d 05       		.byte	0x5
 2150 062e 8F       		.byte	0x8f
 2151 062f F0000000 		.4byte	0xf0
 2152 0633 247C     		.2byte	0x7c24
 2153 0635 0C       		.uleb128 0xc
 2154 0636 4A3F0000 		.4byte	.LASF120
 2155 063a 05       		.byte	0x5
 2156 063b 91       		.byte	0x91
 2157 063c 41090000 		.4byte	0x941
 2158 0640 287C     		.2byte	0x7c28
 2159 0642 0C       		.uleb128 0xc
 2160 0643 B4410000 		.4byte	.LASF121
 2161 0647 05       		.byte	0x5
 2162 0648 92       		.byte	0x92
 2163 0649 F0000000 		.4byte	0xf0
 2164 064d F47D     		.2byte	0x7df4
 2165 064f 0C       		.uleb128 0xc
 2166 0650 83380000 		.4byte	.LASF122
 2167 0654 05       		.byte	0x5
 2168 0655 93       		.byte	0x93
 2169 0656 F0000000 		.4byte	0xf0
 2170 065a F87D     		.2byte	0x7df8
 2171 065c 0C       		.uleb128 0xc
 2172 065d E2000000 		.4byte	.LASF123
 2173 0661 05       		.byte	0x5
 2174 0662 94       		.byte	0x94
 2175 0663 F0000000 		.4byte	0xf0
 2176 0667 FC7D     		.2byte	0x7dfc
 2177 0669 0C       		.uleb128 0xc
 2178 066a AA140000 		.4byte	.LASF124
 2179 066e 05       		.byte	0x5
 2180 066f 95       		.byte	0x95
 2181 0670 F0000000 		.4byte	0xf0
 2182 0674 007E     		.2byte	0x7e00
 2183 0676 0C       		.uleb128 0xc
 2184 0677 F2350000 		.4byte	.LASF125
 2185 067b 05       		.byte	0x5
ARM GAS  C:\Users\hkmnt\AppData\Local\Temp\ccBdSSuH.s 			page 74


 2186 067c 97       		.byte	0x97
 2187 067d F0000000 		.4byte	0xf0
 2188 0681 047E     		.2byte	0x7e04
 2189 0683 0C       		.uleb128 0xc
 2190 0684 A74D0000 		.4byte	.LASF126
 2191 0688 05       		.byte	0x5
 2192 0689 98       		.byte	0x98
 2193 068a F0000000 		.4byte	0xf0
 2194 068e 087E     		.2byte	0x7e08
 2195 0690 0C       		.uleb128 0xc
 2196 0691 F93C0000 		.4byte	.LASF127
 2197 0695 05       		.byte	0x5
 2198 0696 99       		.byte	0x99
 2199 0697 F0000000 		.4byte	0xf0
 2200 069b 0C7E     		.2byte	0x7e0c
 2201 069d 0C       		.uleb128 0xc
 2202 069e 443E0000 		.4byte	.LASF128
 2203 06a2 05       		.byte	0x5
 2204 06a3 9B       		.byte	0x9b
 2205 06a4 F0000000 		.4byte	0xf0
 2206 06a8 107E     		.2byte	0x7e10
 2207 06aa 0C       		.uleb128 0xc
 2208 06ab 9D490000 		.4byte	.LASF129
 2209 06af 05       		.byte	0x5
 2210 06b0 9C       		.byte	0x9c
 2211 06b1 F0000000 		.4byte	0xf0
 2212 06b5 147E     		.2byte	0x7e14
 2213 06b7 0C       		.uleb128 0xc
 2214 06b8 D5080000 		.4byte	.LASF130
 2215 06bc 05       		.byte	0x5
 2216 06bd 9E       		.byte	0x9e
 2217 06be F0000000 		.4byte	0xf0
 2218 06c2 187E     		.2byte	0x7e18
 2219 06c4 0C       		.uleb128 0xc
 2220 06c5 05520000 		.4byte	.LASF131
 2221 06c9 05       		.byte	0x5
 2222 06ca 9F       		.byte	0x9f
 2223 06cb F0000000 		.4byte	0xf0
 2224 06cf 1C7E     		.2byte	0x7e1c
 2225 06d1 0C       		.uleb128 0xc
 2226 06d2 D62E0000 		.4byte	.LASF132
 2227 06d6 05       		.byte	0x5
 2228 06d7 A1       		.byte	0xa1
 2229 06d8 F0000000 		.4byte	0xf0
 2230 06dc 207E     		.2byte	0x7e20
 2231 06de 0C       		.uleb128 0xc
 2232 06df C6160000 		.4byte	.LASF133
 2233 06e3 05       		.byte	0x5
 2234 06e4 A4       		.byte	0xa4
 2235 06e5 F0000000 		.4byte	0xf0
 2236 06e9 247E     		.2byte	0x7e24
 2237 06eb 0C       		.uleb128 0xc
 2238 06ec 553F0000 		.4byte	.LASF134
 2239 06f0 05       		.byte	0x5
 2240 06f1 A7       		.byte	0xa7
 2241 06f2 4B090000 		.4byte	0x94b
 2242 06f6 287E     		.2byte	0x7e28
ARM GAS  C:\Users\hkmnt\AppData\Local\Temp\ccBdSSuH.s 			page 75


 2243 06f8 0C       		.uleb128 0xc
 2244 06f9 0D450000 		.4byte	.LASF135
 2245 06fd 05       		.byte	0x5
 2246 06fe A8       		.byte	0xa8
 2247 06ff F0000000 		.4byte	0xf0
 2248 0703 F47F     		.2byte	0x7ff4
 2249 0705 0C       		.uleb128 0xc
 2250 0706 D8190000 		.4byte	.LASF136
 2251 070a 05       		.byte	0x5
 2252 070b A9       		.byte	0xa9
 2253 070c F0000000 		.4byte	0xf0
 2254 0710 F87F     		.2byte	0x7ff8
 2255 0712 0C       		.uleb128 0xc
 2256 0713 551D0000 		.4byte	.LASF137
 2257 0717 05       		.byte	0x5
 2258 0718 AA       		.byte	0xaa
 2259 0719 F0000000 		.4byte	0xf0
 2260 071d FC7F     		.2byte	0x7ffc
 2261 071f 00       		.byte	0
 2262 0720 06       		.uleb128 0x6
 2263 0721 B9000000 		.4byte	0xb9
 2264 0725 07       		.uleb128 0x7
 2265 0726 20070000 		.4byte	0x720
 2266 072a 06       		.uleb128 0x6
 2267 072b CF000000 		.4byte	0xcf
 2268 072f 06       		.uleb128 0x6
 2269 0730 2A010000 		.4byte	0x12a
 2270 0734 07       		.uleb128 0x7
 2271 0735 2F070000 		.4byte	0x72f
 2272 0739 08       		.uleb128 0x8
 2273 073a 49070000 		.4byte	0x749
 2274 073e 49070000 		.4byte	0x749
 2275 0742 09       		.uleb128 0x9
 2276 0743 A9000000 		.4byte	0xa9
 2277 0747 02       		.byte	0x2
 2278 0748 00       		.byte	0
 2279 0749 07       		.uleb128 0x7
 2280 074a 2A070000 		.4byte	0x72a
 2281 074e 06       		.uleb128 0x6
 2282 074f 39070000 		.4byte	0x739
 2283 0753 07       		.uleb128 0x7
 2284 0754 4E070000 		.4byte	0x74e
 2285 0758 08       		.uleb128 0x8
 2286 0759 F5000000 		.4byte	0xf5
 2287 075d 69070000 		.4byte	0x769
 2288 0761 0D       		.uleb128 0xd
 2289 0762 A9000000 		.4byte	0xa9
 2290 0766 7901     		.2byte	0x179
 2291 0768 00       		.byte	0
 2292 0769 06       		.uleb128 0x6
 2293 076a 58070000 		.4byte	0x758
 2294 076e 07       		.uleb128 0x7
 2295 076f 69070000 		.4byte	0x769
 2296 0773 08       		.uleb128 0x8
 2297 0774 20070000 		.4byte	0x720
 2298 0778 83070000 		.4byte	0x783
 2299 077c 09       		.uleb128 0x9
ARM GAS  C:\Users\hkmnt\AppData\Local\Temp\ccBdSSuH.s 			page 76


 2300 077d A9000000 		.4byte	0xa9
 2301 0781 02       		.byte	0x2
 2302 0782 00       		.byte	0
 2303 0783 06       		.uleb128 0x6
 2304 0784 73070000 		.4byte	0x773
 2305 0788 08       		.uleb128 0x8
 2306 0789 25070000 		.4byte	0x725
 2307 078d 98070000 		.4byte	0x798
 2308 0791 09       		.uleb128 0x9
 2309 0792 A9000000 		.4byte	0xa9
 2310 0796 3C       		.byte	0x3c
 2311 0797 00       		.byte	0
 2312 0798 06       		.uleb128 0x6
 2313 0799 88070000 		.4byte	0x788
 2314 079d 07       		.uleb128 0x7
 2315 079e 98070000 		.4byte	0x798
 2316 07a2 06       		.uleb128 0x6
 2317 07a3 1A010000 		.4byte	0x11a
 2318 07a7 07       		.uleb128 0x7
 2319 07a8 A2070000 		.4byte	0x7a2
 2320 07ac 08       		.uleb128 0x8
 2321 07ad F5000000 		.4byte	0xf5
 2322 07b1 BC070000 		.4byte	0x7bc
 2323 07b5 09       		.uleb128 0x9
 2324 07b6 A9000000 		.4byte	0xa9
 2325 07ba 33       		.byte	0x33
 2326 07bb 00       		.byte	0
 2327 07bc 06       		.uleb128 0x6
 2328 07bd AC070000 		.4byte	0x7ac
 2329 07c1 07       		.uleb128 0x7
 2330 07c2 BC070000 		.4byte	0x7bc
 2331 07c6 08       		.uleb128 0x8
 2332 07c7 49070000 		.4byte	0x749
 2333 07cb D6070000 		.4byte	0x7d6
 2334 07cf 09       		.uleb128 0x9
 2335 07d0 A9000000 		.4byte	0xa9
 2336 07d4 5E       		.byte	0x5e
 2337 07d5 00       		.byte	0
 2338 07d6 06       		.uleb128 0x6
 2339 07d7 C6070000 		.4byte	0x7c6
 2340 07db 07       		.uleb128 0x7
 2341 07dc D6070000 		.4byte	0x7d6
 2342 07e0 08       		.uleb128 0x8
 2343 07e1 F0000000 		.4byte	0xf0
 2344 07e5 F0070000 		.4byte	0x7f0
 2345 07e9 09       		.uleb128 0x9
 2346 07ea A9000000 		.4byte	0xa9
 2347 07ee 7F       		.byte	0x7f
 2348 07ef 00       		.byte	0
 2349 07f0 06       		.uleb128 0x6
 2350 07f1 E0070000 		.4byte	0x7e0
 2351 07f5 06       		.uleb128 0x6
 2352 07f6 E0070000 		.4byte	0x7e0
 2353 07fa 06       		.uleb128 0x6
 2354 07fb E0070000 		.4byte	0x7e0
 2355 07ff 06       		.uleb128 0x6
 2356 0800 E0070000 		.4byte	0x7e0
ARM GAS  C:\Users\hkmnt\AppData\Local\Temp\ccBdSSuH.s 			page 77


 2357 0804 08       		.uleb128 0x8
 2358 0805 F5000000 		.4byte	0xf5
 2359 0809 15080000 		.4byte	0x815
 2360 080d 0D       		.uleb128 0xd
 2361 080e A9000000 		.4byte	0xa9
 2362 0812 2D01     		.2byte	0x12d
 2363 0814 00       		.byte	0
 2364 0815 06       		.uleb128 0x6
 2365 0816 04080000 		.4byte	0x804
 2366 081a 07       		.uleb128 0x7
 2367 081b 15080000 		.4byte	0x815
 2368 081f 08       		.uleb128 0x8
 2369 0820 20070000 		.4byte	0x720
 2370 0824 2F080000 		.4byte	0x82f
 2371 0828 09       		.uleb128 0x9
 2372 0829 A9000000 		.4byte	0xa9
 2373 082d 0F       		.byte	0xf
 2374 082e 00       		.byte	0
 2375 082f 06       		.uleb128 0x6
 2376 0830 1F080000 		.4byte	0x81f
 2377 0834 06       		.uleb128 0x6
 2378 0835 1F080000 		.4byte	0x81f
 2379 0839 06       		.uleb128 0x6
 2380 083a FA000000 		.4byte	0xfa
 2381 083e 06       		.uleb128 0x6
 2382 083f FA000000 		.4byte	0xfa
 2383 0843 06       		.uleb128 0x6
 2384 0844 FA000000 		.4byte	0xfa
 2385 0848 06       		.uleb128 0x6
 2386 0849 FA000000 		.4byte	0xfa
 2387 084d 06       		.uleb128 0x6
 2388 084e FA000000 		.4byte	0xfa
 2389 0852 08       		.uleb128 0x8
 2390 0853 F5000000 		.4byte	0xf5
 2391 0857 62080000 		.4byte	0x862
 2392 085b 09       		.uleb128 0x9
 2393 085c A9000000 		.4byte	0xa9
 2394 0860 79       		.byte	0x79
 2395 0861 00       		.byte	0
 2396 0862 06       		.uleb128 0x6
 2397 0863 52080000 		.4byte	0x852
 2398 0867 07       		.uleb128 0x7
 2399 0868 62080000 		.4byte	0x862
 2400 086c 06       		.uleb128 0x6
 2401 086d 0A010000 		.4byte	0x10a
 2402 0871 07       		.uleb128 0x7
 2403 0872 6C080000 		.4byte	0x86c
 2404 0876 08       		.uleb128 0x8
 2405 0877 F5000000 		.4byte	0xf5
 2406 087b 87080000 		.4byte	0x887
 2407 087f 0D       		.uleb128 0xd
 2408 0880 A9000000 		.4byte	0xa9
 2409 0884 EA01     		.2byte	0x1ea
 2410 0886 00       		.byte	0
 2411 0887 06       		.uleb128 0x6
 2412 0888 76080000 		.4byte	0x876
 2413 088c 07       		.uleb128 0x7
ARM GAS  C:\Users\hkmnt\AppData\Local\Temp\ccBdSSuH.s 			page 78


 2414 088d 87080000 		.4byte	0x887
 2415 0891 08       		.uleb128 0x8
 2416 0892 F5000000 		.4byte	0xf5
 2417 0896 A1080000 		.4byte	0x8a1
 2418 089a 09       		.uleb128 0x9
 2419 089b A9000000 		.4byte	0xa9
 2420 089f 2F       		.byte	0x2f
 2421 08a0 00       		.byte	0
 2422 08a1 06       		.uleb128 0x6
 2423 08a2 91080000 		.4byte	0x891
 2424 08a6 07       		.uleb128 0x7
 2425 08a7 A1080000 		.4byte	0x8a1
 2426 08ab 08       		.uleb128 0x8
 2427 08ac 20070000 		.4byte	0x720
 2428 08b0 BC080000 		.4byte	0x8bc
 2429 08b4 0D       		.uleb128 0xd
 2430 08b5 A9000000 		.4byte	0xa9
 2431 08b9 2739     		.2byte	0x3927
 2432 08bb 00       		.byte	0
 2433 08bc 06       		.uleb128 0x6
 2434 08bd AB080000 		.4byte	0x8ab
 2435 08c1 08       		.uleb128 0x8
 2436 08c2 20070000 		.4byte	0x720
 2437 08c6 D2080000 		.4byte	0x8d2
 2438 08ca 0D       		.uleb128 0xd
 2439 08cb A9000000 		.4byte	0xa9
 2440 08cf FF0B     		.2byte	0xbff
 2441 08d1 00       		.byte	0
 2442 08d2 06       		.uleb128 0x6
 2443 08d3 C1080000 		.4byte	0x8c1
 2444 08d7 08       		.uleb128 0x8
 2445 08d8 F0000000 		.4byte	0xf0
 2446 08dc E8080000 		.4byte	0x8e8
 2447 08e0 0D       		.uleb128 0xd
 2448 08e1 A9000000 		.4byte	0xa9
 2449 08e5 7F01     		.2byte	0x17f
 2450 08e7 00       		.byte	0
 2451 08e8 06       		.uleb128 0x6
 2452 08e9 D7080000 		.4byte	0x8d7
 2453 08ed 08       		.uleb128 0x8
 2454 08ee F5000000 		.4byte	0xf5
 2455 08f2 FE080000 		.4byte	0x8fe
 2456 08f6 0D       		.uleb128 0xd
 2457 08f7 A9000000 		.4byte	0xa9
 2458 08fb FF02     		.2byte	0x2ff
 2459 08fd 00       		.byte	0
 2460 08fe 06       		.uleb128 0x6
 2461 08ff ED080000 		.4byte	0x8ed
 2462 0903 07       		.uleb128 0x7
 2463 0904 FE080000 		.4byte	0x8fe
 2464 0908 08       		.uleb128 0x8
 2465 0909 F5000000 		.4byte	0xf5
 2466 090d 18090000 		.4byte	0x918
 2467 0911 09       		.uleb128 0x9
 2468 0912 A9000000 		.4byte	0xa9
 2469 0916 76       		.byte	0x76
 2470 0917 00       		.byte	0
ARM GAS  C:\Users\hkmnt\AppData\Local\Temp\ccBdSSuH.s 			page 79


 2471 0918 06       		.uleb128 0x6
 2472 0919 08090000 		.4byte	0x908
 2473 091d 07       		.uleb128 0x7
 2474 091e 18090000 		.4byte	0x918
 2475 0922 06       		.uleb128 0x6
 2476 0923 08090000 		.4byte	0x908
 2477 0927 07       		.uleb128 0x7
 2478 0928 22090000 		.4byte	0x922
 2479 092c 08       		.uleb128 0x8
 2480 092d F5000000 		.4byte	0xf5
 2481 0931 3C090000 		.4byte	0x93c
 2482 0935 09       		.uleb128 0x9
 2483 0936 A9000000 		.4byte	0xa9
 2484 093a 72       		.byte	0x72
 2485 093b 00       		.byte	0
 2486 093c 06       		.uleb128 0x6
 2487 093d 2C090000 		.4byte	0x92c
 2488 0941 07       		.uleb128 0x7
 2489 0942 3C090000 		.4byte	0x93c
 2490 0946 06       		.uleb128 0x6
 2491 0947 2C090000 		.4byte	0x92c
 2492 094b 07       		.uleb128 0x7
 2493 094c 46090000 		.4byte	0x946
 2494 0950 04       		.uleb128 0x4
 2495 0951 DE210000 		.4byte	.LASF138
 2496 0955 05       		.byte	0x5
 2497 0956 AC       		.byte	0xac
 2498 0957 3A010000 		.4byte	0x13a
 2499 095b 0E       		.uleb128 0xe
 2500 095c B8       		.byte	0xb8
 2501 095d 06       		.byte	0x6
 2502 095e 34       		.byte	0x34
 2503 095f 6C0D0000 		.4byte	0xd6c
 2504 0963 0B       		.uleb128 0xb
 2505 0964 B7290000 		.4byte	.LASF139
 2506 0968 06       		.byte	0x6
 2507 0969 37       		.byte	0x37
 2508 096a E5000000 		.4byte	0xe5
 2509 096e 00       		.byte	0
 2510 096f 0B       		.uleb128 0xb
 2511 0970 BF120000 		.4byte	.LASF140
 2512 0974 06       		.byte	0x6
 2513 0975 38       		.byte	0x38
 2514 0976 E5000000 		.4byte	0xe5
 2515 097a 04       		.byte	0x4
 2516 097b 0B       		.uleb128 0xb
 2517 097c 99200000 		.4byte	.LASF141
 2518 0980 06       		.byte	0x6
 2519 0981 39       		.byte	0x39
 2520 0982 E5000000 		.4byte	0xe5
 2521 0986 08       		.byte	0x8
 2522 0987 0B       		.uleb128 0xb
 2523 0988 8F1A0000 		.4byte	.LASF142
 2524 098c 06       		.byte	0x6
 2525 098d 3A       		.byte	0x3a
 2526 098e E5000000 		.4byte	0xe5
 2527 0992 0C       		.byte	0xc
ARM GAS  C:\Users\hkmnt\AppData\Local\Temp\ccBdSSuH.s 			page 80


 2528 0993 0B       		.uleb128 0xb
 2529 0994 062A0000 		.4byte	.LASF143
 2530 0998 06       		.byte	0x6
 2531 0999 3B       		.byte	0x3b
 2532 099a E5000000 		.4byte	0xe5
 2533 099e 10       		.byte	0x10
 2534 099f 0B       		.uleb128 0xb
 2535 09a0 8D030000 		.4byte	.LASF144
 2536 09a4 06       		.byte	0x6
 2537 09a5 3C       		.byte	0x3c
 2538 09a6 E5000000 		.4byte	0xe5
 2539 09aa 14       		.byte	0x14
 2540 09ab 0B       		.uleb128 0xb
 2541 09ac 4C440000 		.4byte	.LASF145
 2542 09b0 06       		.byte	0x6
 2543 09b1 3D       		.byte	0x3d
 2544 09b2 E5000000 		.4byte	0xe5
 2545 09b6 18       		.byte	0x18
 2546 09b7 0B       		.uleb128 0xb
 2547 09b8 CC150000 		.4byte	.LASF146
 2548 09bc 06       		.byte	0x6
 2549 09bd 3E       		.byte	0x3e
 2550 09be E5000000 		.4byte	0xe5
 2551 09c2 1C       		.byte	0x1c
 2552 09c3 0B       		.uleb128 0xb
 2553 09c4 0A500000 		.4byte	.LASF147
 2554 09c8 06       		.byte	0x6
 2555 09c9 3F       		.byte	0x3f
 2556 09ca E5000000 		.4byte	0xe5
 2557 09ce 20       		.byte	0x20
 2558 09cf 0B       		.uleb128 0xb
 2559 09d0 66000000 		.4byte	.LASF148
 2560 09d4 06       		.byte	0x6
 2561 09d5 40       		.byte	0x40
 2562 09d6 E5000000 		.4byte	0xe5
 2563 09da 24       		.byte	0x24
 2564 09db 0B       		.uleb128 0xb
 2565 09dc 5D240000 		.4byte	.LASF149
 2566 09e0 06       		.byte	0x6
 2567 09e1 43       		.byte	0x43
 2568 09e2 B9000000 		.4byte	0xb9
 2569 09e6 28       		.byte	0x28
 2570 09e7 0B       		.uleb128 0xb
 2571 09e8 73540000 		.4byte	.LASF150
 2572 09ec 06       		.byte	0x6
 2573 09ed 44       		.byte	0x44
 2574 09ee B9000000 		.4byte	0xb9
 2575 09f2 29       		.byte	0x29
 2576 09f3 0B       		.uleb128 0xb
 2577 09f4 08440000 		.4byte	.LASF151
 2578 09f8 06       		.byte	0x6
 2579 09f9 45       		.byte	0x45
 2580 09fa B9000000 		.4byte	0xb9
 2581 09fe 2A       		.byte	0x2a
 2582 09ff 0B       		.uleb128 0xb
 2583 0a00 890A0000 		.4byte	.LASF152
 2584 0a04 06       		.byte	0x6
ARM GAS  C:\Users\hkmnt\AppData\Local\Temp\ccBdSSuH.s 			page 81


 2585 0a05 46       		.byte	0x46
 2586 0a06 B9000000 		.4byte	0xb9
 2587 0a0a 2B       		.byte	0x2b
 2588 0a0b 0B       		.uleb128 0xb
 2589 0a0c 04410000 		.4byte	.LASF153
 2590 0a10 06       		.byte	0x6
 2591 0a11 47       		.byte	0x47
 2592 0a12 B9000000 		.4byte	0xb9
 2593 0a16 2C       		.byte	0x2c
 2594 0a17 0B       		.uleb128 0xb
 2595 0a18 87560000 		.4byte	.LASF154
 2596 0a1c 06       		.byte	0x6
 2597 0a1d 48       		.byte	0x48
 2598 0a1e B9000000 		.4byte	0xb9
 2599 0a22 2D       		.byte	0x2d
 2600 0a23 0B       		.uleb128 0xb
 2601 0a24 0F2A0000 		.4byte	.LASF155
 2602 0a28 06       		.byte	0x6
 2603 0a29 49       		.byte	0x49
 2604 0a2a B9000000 		.4byte	0xb9
 2605 0a2e 2E       		.byte	0x2e
 2606 0a2f 0B       		.uleb128 0xb
 2607 0a30 4F470000 		.4byte	.LASF156
 2608 0a34 06       		.byte	0x6
 2609 0a35 4A       		.byte	0x4a
 2610 0a36 B9000000 		.4byte	0xb9
 2611 0a3a 2F       		.byte	0x2f
 2612 0a3b 0B       		.uleb128 0xb
 2613 0a3c F10C0000 		.4byte	.LASF157
 2614 0a40 06       		.byte	0x6
 2615 0a41 4B       		.byte	0x4b
 2616 0a42 B9000000 		.4byte	0xb9
 2617 0a46 30       		.byte	0x30
 2618 0a47 0B       		.uleb128 0xb
 2619 0a48 FE2F0000 		.4byte	.LASF158
 2620 0a4c 06       		.byte	0x6
 2621 0a4d 4E       		.byte	0x4e
 2622 0a4e B9000000 		.4byte	0xb9
 2623 0a52 31       		.byte	0x31
 2624 0a53 0B       		.uleb128 0xb
 2625 0a54 42360000 		.4byte	.LASF159
 2626 0a58 06       		.byte	0x6
 2627 0a59 4F       		.byte	0x4f
 2628 0a5a B9000000 		.4byte	0xb9
 2629 0a5e 32       		.byte	0x32
 2630 0a5f 0B       		.uleb128 0xb
 2631 0a60 29410000 		.4byte	.LASF160
 2632 0a64 06       		.byte	0x6
 2633 0a65 50       		.byte	0x50
 2634 0a66 B9000000 		.4byte	0xb9
 2635 0a6a 33       		.byte	0x33
 2636 0a6b 0B       		.uleb128 0xb
 2637 0a6c 5E3E0000 		.4byte	.LASF161
 2638 0a70 06       		.byte	0x6
 2639 0a71 51       		.byte	0x51
 2640 0a72 B9000000 		.4byte	0xb9
 2641 0a76 34       		.byte	0x34
ARM GAS  C:\Users\hkmnt\AppData\Local\Temp\ccBdSSuH.s 			page 82


 2642 0a77 0B       		.uleb128 0xb
 2643 0a78 00170000 		.4byte	.LASF162
 2644 0a7c 06       		.byte	0x6
 2645 0a7d 52       		.byte	0x52
 2646 0a7e C4000000 		.4byte	0xc4
 2647 0a82 36       		.byte	0x36
 2648 0a83 0B       		.uleb128 0xb
 2649 0a84 1E250000 		.4byte	.LASF163
 2650 0a88 06       		.byte	0x6
 2651 0a89 53       		.byte	0x53
 2652 0a8a C4000000 		.4byte	0xc4
 2653 0a8e 38       		.byte	0x38
 2654 0a8f 0B       		.uleb128 0xb
 2655 0a90 B01F0000 		.4byte	.LASF164
 2656 0a94 06       		.byte	0x6
 2657 0a95 54       		.byte	0x54
 2658 0a96 C4000000 		.4byte	0xc4
 2659 0a9a 3A       		.byte	0x3a
 2660 0a9b 0B       		.uleb128 0xb
 2661 0a9c D5030000 		.4byte	.LASF165
 2662 0aa0 06       		.byte	0x6
 2663 0aa1 55       		.byte	0x55
 2664 0aa2 B9000000 		.4byte	0xb9
 2665 0aa6 3C       		.byte	0x3c
 2666 0aa7 0B       		.uleb128 0xb
 2667 0aa8 AD390000 		.4byte	.LASF166
 2668 0aac 06       		.byte	0x6
 2669 0aad 56       		.byte	0x56
 2670 0aae B9000000 		.4byte	0xb9
 2671 0ab2 3D       		.byte	0x3d
 2672 0ab3 0B       		.uleb128 0xb
 2673 0ab4 AB070000 		.4byte	.LASF167
 2674 0ab8 06       		.byte	0x6
 2675 0ab9 57       		.byte	0x57
 2676 0aba B9000000 		.4byte	0xb9
 2677 0abe 3E       		.byte	0x3e
 2678 0abf 0B       		.uleb128 0xb
 2679 0ac0 D1100000 		.4byte	.LASF168
 2680 0ac4 06       		.byte	0x6
 2681 0ac5 58       		.byte	0x58
 2682 0ac6 B9000000 		.4byte	0xb9
 2683 0aca 3F       		.byte	0x3f
 2684 0acb 0B       		.uleb128 0xb
 2685 0acc A1270000 		.4byte	.LASF169
 2686 0ad0 06       		.byte	0x6
 2687 0ad1 59       		.byte	0x59
 2688 0ad2 B9000000 		.4byte	0xb9
 2689 0ad6 40       		.byte	0x40
 2690 0ad7 0B       		.uleb128 0xb
 2691 0ad8 802A0000 		.4byte	.LASF170
 2692 0adc 06       		.byte	0x6
 2693 0add 5A       		.byte	0x5a
 2694 0ade B9000000 		.4byte	0xb9
 2695 0ae2 41       		.byte	0x41
 2696 0ae3 0B       		.uleb128 0xb
 2697 0ae4 71230000 		.4byte	.LASF171
 2698 0ae8 06       		.byte	0x6
ARM GAS  C:\Users\hkmnt\AppData\Local\Temp\ccBdSSuH.s 			page 83


 2699 0ae9 5B       		.byte	0x5b
 2700 0aea B9000000 		.4byte	0xb9
 2701 0aee 42       		.byte	0x42
 2702 0aef 0B       		.uleb128 0xb
 2703 0af0 390D0000 		.4byte	.LASF172
 2704 0af4 06       		.byte	0x6
 2705 0af5 5C       		.byte	0x5c
 2706 0af6 B9000000 		.4byte	0xb9
 2707 0afa 43       		.byte	0x43
 2708 0afb 0B       		.uleb128 0xb
 2709 0afc E4440000 		.4byte	.LASF173
 2710 0b00 06       		.byte	0x6
 2711 0b01 5D       		.byte	0x5d
 2712 0b02 B9000000 		.4byte	0xb9
 2713 0b06 44       		.byte	0x44
 2714 0b07 0B       		.uleb128 0xb
 2715 0b08 D2440000 		.4byte	.LASF174
 2716 0b0c 06       		.byte	0x6
 2717 0b0d 5E       		.byte	0x5e
 2718 0b0e E5000000 		.4byte	0xe5
 2719 0b12 48       		.byte	0x48
 2720 0b13 0B       		.uleb128 0xb
 2721 0b14 EA020000 		.4byte	.LASF175
 2722 0b18 06       		.byte	0x6
 2723 0b19 5F       		.byte	0x5f
 2724 0b1a E5000000 		.4byte	0xe5
 2725 0b1e 4C       		.byte	0x4c
 2726 0b1f 0B       		.uleb128 0xb
 2727 0b20 2A2D0000 		.4byte	.LASF176
 2728 0b24 06       		.byte	0x6
 2729 0b25 60       		.byte	0x60
 2730 0b26 B9000000 		.4byte	0xb9
 2731 0b2a 50       		.byte	0x50
 2732 0b2b 0B       		.uleb128 0xb
 2733 0b2c C94A0000 		.4byte	.LASF177
 2734 0b30 06       		.byte	0x6
 2735 0b31 61       		.byte	0x61
 2736 0b32 B9000000 		.4byte	0xb9
 2737 0b36 51       		.byte	0x51
 2738 0b37 0B       		.uleb128 0xb
 2739 0b38 1A2D0000 		.4byte	.LASF178
 2740 0b3c 06       		.byte	0x6
 2741 0b3d 62       		.byte	0x62
 2742 0b3e B9000000 		.4byte	0xb9
 2743 0b42 52       		.byte	0x52
 2744 0b43 0B       		.uleb128 0xb
 2745 0b44 B6000000 		.4byte	.LASF179
 2746 0b48 06       		.byte	0x6
 2747 0b49 63       		.byte	0x63
 2748 0b4a B9000000 		.4byte	0xb9
 2749 0b4e 53       		.byte	0x53
 2750 0b4f 0B       		.uleb128 0xb
 2751 0b50 BC370000 		.4byte	.LASF180
 2752 0b54 06       		.byte	0x6
 2753 0b55 64       		.byte	0x64
 2754 0b56 B9000000 		.4byte	0xb9
 2755 0b5a 54       		.byte	0x54
ARM GAS  C:\Users\hkmnt\AppData\Local\Temp\ccBdSSuH.s 			page 84


 2756 0b5b 0B       		.uleb128 0xb
 2757 0b5c 38560000 		.4byte	.LASF181
 2758 0b60 06       		.byte	0x6
 2759 0b61 65       		.byte	0x65
 2760 0b62 B9000000 		.4byte	0xb9
 2761 0b66 55       		.byte	0x55
 2762 0b67 0B       		.uleb128 0xb
 2763 0b68 EF480000 		.4byte	.LASF182
 2764 0b6c 06       		.byte	0x6
 2765 0b6d 66       		.byte	0x66
 2766 0b6e B9000000 		.4byte	0xb9
 2767 0b72 56       		.byte	0x56
 2768 0b73 0B       		.uleb128 0xb
 2769 0b74 BF3B0000 		.4byte	.LASF183
 2770 0b78 06       		.byte	0x6
 2771 0b79 67       		.byte	0x67
 2772 0b7a B9000000 		.4byte	0xb9
 2773 0b7e 57       		.byte	0x57
 2774 0b7f 0B       		.uleb128 0xb
 2775 0b80 3B2D0000 		.4byte	.LASF184
 2776 0b84 06       		.byte	0x6
 2777 0b85 68       		.byte	0x68
 2778 0b86 B9000000 		.4byte	0xb9
 2779 0b8a 58       		.byte	0x58
 2780 0b8b 0B       		.uleb128 0xb
 2781 0b8c 311F0000 		.4byte	.LASF185
 2782 0b90 06       		.byte	0x6
 2783 0b91 69       		.byte	0x69
 2784 0b92 B9000000 		.4byte	0xb9
 2785 0b96 59       		.byte	0x59
 2786 0b97 0B       		.uleb128 0xb
 2787 0b98 B5560000 		.4byte	.LASF186
 2788 0b9c 06       		.byte	0x6
 2789 0b9d 6E       		.byte	0x6e
 2790 0b9e CF000000 		.4byte	0xcf
 2791 0ba2 5A       		.byte	0x5a
 2792 0ba3 0B       		.uleb128 0xb
 2793 0ba4 28260000 		.4byte	.LASF187
 2794 0ba8 06       		.byte	0x6
 2795 0ba9 6F       		.byte	0x6f
 2796 0baa CF000000 		.4byte	0xcf
 2797 0bae 5C       		.byte	0x5c
 2798 0baf 0B       		.uleb128 0xb
 2799 0bb0 4E2B0000 		.4byte	.LASF188
 2800 0bb4 06       		.byte	0x6
 2801 0bb5 70       		.byte	0x70
 2802 0bb6 B9000000 		.4byte	0xb9
 2803 0bba 5E       		.byte	0x5e
 2804 0bbb 0B       		.uleb128 0xb
 2805 0bbc 93500000 		.4byte	.LASF189
 2806 0bc0 06       		.byte	0x6
 2807 0bc1 71       		.byte	0x71
 2808 0bc2 B9000000 		.4byte	0xb9
 2809 0bc6 5F       		.byte	0x5f
 2810 0bc7 0B       		.uleb128 0xb
 2811 0bc8 F0080000 		.4byte	.LASF190
 2812 0bcc 06       		.byte	0x6
ARM GAS  C:\Users\hkmnt\AppData\Local\Temp\ccBdSSuH.s 			page 85


 2813 0bcd 72       		.byte	0x72
 2814 0bce B9000000 		.4byte	0xb9
 2815 0bd2 60       		.byte	0x60
 2816 0bd3 0B       		.uleb128 0xb
 2817 0bd4 C2360000 		.4byte	.LASF191
 2818 0bd8 06       		.byte	0x6
 2819 0bd9 73       		.byte	0x73
 2820 0bda E5000000 		.4byte	0xe5
 2821 0bde 64       		.byte	0x64
 2822 0bdf 0B       		.uleb128 0xb
 2823 0be0 62530000 		.4byte	.LASF192
 2824 0be4 06       		.byte	0x6
 2825 0be5 76       		.byte	0x76
 2826 0be6 CF000000 		.4byte	0xcf
 2827 0bea 68       		.byte	0x68
 2828 0beb 0B       		.uleb128 0xb
 2829 0bec FF190000 		.4byte	.LASF193
 2830 0bf0 06       		.byte	0x6
 2831 0bf1 77       		.byte	0x77
 2832 0bf2 CF000000 		.4byte	0xcf
 2833 0bf6 6A       		.byte	0x6a
 2834 0bf7 0B       		.uleb128 0xb
 2835 0bf8 C91B0000 		.4byte	.LASF194
 2836 0bfc 06       		.byte	0x6
 2837 0bfd 78       		.byte	0x78
 2838 0bfe CF000000 		.4byte	0xcf
 2839 0c02 6C       		.byte	0x6c
 2840 0c03 0B       		.uleb128 0xb
 2841 0c04 CF270000 		.4byte	.LASF195
 2842 0c08 06       		.byte	0x6
 2843 0c09 79       		.byte	0x79
 2844 0c0a CF000000 		.4byte	0xcf
 2845 0c0e 6E       		.byte	0x6e
 2846 0c0f 0B       		.uleb128 0xb
 2847 0c10 6B430000 		.4byte	.LASF196
 2848 0c14 06       		.byte	0x6
 2849 0c15 7B       		.byte	0x7b
 2850 0c16 B9000000 		.4byte	0xb9
 2851 0c1a 70       		.byte	0x70
 2852 0c1b 0B       		.uleb128 0xb
 2853 0c1c 85290000 		.4byte	.LASF197
 2854 0c20 06       		.byte	0x6
 2855 0c21 7C       		.byte	0x7c
 2856 0c22 B9000000 		.4byte	0xb9
 2857 0c26 71       		.byte	0x71
 2858 0c27 0B       		.uleb128 0xb
 2859 0c28 FE110000 		.4byte	.LASF198
 2860 0c2c 06       		.byte	0x6
 2861 0c2d 7D       		.byte	0x7d
 2862 0c2e B9000000 		.4byte	0xb9
 2863 0c32 72       		.byte	0x72
 2864 0c33 0B       		.uleb128 0xb
 2865 0c34 753A0000 		.4byte	.LASF199
 2866 0c38 06       		.byte	0x6
 2867 0c39 7E       		.byte	0x7e
 2868 0c3a B9000000 		.4byte	0xb9
 2869 0c3e 73       		.byte	0x73
ARM GAS  C:\Users\hkmnt\AppData\Local\Temp\ccBdSSuH.s 			page 86


 2870 0c3f 0B       		.uleb128 0xb
 2871 0c40 BE0D0000 		.4byte	.LASF200
 2872 0c44 06       		.byte	0x6
 2873 0c45 80       		.byte	0x80
 2874 0c46 CF000000 		.4byte	0xcf
 2875 0c4a 74       		.byte	0x74
 2876 0c4b 0B       		.uleb128 0xb
 2877 0c4c 17290000 		.4byte	.LASF201
 2878 0c50 06       		.byte	0x6
 2879 0c51 81       		.byte	0x81
 2880 0c52 CF000000 		.4byte	0xcf
 2881 0c56 76       		.byte	0x76
 2882 0c57 0B       		.uleb128 0xb
 2883 0c58 9C2D0000 		.4byte	.LASF202
 2884 0c5c 06       		.byte	0x6
 2885 0c5d 82       		.byte	0x82
 2886 0c5e CF000000 		.4byte	0xcf
 2887 0c62 78       		.byte	0x78
 2888 0c63 0B       		.uleb128 0xb
 2889 0c64 C9210000 		.4byte	.LASF203
 2890 0c68 06       		.byte	0x6
 2891 0c69 83       		.byte	0x83
 2892 0c6a CF000000 		.4byte	0xcf
 2893 0c6e 7A       		.byte	0x7a
 2894 0c6f 0B       		.uleb128 0xb
 2895 0c70 58330000 		.4byte	.LASF204
 2896 0c74 06       		.byte	0x6
 2897 0c75 86       		.byte	0x86
 2898 0c76 B9000000 		.4byte	0xb9
 2899 0c7a 7C       		.byte	0x7c
 2900 0c7b 0B       		.uleb128 0xb
 2901 0c7c D6060000 		.4byte	.LASF205
 2902 0c80 06       		.byte	0x6
 2903 0c81 87       		.byte	0x87
 2904 0c82 B9000000 		.4byte	0xb9
 2905 0c86 7D       		.byte	0x7d
 2906 0c87 0B       		.uleb128 0xb
 2907 0c88 86200000 		.4byte	.LASF206
 2908 0c8c 06       		.byte	0x6
 2909 0c8d 88       		.byte	0x88
 2910 0c8e B9000000 		.4byte	0xb9
 2911 0c92 7E       		.byte	0x7e
 2912 0c93 0B       		.uleb128 0xb
 2913 0c94 4F2C0000 		.4byte	.LASF207
 2914 0c98 06       		.byte	0x6
 2915 0c99 89       		.byte	0x89
 2916 0c9a B9000000 		.4byte	0xb9
 2917 0c9e 7F       		.byte	0x7f
 2918 0c9f 0B       		.uleb128 0xb
 2919 0ca0 AD4B0000 		.4byte	.LASF208
 2920 0ca4 06       		.byte	0x6
 2921 0ca5 8A       		.byte	0x8a
 2922 0ca6 B9000000 		.4byte	0xb9
 2923 0caa 80       		.byte	0x80
 2924 0cab 0B       		.uleb128 0xb
 2925 0cac 8C1B0000 		.4byte	.LASF209
 2926 0cb0 06       		.byte	0x6
ARM GAS  C:\Users\hkmnt\AppData\Local\Temp\ccBdSSuH.s 			page 87


 2927 0cb1 8D       		.byte	0x8d
 2928 0cb2 E5000000 		.4byte	0xe5
 2929 0cb6 84       		.byte	0x84
 2930 0cb7 0B       		.uleb128 0xb
 2931 0cb8 F41D0000 		.4byte	.LASF210
 2932 0cbc 06       		.byte	0x6
 2933 0cbd 8E       		.byte	0x8e
 2934 0cbe E5000000 		.4byte	0xe5
 2935 0cc2 88       		.byte	0x88
 2936 0cc3 0B       		.uleb128 0xb
 2937 0cc4 46500000 		.4byte	.LASF211
 2938 0cc8 06       		.byte	0x6
 2939 0cc9 8F       		.byte	0x8f
 2940 0cca E5000000 		.4byte	0xe5
 2941 0cce 8C       		.byte	0x8c
 2942 0ccf 0B       		.uleb128 0xb
 2943 0cd0 8B000000 		.4byte	.LASF212
 2944 0cd4 06       		.byte	0x6
 2945 0cd5 90       		.byte	0x90
 2946 0cd6 E5000000 		.4byte	0xe5
 2947 0cda 90       		.byte	0x90
 2948 0cdb 0B       		.uleb128 0xb
 2949 0cdc F7460000 		.4byte	.LASF213
 2950 0ce0 06       		.byte	0x6
 2951 0ce1 91       		.byte	0x91
 2952 0ce2 E5000000 		.4byte	0xe5
 2953 0ce6 94       		.byte	0x94
 2954 0ce7 0B       		.uleb128 0xb
 2955 0ce8 33150000 		.4byte	.LASF214
 2956 0cec 06       		.byte	0x6
 2957 0ced 92       		.byte	0x92
 2958 0cee E5000000 		.4byte	0xe5
 2959 0cf2 98       		.byte	0x98
 2960 0cf3 0B       		.uleb128 0xb
 2961 0cf4 E2150000 		.4byte	.LASF215
 2962 0cf8 06       		.byte	0x6
 2963 0cf9 93       		.byte	0x93
 2964 0cfa E5000000 		.4byte	0xe5
 2965 0cfe 9C       		.byte	0x9c
 2966 0cff 0B       		.uleb128 0xb
 2967 0d00 53290000 		.4byte	.LASF216
 2968 0d04 06       		.byte	0x6
 2969 0d05 94       		.byte	0x94
 2970 0d06 E5000000 		.4byte	0xe5
 2971 0d0a A0       		.byte	0xa0
 2972 0d0b 0B       		.uleb128 0xb
 2973 0d0c 503B0000 		.4byte	.LASF217
 2974 0d10 06       		.byte	0x6
 2975 0d11 95       		.byte	0x95
 2976 0d12 CF000000 		.4byte	0xcf
 2977 0d16 A4       		.byte	0xa4
 2978 0d17 0B       		.uleb128 0xb
 2979 0d18 D93A0000 		.4byte	.LASF218
 2980 0d1c 06       		.byte	0x6
 2981 0d1d 96       		.byte	0x96
 2982 0d1e CF000000 		.4byte	0xcf
 2983 0d22 A6       		.byte	0xa6
ARM GAS  C:\Users\hkmnt\AppData\Local\Temp\ccBdSSuH.s 			page 88


 2984 0d23 0B       		.uleb128 0xb
 2985 0d24 2A120000 		.4byte	.LASF219
 2986 0d28 06       		.byte	0x6
 2987 0d29 97       		.byte	0x97
 2988 0d2a CF000000 		.4byte	0xcf
 2989 0d2e A8       		.byte	0xa8
 2990 0d2f 0B       		.uleb128 0xb
 2991 0d30 35410000 		.4byte	.LASF220
 2992 0d34 06       		.byte	0x6
 2993 0d35 98       		.byte	0x98
 2994 0d36 CF000000 		.4byte	0xcf
 2995 0d3a AA       		.byte	0xaa
 2996 0d3b 0B       		.uleb128 0xb
 2997 0d3c 6D330000 		.4byte	.LASF221
 2998 0d40 06       		.byte	0x6
 2999 0d41 99       		.byte	0x99
 3000 0d42 CF000000 		.4byte	0xcf
 3001 0d46 AC       		.byte	0xac
 3002 0d47 0B       		.uleb128 0xb
 3003 0d48 BB230000 		.4byte	.LASF222
 3004 0d4c 06       		.byte	0x6
 3005 0d4d 9A       		.byte	0x9a
 3006 0d4e CF000000 		.4byte	0xcf
 3007 0d52 AE       		.byte	0xae
 3008 0d53 0B       		.uleb128 0xb
 3009 0d54 530F0000 		.4byte	.LASF223
 3010 0d58 06       		.byte	0x6
 3011 0d59 9D       		.byte	0x9d
 3012 0d5a CF000000 		.4byte	0xcf
 3013 0d5e B0       		.byte	0xb0
 3014 0d5f 0B       		.uleb128 0xb
 3015 0d60 4F1C0000 		.4byte	.LASF224
 3016 0d64 06       		.byte	0x6
 3017 0d65 9E       		.byte	0x9e
 3018 0d66 E5000000 		.4byte	0xe5
 3019 0d6a B4       		.byte	0xb4
 3020 0d6b 00       		.byte	0
 3021 0d6c 04       		.uleb128 0x4
 3022 0d6d 7C2B0000 		.4byte	.LASF225
 3023 0d71 06       		.byte	0x6
 3024 0d72 9F       		.byte	0x9f
 3025 0d73 5B090000 		.4byte	0x95b
 3026 0d77 0F       		.uleb128 0xf
 3027 0d78 02       		.byte	0x2
 3028 0d79 65000000 		.4byte	0x65
 3029 0d7d 07       		.byte	0x7
 3030 0d7e 24       		.byte	0x24
 3031 0d7f 38110000 		.4byte	0x1138
 3032 0d83 10       		.uleb128 0x10
 3033 0d84 B9350000 		.4byte	.LASF226
 3034 0d88 71       		.sleb128 -15
 3035 0d89 10       		.uleb128 0x10
 3036 0d8a AD210000 		.4byte	.LASF227
 3037 0d8e 72       		.sleb128 -14
 3038 0d8f 10       		.uleb128 0x10
 3039 0d90 F8540000 		.4byte	.LASF228
 3040 0d94 73       		.sleb128 -13
ARM GAS  C:\Users\hkmnt\AppData\Local\Temp\ccBdSSuH.s 			page 89


 3041 0d95 10       		.uleb128 0x10
 3042 0d96 FE220000 		.4byte	.LASF229
 3043 0d9a 74       		.sleb128 -12
 3044 0d9b 10       		.uleb128 0x10
 3045 0d9c 69290000 		.4byte	.LASF230
 3046 0da0 75       		.sleb128 -11
 3047 0da1 10       		.uleb128 0x10
 3048 0da2 963C0000 		.4byte	.LASF231
 3049 0da6 76       		.sleb128 -10
 3050 0da7 10       		.uleb128 0x10
 3051 0da8 9B330000 		.4byte	.LASF232
 3052 0dac 7B       		.sleb128 -5
 3053 0dad 10       		.uleb128 0x10
 3054 0dae 8A450000 		.4byte	.LASF233
 3055 0db2 7C       		.sleb128 -4
 3056 0db3 10       		.uleb128 0x10
 3057 0db4 B7060000 		.4byte	.LASF234
 3058 0db8 7E       		.sleb128 -2
 3059 0db9 10       		.uleb128 0x10
 3060 0dba DC0F0000 		.4byte	.LASF235
 3061 0dbe 7F       		.sleb128 -1
 3062 0dbf 11       		.uleb128 0x11
 3063 0dc0 0C1B0000 		.4byte	.LASF236
 3064 0dc4 00       		.byte	0
 3065 0dc5 11       		.uleb128 0x11
 3066 0dc6 A3520000 		.4byte	.LASF237
 3067 0dca 01       		.byte	0x1
 3068 0dcb 11       		.uleb128 0x11
 3069 0dcc A14C0000 		.4byte	.LASF238
 3070 0dd0 02       		.byte	0x2
 3071 0dd1 11       		.uleb128 0x11
 3072 0dd2 9E2A0000 		.4byte	.LASF239
 3073 0dd6 03       		.byte	0x3
 3074 0dd7 11       		.uleb128 0x11
 3075 0dd8 D8090000 		.4byte	.LASF240
 3076 0ddc 04       		.byte	0x4
 3077 0ddd 11       		.uleb128 0x11
 3078 0dde DF040000 		.4byte	.LASF241
 3079 0de2 05       		.byte	0x5
 3080 0de3 11       		.uleb128 0x11
 3081 0de4 323A0000 		.4byte	.LASF242
 3082 0de8 06       		.byte	0x6
 3083 0de9 11       		.uleb128 0x11
 3084 0dea AB420000 		.4byte	.LASF243
 3085 0dee 07       		.byte	0x7
 3086 0def 11       		.uleb128 0x11
 3087 0df0 98120000 		.4byte	.LASF244
 3088 0df4 08       		.byte	0x8
 3089 0df5 11       		.uleb128 0x11
 3090 0df6 03490000 		.4byte	.LASF245
 3091 0dfa 09       		.byte	0x9
 3092 0dfb 11       		.uleb128 0x11
 3093 0dfc 7F4A0000 		.4byte	.LASF246
 3094 0e00 0A       		.byte	0xa
 3095 0e01 11       		.uleb128 0x11
 3096 0e02 FA280000 		.4byte	.LASF247
 3097 0e06 0B       		.byte	0xb
ARM GAS  C:\Users\hkmnt\AppData\Local\Temp\ccBdSSuH.s 			page 90


 3098 0e07 11       		.uleb128 0x11
 3099 0e08 F5070000 		.4byte	.LASF248
 3100 0e0c 0C       		.byte	0xc
 3101 0e0d 11       		.uleb128 0x11
 3102 0e0e EF010000 		.4byte	.LASF249
 3103 0e12 0D       		.byte	0xd
 3104 0e13 11       		.uleb128 0x11
 3105 0e14 8C3A0000 		.4byte	.LASF250
 3106 0e18 0E       		.byte	0xe
 3107 0e19 11       		.uleb128 0x11
 3108 0e1a 59350000 		.4byte	.LASF251
 3109 0e1e 0F       		.byte	0xf
 3110 0e1f 11       		.uleb128 0x11
 3111 0e20 D34D0000 		.4byte	.LASF252
 3112 0e24 10       		.byte	0x10
 3113 0e25 11       		.uleb128 0x11
 3114 0e26 11480000 		.4byte	.LASF253
 3115 0e2a 11       		.byte	0x11
 3116 0e2b 11       		.uleb128 0x11
 3117 0e2c BC540000 		.4byte	.LASF254
 3118 0e30 12       		.byte	0x12
 3119 0e31 11       		.uleb128 0x11
 3120 0e32 9A020000 		.4byte	.LASF255
 3121 0e36 13       		.byte	0x13
 3122 0e37 11       		.uleb128 0x11
 3123 0e38 8E380000 		.4byte	.LASF256
 3124 0e3c 14       		.byte	0x14
 3125 0e3d 11       		.uleb128 0x11
 3126 0e3e 40230000 		.4byte	.LASF257
 3127 0e42 15       		.byte	0x15
 3128 0e43 11       		.uleb128 0x11
 3129 0e44 B1050000 		.4byte	.LASF258
 3130 0e48 16       		.byte	0x16
 3131 0e49 11       		.uleb128 0x11
 3132 0e4a D81B0000 		.4byte	.LASF259
 3133 0e4e 17       		.byte	0x17
 3134 0e4f 11       		.uleb128 0x11
 3135 0e50 3B3B0000 		.4byte	.LASF260
 3136 0e54 18       		.byte	0x18
 3137 0e55 11       		.uleb128 0x11
 3138 0e56 3F520000 		.4byte	.LASF261
 3139 0e5a 19       		.byte	0x19
 3140 0e5b 11       		.uleb128 0x11
 3141 0e5c 554C0000 		.4byte	.LASF262
 3142 0e60 1A       		.byte	0x1a
 3143 0e61 11       		.uleb128 0x11
 3144 0e62 642A0000 		.4byte	.LASF263
 3145 0e66 1B       		.byte	0x1b
 3146 0e67 11       		.uleb128 0x11
 3147 0e68 8C090000 		.4byte	.LASF264
 3148 0e6c 1C       		.byte	0x1c
 3149 0e6d 11       		.uleb128 0x11
 3150 0e6e 731A0000 		.4byte	.LASF265
 3151 0e72 1D       		.byte	0x1d
 3152 0e73 11       		.uleb128 0x11
 3153 0e74 D2390000 		.4byte	.LASF266
 3154 0e78 1E       		.byte	0x1e
ARM GAS  C:\Users\hkmnt\AppData\Local\Temp\ccBdSSuH.s 			page 91


 3155 0e79 11       		.uleb128 0x11
 3156 0e7a 32450000 		.4byte	.LASF267
 3157 0e7e 1F       		.byte	0x1f
 3158 0e7f 11       		.uleb128 0x11
 3159 0e80 36120000 		.4byte	.LASF268
 3160 0e84 20       		.byte	0x20
 3161 0e85 11       		.uleb128 0x11
 3162 0e86 D3480000 		.4byte	.LASF269
 3163 0e8a 21       		.byte	0x21
 3164 0e8b 11       		.uleb128 0x11
 3165 0e8c FB330000 		.4byte	.LASF270
 3166 0e90 22       		.byte	0x22
 3167 0e91 11       		.uleb128 0x11
 3168 0e92 ED300000 		.4byte	.LASF271
 3169 0e96 23       		.byte	0x23
 3170 0e97 11       		.uleb128 0x11
 3171 0e98 930E0000 		.4byte	.LASF272
 3172 0e9c 24       		.byte	0x24
 3173 0e9d 11       		.uleb128 0x11
 3174 0e9e D4450000 		.4byte	.LASF273
 3175 0ea2 25       		.byte	0x25
 3176 0ea3 11       		.uleb128 0x11
 3177 0ea4 E7400000 		.4byte	.LASF274
 3178 0ea8 26       		.byte	0x26
 3179 0ea9 11       		.uleb128 0x11
 3180 0eaa 7A1D0000 		.4byte	.LASF275
 3181 0eae 27       		.byte	0x27
 3182 0eaf 11       		.uleb128 0x11
 3183 0eb0 6E1C0000 		.4byte	.LASF276
 3184 0eb4 28       		.byte	0x28
 3185 0eb5 11       		.uleb128 0x11
 3186 0eb6 5C190000 		.4byte	.LASF277
 3187 0eba 29       		.byte	0x29
 3188 0ebb 11       		.uleb128 0x11
 3189 0ebc B83F0000 		.4byte	.LASF278
 3190 0ec0 2A       		.byte	0x2a
 3191 0ec1 11       		.uleb128 0x11
 3192 0ec2 41280000 		.4byte	.LASF279
 3193 0ec6 2B       		.byte	0x2b
 3194 0ec7 11       		.uleb128 0x11
 3195 0ec8 444D0000 		.4byte	.LASF280
 3196 0ecc 2C       		.byte	0x2c
 3197 0ecd 11       		.uleb128 0x11
 3198 0ece D5370000 		.4byte	.LASF281
 3199 0ed2 2D       		.byte	0x2d
 3200 0ed3 11       		.uleb128 0x11
 3201 0ed4 49050000 		.4byte	.LASF282
 3202 0ed8 2E       		.byte	0x2e
 3203 0ed9 11       		.uleb128 0x11
 3204 0eda 30460000 		.4byte	.LASF283
 3205 0ede 2F       		.byte	0x2f
 3206 0edf 11       		.uleb128 0x11
 3207 0ee0 4D2E0000 		.4byte	.LASF284
 3208 0ee4 30       		.byte	0x30
 3209 0ee5 11       		.uleb128 0x11
 3210 0ee6 45100000 		.4byte	.LASF285
 3211 0eea 31       		.byte	0x31
ARM GAS  C:\Users\hkmnt\AppData\Local\Temp\ccBdSSuH.s 			page 92


 3212 0eeb 11       		.uleb128 0x11
 3213 0eec 971A0000 		.4byte	.LASF286
 3214 0ef0 32       		.byte	0x32
 3215 0ef1 11       		.uleb128 0x11
 3216 0ef2 81510000 		.4byte	.LASF287
 3217 0ef6 33       		.byte	0x33
 3218 0ef7 11       		.uleb128 0x11
 3219 0ef8 1A300000 		.4byte	.LASF288
 3220 0efc 34       		.byte	0x34
 3221 0efd 11       		.uleb128 0x11
 3222 0efe 67380000 		.4byte	.LASF289
 3223 0f02 35       		.byte	0x35
 3224 0f03 11       		.uleb128 0x11
 3225 0f04 00000000 		.4byte	.LASF290
 3226 0f08 36       		.byte	0x36
 3227 0f09 11       		.uleb128 0x11
 3228 0f0a 6B560000 		.4byte	.LASF291
 3229 0f0e 37       		.byte	0x37
 3230 0f0f 11       		.uleb128 0x11
 3231 0f10 7C390000 		.4byte	.LASF292
 3232 0f14 38       		.byte	0x38
 3233 0f15 11       		.uleb128 0x11
 3234 0f16 5D170000 		.4byte	.LASF293
 3235 0f1a 39       		.byte	0x39
 3236 0f1b 11       		.uleb128 0x11
 3237 0f1c 46530000 		.4byte	.LASF294
 3238 0f20 3A       		.byte	0x3a
 3239 0f21 11       		.uleb128 0x11
 3240 0f22 D92B0000 		.4byte	.LASF295
 3241 0f26 3B       		.byte	0x3b
 3242 0f27 11       		.uleb128 0x11
 3243 0f28 36290000 		.4byte	.LASF296
 3244 0f2c 3C       		.byte	0x3c
 3245 0f2d 11       		.uleb128 0x11
 3246 0f2e 17080000 		.4byte	.LASF297
 3247 0f32 3D       		.byte	0x3d
 3248 0f33 11       		.uleb128 0x11
 3249 0f34 A43E0000 		.4byte	.LASF298
 3250 0f38 3E       		.byte	0x3e
 3251 0f39 11       		.uleb128 0x11
 3252 0f3a 24380000 		.4byte	.LASF299
 3253 0f3e 3F       		.byte	0x3f
 3254 0f3f 11       		.uleb128 0x11
 3255 0f40 F8150000 		.4byte	.LASF300
 3256 0f44 40       		.byte	0x40
 3257 0f45 11       		.uleb128 0x11
 3258 0f46 1B4C0000 		.4byte	.LASF301
 3259 0f4a 41       		.byte	0x41
 3260 0f4b 11       		.uleb128 0x11
 3261 0f4c B3530000 		.4byte	.LASF302
 3262 0f50 42       		.byte	0x42
 3263 0f51 11       		.uleb128 0x11
 3264 0f52 37320000 		.4byte	.LASF303
 3265 0f56 43       		.byte	0x43
 3266 0f57 11       		.uleb128 0x11
 3267 0f58 900F0000 		.4byte	.LASF304
 3268 0f5c 44       		.byte	0x44
ARM GAS  C:\Users\hkmnt\AppData\Local\Temp\ccBdSSuH.s 			page 93


 3269 0f5d 11       		.uleb128 0x11
 3270 0f5e BB0A0000 		.4byte	.LASF305
 3271 0f62 45       		.byte	0x45
 3272 0f63 11       		.uleb128 0x11
 3273 0f64 87410000 		.4byte	.LASF306
 3274 0f68 46       		.byte	0x46
 3275 0f69 11       		.uleb128 0x11
 3276 0f6a 8F1E0000 		.4byte	.LASF307
 3277 0f6e 47       		.byte	0x47
 3278 0f6f 11       		.uleb128 0x11
 3279 0f70 1B190000 		.4byte	.LASF308
 3280 0f74 48       		.byte	0x48
 3281 0f75 11       		.uleb128 0x11
 3282 0f76 344F0000 		.4byte	.LASF309
 3283 0f7a 49       		.byte	0x49
 3284 0f7b 11       		.uleb128 0x11
 3285 0f7c 802D0000 		.4byte	.LASF310
 3286 0f80 4A       		.byte	0x4a
 3287 0f81 11       		.uleb128 0x11
 3288 0f82 74280000 		.4byte	.LASF311
 3289 0f86 4B       		.byte	0x4b
 3290 0f87 11       		.uleb128 0x11
 3291 0f88 683D0000 		.4byte	.LASF312
 3292 0f8c 4C       		.byte	0x4c
 3293 0f8d 11       		.uleb128 0x11
 3294 0f8e 331A0000 		.4byte	.LASF313
 3295 0f92 4D       		.byte	0x4d
 3296 0f93 11       		.uleb128 0x11
 3297 0f94 E43F0000 		.4byte	.LASF314
 3298 0f98 4E       		.byte	0x4e
 3299 0f99 11       		.uleb128 0x11
 3300 0f9a 134B0000 		.4byte	.LASF315
 3301 0f9e 4F       		.byte	0x4f
 3302 0f9f 11       		.uleb128 0x11
 3303 0fa0 9A290000 		.4byte	.LASF316
 3304 0fa4 50       		.byte	0x50
 3305 0fa5 11       		.uleb128 0x11
 3306 0fa6 B8080000 		.4byte	.LASF317
 3307 0faa 51       		.byte	0x51
 3308 0fab 11       		.uleb128 0x11
 3309 0fac C2410000 		.4byte	.LASF318
 3310 0fb0 52       		.byte	0x52
 3311 0fb1 11       		.uleb128 0x11
 3312 0fb2 C41E0000 		.4byte	.LASF319
 3313 0fb6 53       		.byte	0x53
 3314 0fb7 11       		.uleb128 0x11
 3315 0fb8 8F420000 		.4byte	.LASF320
 3316 0fbc 54       		.byte	0x54
 3317 0fbd 11       		.uleb128 0x11
 3318 0fbe 5C060000 		.4byte	.LASF321
 3319 0fc2 55       		.byte	0x55
 3320 0fc3 11       		.uleb128 0x11
 3321 0fc4 67410000 		.4byte	.LASF322
 3322 0fc8 56       		.byte	0x56
 3323 0fc9 11       		.uleb128 0x11
 3324 0fca 8E240000 		.4byte	.LASF323
 3325 0fce 57       		.byte	0x57
ARM GAS  C:\Users\hkmnt\AppData\Local\Temp\ccBdSSuH.s 			page 94


 3326 0fcf 11       		.uleb128 0x11
 3327 0fd0 E2120000 		.4byte	.LASF324
 3328 0fd4 58       		.byte	0x58
 3329 0fd5 11       		.uleb128 0x11
 3330 0fd6 5C490000 		.4byte	.LASF325
 3331 0fda 59       		.byte	0x59
 3332 0fdb 11       		.uleb128 0x11
 3333 0fdc 5F440000 		.4byte	.LASF326
 3334 0fe0 5A       		.byte	0x5a
 3335 0fe1 11       		.uleb128 0x11
 3336 0fe2 97030000 		.4byte	.LASF327
 3337 0fe6 5B       		.byte	0x5b
 3338 0fe7 11       		.uleb128 0x11
 3339 0fe8 00210000 		.4byte	.LASF328
 3340 0fec 5C       		.byte	0x5c
 3341 0fed 11       		.uleb128 0x11
 3342 0fee 5B520000 		.4byte	.LASF329
 3343 0ff2 5D       		.byte	0x5d
 3344 0ff3 11       		.uleb128 0x11
 3345 0ff4 714C0000 		.4byte	.LASF330
 3346 0ff8 5E       		.byte	0x5e
 3347 0ff9 11       		.uleb128 0x11
 3348 0ffa 59540000 		.4byte	.LASF331
 3349 0ffe 5F       		.byte	0x5f
 3350 0fff 11       		.uleb128 0x11
 3351 1000 A8090000 		.4byte	.LASF332
 3352 1004 60       		.byte	0x60
 3353 1005 11       		.uleb128 0x11
 3354 1006 C5040000 		.4byte	.LASF333
 3355 100a 61       		.byte	0x61
 3356 100b 11       		.uleb128 0x11
 3357 100c 53070000 		.4byte	.LASF334
 3358 1010 62       		.byte	0x62
 3359 1011 11       		.uleb128 0x11
 3360 1012 B8390000 		.4byte	.LASF335
 3361 1016 63       		.byte	0x63
 3362 1017 11       		.uleb128 0x11
 3363 1018 D0170000 		.4byte	.LASF336
 3364 101c 64       		.byte	0x64
 3365 101d 11       		.uleb128 0x11
 3366 101e 41380000 		.4byte	.LASF337
 3367 1022 65       		.byte	0x65
 3368 1023 11       		.uleb128 0x11
 3369 1024 2E2C0000 		.4byte	.LASF338
 3370 1028 66       		.byte	0x66
 3371 1029 11       		.uleb128 0x11
 3372 102a C8260000 		.4byte	.LASF339
 3373 102e 67       		.byte	0x67
 3374 102f 11       		.uleb128 0x11
 3375 1030 2E060000 		.4byte	.LASF340
 3376 1034 68       		.byte	0x68
 3377 1035 11       		.uleb128 0x11
 3378 1036 093C0000 		.4byte	.LASF341
 3379 103a 69       		.byte	0x69
 3380 103b 11       		.uleb128 0x11
 3381 103c 6F360000 		.4byte	.LASF342
 3382 1040 6A       		.byte	0x6a
ARM GAS  C:\Users\hkmnt\AppData\Local\Temp\ccBdSSuH.s 			page 95


 3383 1041 11       		.uleb128 0x11
 3384 1042 8F440000 		.4byte	.LASF343
 3385 1046 6B       		.byte	0x6b
 3386 1047 11       		.uleb128 0x11
 3387 1048 E4190000 		.4byte	.LASF344
 3388 104c 6C       		.byte	0x6c
 3389 104d 11       		.uleb128 0x11
 3390 104e EF4F0000 		.4byte	.LASF345
 3391 1052 6D       		.byte	0x6d
 3392 1053 11       		.uleb128 0x11
 3393 1054 EA2E0000 		.4byte	.LASF346
 3394 1058 6E       		.byte	0x6e
 3395 1059 11       		.uleb128 0x11
 3396 105a FD0C0000 		.4byte	.LASF347
 3397 105e 6F       		.byte	0x6f
 3398 105f 11       		.uleb128 0x11
 3399 1060 73080000 		.4byte	.LASF348
 3400 1064 70       		.byte	0x70
 3401 1065 11       		.uleb128 0x11
 3402 1066 281B0000 		.4byte	.LASF349
 3403 106a 71       		.byte	0x71
 3404 106b 11       		.uleb128 0x11
 3405 106c 431B0000 		.4byte	.LASF350
 3406 1070 72       		.byte	0x72
 3407 1071 11       		.uleb128 0x11
 3408 1072 FE2D0000 		.4byte	.LASF351
 3409 1076 73       		.byte	0x73
 3410 1077 11       		.uleb128 0x11
 3411 1078 CE4C0000 		.4byte	.LASF352
 3412 107c 74       		.byte	0x74
 3413 107d 11       		.uleb128 0x11
 3414 107e E42A0000 		.4byte	.LASF353
 3415 1082 75       		.byte	0x75
 3416 1083 11       		.uleb128 0x11
 3417 1084 521E0000 		.4byte	.LASF354
 3418 1088 76       		.byte	0x76
 3419 1089 11       		.uleb128 0x11
 3420 108a 0B1E0000 		.4byte	.LASF355
 3421 108e 77       		.byte	0x77
 3422 108f 11       		.uleb128 0x11
 3423 1090 B6330000 		.4byte	.LASF356
 3424 1094 78       		.byte	0x78
 3425 1095 11       		.uleb128 0x11
 3426 1096 562D0000 		.4byte	.LASF357
 3427 109a 79       		.byte	0x79
 3428 109b 11       		.uleb128 0x11
 3429 109c DB0C0000 		.4byte	.LASF358
 3430 10a0 7A       		.byte	0x7a
 3431 10a1 11       		.uleb128 0x11
 3432 10a2 79440000 		.4byte	.LASF359
 3433 10a6 7B       		.byte	0x7b
 3434 10a7 11       		.uleb128 0x11
 3435 10a8 FB040000 		.4byte	.LASF360
 3436 10ac 7C       		.byte	0x7c
 3437 10ad 11       		.uleb128 0x11
 3438 10ae 3B000000 		.4byte	.LASF361
 3439 10b2 7D       		.byte	0x7d
ARM GAS  C:\Users\hkmnt\AppData\Local\Temp\ccBdSSuH.s 			page 96


 3440 10b3 11       		.uleb128 0x11
 3441 10b4 12500000 		.4byte	.LASF362
 3442 10b8 7E       		.byte	0x7e
 3443 10b9 11       		.uleb128 0x11
 3444 10ba BE300000 		.4byte	.LASF363
 3445 10be 7F       		.byte	0x7f
 3446 10bf 11       		.uleb128 0x11
 3447 10c0 3A0E0000 		.4byte	.LASF364
 3448 10c4 80       		.byte	0x80
 3449 10c5 11       		.uleb128 0x11
 3450 10c6 C2090000 		.4byte	.LASF365
 3451 10ca 81       		.byte	0x81
 3452 10cb 11       		.uleb128 0x11
 3453 10cc 7B400000 		.4byte	.LASF366
 3454 10d0 82       		.byte	0x82
 3455 10d1 11       		.uleb128 0x11
 3456 10d2 211D0000 		.4byte	.LASF367
 3457 10d6 83       		.byte	0x83
 3458 10d7 11       		.uleb128 0x11
 3459 10d8 BC4D0000 		.4byte	.LASF368
 3460 10dc 84       		.byte	0x84
 3461 10dd 11       		.uleb128 0x11
 3462 10de F52B0000 		.4byte	.LASF369
 3463 10e2 85       		.byte	0x85
 3464 10e3 11       		.uleb128 0x11
 3465 10e4 89260000 		.4byte	.LASF370
 3466 10e8 86       		.byte	0x86
 3467 10e9 11       		.uleb128 0x11
 3468 10ea 851F0000 		.4byte	.LASF371
 3469 10ee 87       		.byte	0x87
 3470 10ef 11       		.uleb128 0x11
 3471 10f0 D93B0000 		.4byte	.LASF372
 3472 10f4 88       		.byte	0x88
 3473 10f5 11       		.uleb128 0x11
 3474 10f6 2B360000 		.4byte	.LASF373
 3475 10fa 89       		.byte	0x89
 3476 10fb 11       		.uleb128 0x11
 3477 10fc B6340000 		.4byte	.LASF374
 3478 1100 8A       		.byte	0x8a
 3479 1101 11       		.uleb128 0x11
 3480 1102 31440000 		.4byte	.LASF375
 3481 1106 8B       		.byte	0x8b
 3482 1107 11       		.uleb128 0x11
 3483 1108 5A3A0000 		.4byte	.LASF376
 3484 110c 8C       		.byte	0x8c
 3485 110d 11       		.uleb128 0x11
 3486 110e 093E0000 		.4byte	.LASF377
 3487 1112 8D       		.byte	0x8d
 3488 1113 11       		.uleb128 0x11
 3489 1114 5F080000 		.4byte	.LASF378
 3490 1118 8E       		.byte	0x8e
 3491 1119 11       		.uleb128 0x11
 3492 111a 624F0000 		.4byte	.LASF379
 3493 111e 8F       		.byte	0x8f
 3494 111f 11       		.uleb128 0x11
 3495 1120 50510000 		.4byte	.LASF380
 3496 1124 90       		.byte	0x90
ARM GAS  C:\Users\hkmnt\AppData\Local\Temp\ccBdSSuH.s 			page 97


 3497 1125 11       		.uleb128 0x11
 3498 1126 1E140000 		.4byte	.LASF381
 3499 112a 91       		.byte	0x91
 3500 112b 11       		.uleb128 0x11
 3501 112c 6D1E0000 		.4byte	.LASF382
 3502 1130 92       		.byte	0x92
 3503 1131 11       		.uleb128 0x11
 3504 1132 5B150000 		.4byte	.LASF383
 3505 1136 F0       		.byte	0xf0
 3506 1137 00       		.byte	0
 3507 1138 04       		.uleb128 0x4
 3508 1139 53240000 		.4byte	.LASF384
 3509 113d 07       		.byte	0x7
 3510 113e F4       		.byte	0xf4
 3511 113f 770D0000 		.4byte	0xd77
 3512 1143 08       		.uleb128 0x8
 3513 1144 B9000000 		.4byte	0xb9
 3514 1148 53110000 		.4byte	0x1153
 3515 114c 09       		.uleb128 0x9
 3516 114d A9000000 		.4byte	0xa9
 3517 1151 07       		.byte	0x7
 3518 1152 00       		.byte	0
 3519 1153 12       		.uleb128 0x12
 3520 1154 C14B0000 		.4byte	.LASF385
 3521 1158 08       		.byte	0x8
 3522 1159 1106     		.2byte	0x611
 3523 115b 50090000 		.4byte	0x950
 3524 115f 12       		.uleb128 0x12
 3525 1160 583C0000 		.4byte	.LASF386
 3526 1164 09       		.byte	0x9
 3527 1165 F601     		.2byte	0x1f6
 3528 1167 B2000000 		.4byte	0xb2
 3529 116b 03       		.uleb128 0x3
 3530 116c 04       		.byte	0x4
 3531 116d 04       		.byte	0x4
 3532 116e 452F0000 		.4byte	.LASF387
 3533 1172 03       		.uleb128 0x3
 3534 1173 08       		.byte	0x8
 3535 1174 04       		.byte	0x4
 3536 1175 482C0000 		.4byte	.LASF388
 3537 1179 13       		.uleb128 0x13
 3538 117a 08       		.byte	0x8
 3539 117b 0A       		.byte	0xa
 3540 117c 2D01     		.2byte	0x12d
 3541 117e 9D110000 		.4byte	0x119d
 3542 1182 14       		.uleb128 0x14
 3543 1183 D70A0000 		.4byte	.LASF389
 3544 1187 0A       		.byte	0xa
 3545 1188 2E01     		.2byte	0x12e
 3546 118a 38110000 		.4byte	0x1138
 3547 118e 00       		.byte	0
 3548 118f 14       		.uleb128 0x14
 3549 1190 CC3A0000 		.4byte	.LASF390
 3550 1194 0A       		.byte	0xa
 3551 1195 3201     		.2byte	0x132
 3552 1197 E5000000 		.4byte	0xe5
 3553 119b 04       		.byte	0x4
ARM GAS  C:\Users\hkmnt\AppData\Local\Temp\ccBdSSuH.s 			page 98


 3554 119c 00       		.byte	0
 3555 119d 12       		.uleb128 0x12
 3556 119e BB1D0000 		.4byte	.LASF391
 3557 11a2 0A       		.byte	0xa
 3558 11a3 3301     		.2byte	0x133
 3559 11a5 79110000 		.4byte	0x1179
 3560 11a9 15       		.uleb128 0x15
 3561 11aa 02       		.byte	0x2
 3562 11ab 77000000 		.4byte	0x77
 3563 11af 0B       		.byte	0xb
 3564 11b0 5401     		.2byte	0x154
 3565 11b2 E9140000 		.4byte	0x14e9
 3566 11b6 11       		.uleb128 0x11
 3567 11b7 18360000 		.4byte	.LASF392
 3568 11bb 00       		.byte	0
 3569 11bc 16       		.uleb128 0x16
 3570 11bd 7A240000 		.4byte	.LASF393
 3571 11c1 0010     		.2byte	0x1000
 3572 11c3 16       		.uleb128 0x16
 3573 11c4 ED210000 		.4byte	.LASF394
 3574 11c8 0110     		.2byte	0x1001
 3575 11ca 16       		.uleb128 0x16
 3576 11cb DD0B0000 		.4byte	.LASF395
 3577 11cf 0210     		.2byte	0x1002
 3578 11d1 16       		.uleb128 0x16
 3579 11d2 A4110000 		.4byte	.LASF396
 3580 11d6 0310     		.2byte	0x1003
 3581 11d8 16       		.uleb128 0x16
 3582 11d9 1C000000 		.4byte	.LASF397
 3583 11dd 0410     		.2byte	0x1004
 3584 11df 16       		.uleb128 0x16
 3585 11e0 2D530000 		.4byte	.LASF398
 3586 11e4 0510     		.2byte	0x1005
 3587 11e6 16       		.uleb128 0x16
 3588 11e7 2F050000 		.4byte	.LASF399
 3589 11eb 0020     		.2byte	0x2000
 3590 11ed 16       		.uleb128 0x16
 3591 11ee 5E050000 		.4byte	.LASF400
 3592 11f2 0120     		.2byte	0x2001
 3593 11f4 16       		.uleb128 0x16
 3594 11f5 91460000 		.4byte	.LASF401
 3595 11f9 0220     		.2byte	0x2002
 3596 11fb 16       		.uleb128 0x16
 3597 11fc 0C470000 		.4byte	.LASF402
 3598 1200 0320     		.2byte	0x2003
 3599 1202 16       		.uleb128 0x16
 3600 1203 8B040000 		.4byte	.LASF403
 3601 1207 0420     		.2byte	0x2004
 3602 1209 16       		.uleb128 0x16
 3603 120a 853D0000 		.4byte	.LASF404
 3604 120e 0520     		.2byte	0x2005
 3605 1210 16       		.uleb128 0x16
 3606 1211 EC380000 		.4byte	.LASF405
 3607 1215 0620     		.2byte	0x2006
 3608 1217 16       		.uleb128 0x16
 3609 1218 F3550000 		.4byte	.LASF406
 3610 121c 0720     		.2byte	0x2007
ARM GAS  C:\Users\hkmnt\AppData\Local\Temp\ccBdSSuH.s 			page 99


 3611 121e 16       		.uleb128 0x16
 3612 121f 712E0000 		.4byte	.LASF407
 3613 1223 0820     		.2byte	0x2008
 3614 1225 16       		.uleb128 0x16
 3615 1226 594D0000 		.4byte	.LASF408
 3616 122a 0920     		.2byte	0x2009
 3617 122c 16       		.uleb128 0x16
 3618 122d 1E3F0000 		.4byte	.LASF409
 3619 1231 0A20     		.2byte	0x200a
 3620 1233 16       		.uleb128 0x16
 3621 1234 F14A0000 		.4byte	.LASF410
 3622 1238 0B20     		.2byte	0x200b
 3623 123a 16       		.uleb128 0x16
 3624 123b 9C230000 		.4byte	.LASF411
 3625 123f 0C20     		.2byte	0x200c
 3626 1241 16       		.uleb128 0x16
 3627 1242 A93A0000 		.4byte	.LASF412
 3628 1246 0D20     		.2byte	0x200d
 3629 1248 16       		.uleb128 0x16
 3630 1249 1C0F0000 		.4byte	.LASF413
 3631 124d 0E20     		.2byte	0x200e
 3632 124f 16       		.uleb128 0x16
 3633 1250 C8550000 		.4byte	.LASF414
 3634 1254 0F20     		.2byte	0x200f
 3635 1256 16       		.uleb128 0x16
 3636 1257 FE0F0000 		.4byte	.LASF415
 3637 125b 1020     		.2byte	0x2010
 3638 125d 16       		.uleb128 0x16
 3639 125e 0A320000 		.4byte	.LASF416
 3640 1262 1120     		.2byte	0x2011
 3641 1264 16       		.uleb128 0x16
 3642 1265 96550000 		.4byte	.LASF417
 3643 1269 1220     		.2byte	0x2012
 3644 126b 16       		.uleb128 0x16
 3645 126c 79170000 		.4byte	.LASF418
 3646 1270 1320     		.2byte	0x2013
 3647 1272 16       		.uleb128 0x16
 3648 1273 971D0000 		.4byte	.LASF419
 3649 1277 1420     		.2byte	0x2014
 3650 1279 16       		.uleb128 0x16
 3651 127a 5D210000 		.4byte	.LASF420
 3652 127e 1520     		.2byte	0x2015
 3653 1280 16       		.uleb128 0x16
 3654 1281 4F1F0000 		.4byte	.LASF421
 3655 1285 1620     		.2byte	0x2016
 3656 1287 16       		.uleb128 0x16
 3657 1288 590E0000 		.4byte	.LASF422
 3658 128c 1720     		.2byte	0x2017
 3659 128e 16       		.uleb128 0x16
 3660 128f 8E080000 		.4byte	.LASF423
 3661 1293 0030     		.2byte	0x3000
 3662 1295 16       		.uleb128 0x16
 3663 1296 CB020000 		.4byte	.LASF424
 3664 129a 0130     		.2byte	0x3001
 3665 129c 16       		.uleb128 0x16
 3666 129d 49010000 		.4byte	.LASF425
 3667 12a1 0230     		.2byte	0x3002
ARM GAS  C:\Users\hkmnt\AppData\Local\Temp\ccBdSSuH.s 			page 100


 3668 12a3 16       		.uleb128 0x16
 3669 12a4 08270000 		.4byte	.LASF426
 3670 12a8 0330     		.2byte	0x3003
 3671 12aa 16       		.uleb128 0x16
 3672 12ab 23210000 		.4byte	.LASF427
 3673 12af 0430     		.2byte	0x3004
 3674 12b1 16       		.uleb128 0x16
 3675 12b2 B5470000 		.4byte	.LASF428
 3676 12b6 0530     		.2byte	0x3005
 3677 12b8 16       		.uleb128 0x16
 3678 12b9 16550000 		.4byte	.LASF429
 3679 12bd 0630     		.2byte	0x3006
 3680 12bf 16       		.uleb128 0x16
 3681 12c0 E4030000 		.4byte	.LASF430
 3682 12c4 0730     		.2byte	0x3007
 3683 12c6 16       		.uleb128 0x16
 3684 12c7 A64A0000 		.4byte	.LASF431
 3685 12cb 0830     		.2byte	0x3008
 3686 12cd 16       		.uleb128 0x16
 3687 12ce D7280000 		.4byte	.LASF432
 3688 12d2 0930     		.2byte	0x3009
 3689 12d4 16       		.uleb128 0x16
 3690 12d5 3D4E0000 		.4byte	.LASF433
 3691 12d9 0A30     		.2byte	0x300a
 3692 12db 16       		.uleb128 0x16
 3693 12dc DD240000 		.4byte	.LASF434
 3694 12e0 0B30     		.2byte	0x300b
 3695 12e2 16       		.uleb128 0x16
 3696 12e3 AC170000 		.4byte	.LASF435
 3697 12e7 0C30     		.2byte	0x300c
 3698 12e9 16       		.uleb128 0x16
 3699 12ea 79110000 		.4byte	.LASF436
 3700 12ee 1130     		.2byte	0x3011
 3701 12f0 16       		.uleb128 0x16
 3702 12f1 84470000 		.4byte	.LASF437
 3703 12f5 1230     		.2byte	0x3012
 3704 12f7 16       		.uleb128 0x16
 3705 12f8 22520000 		.4byte	.LASF438
 3706 12fc 1330     		.2byte	0x3013
 3707 12fe 16       		.uleb128 0x16
 3708 12ff 314A0000 		.4byte	.LASF439
 3709 1303 1430     		.2byte	0x3014
 3710 1305 16       		.uleb128 0x16
 3711 1306 8A350000 		.4byte	.LASF440
 3712 130a 1530     		.2byte	0x3015
 3713 130c 16       		.uleb128 0x16
 3714 130d 550C0000 		.4byte	.LASF441
 3715 1311 1630     		.2byte	0x3016
 3716 1313 16       		.uleb128 0x16
 3717 1314 4E370000 		.4byte	.LASF442
 3718 1318 1730     		.2byte	0x3017
 3719 131a 16       		.uleb128 0x16
 3720 131b FB1C0000 		.4byte	.LASF443
 3721 131f 1830     		.2byte	0x3018
 3722 1321 16       		.uleb128 0x16
 3723 1322 1F110000 		.4byte	.LASF444
 3724 1326 1930     		.2byte	0x3019
ARM GAS  C:\Users\hkmnt\AppData\Local\Temp\ccBdSSuH.s 			page 101


 3725 1328 16       		.uleb128 0x16
 3726 1329 EC180000 		.4byte	.LASF445
 3727 132d 0040     		.2byte	0x4000
 3728 132f 16       		.uleb128 0x16
 3729 1330 B60F0000 		.4byte	.LASF446
 3730 1334 0140     		.2byte	0x4001
 3731 1336 16       		.uleb128 0x16
 3732 1337 85140000 		.4byte	.LASF447
 3733 133b 0240     		.2byte	0x4002
 3734 133d 16       		.uleb128 0x16
 3735 133e A63C0000 		.4byte	.LASF448
 3736 1342 0340     		.2byte	0x4003
 3737 1344 16       		.uleb128 0x16
 3738 1345 904B0000 		.4byte	.LASF449
 3739 1349 0440     		.2byte	0x4004
 3740 134b 16       		.uleb128 0x16
 3741 134c BF520000 		.4byte	.LASF450
 3742 1350 0540     		.2byte	0x4005
 3743 1352 16       		.uleb128 0x16
 3744 1353 9C450000 		.4byte	.LASF451
 3745 1357 0640     		.2byte	0x4006
 3746 1359 16       		.uleb128 0x16
 3747 135a 114A0000 		.4byte	.LASF452
 3748 135e 0740     		.2byte	0x4007
 3749 1360 16       		.uleb128 0x16
 3750 1361 C8510000 		.4byte	.LASF453
 3751 1365 0840     		.2byte	0x4008
 3752 1367 16       		.uleb128 0x16
 3753 1368 DD0E0000 		.4byte	.LASF454
 3754 136c 0940     		.2byte	0x4009
 3755 136e 16       		.uleb128 0x16
 3756 136f 233C0000 		.4byte	.LASF455
 3757 1373 0A40     		.2byte	0x400a
 3758 1375 16       		.uleb128 0x16
 3759 1376 DE220000 		.4byte	.LASF456
 3760 137a 0B40     		.2byte	0x400b
 3761 137c 16       		.uleb128 0x16
 3762 137d 653B0000 		.4byte	.LASF457
 3763 1381 0C40     		.2byte	0x400c
 3764 1383 16       		.uleb128 0x16
 3765 1384 ED500000 		.4byte	.LASF458
 3766 1388 0D40     		.2byte	0x400d
 3767 138a 16       		.uleb128 0x16
 3768 138b DC320000 		.4byte	.LASF459
 3769 138f 0E40     		.2byte	0x400e
 3770 1391 16       		.uleb128 0x16
 3771 1392 A31C0000 		.4byte	.LASF460
 3772 1396 0F40     		.2byte	0x400f
 3773 1398 16       		.uleb128 0x16
 3774 1399 37190000 		.4byte	.LASF461
 3775 139d 1040     		.2byte	0x4010
 3776 139f 16       		.uleb128 0x16
 3777 13a0 F5100000 		.4byte	.LASF462
 3778 13a4 1140     		.2byte	0x4011
 3779 13a6 16       		.uleb128 0x16
 3780 13a7 49420000 		.4byte	.LASF463
 3781 13ab 1240     		.2byte	0x4012
ARM GAS  C:\Users\hkmnt\AppData\Local\Temp\ccBdSSuH.s 			page 102


 3782 13ad 16       		.uleb128 0x16
 3783 13ae CC130000 		.4byte	.LASF464
 3784 13b2 1340     		.2byte	0x4013
 3785 13b4 16       		.uleb128 0x16
 3786 13b5 94560000 		.4byte	.LASF465
 3787 13b9 1440     		.2byte	0x4014
 3788 13bb 16       		.uleb128 0x16
 3789 13bc 7D3E0000 		.4byte	.LASF466
 3790 13c0 1540     		.2byte	0x4015
 3791 13c2 16       		.uleb128 0x16
 3792 13c3 5C090000 		.4byte	.LASF467
 3793 13c7 1640     		.2byte	0x4016
 3794 13c9 16       		.uleb128 0x16
 3795 13ca 9D510000 		.4byte	.LASF468
 3796 13ce 1740     		.2byte	0x4017
 3797 13d0 16       		.uleb128 0x16
 3798 13d1 7E2F0000 		.4byte	.LASF469
 3799 13d5 1840     		.2byte	0x4018
 3800 13d7 16       		.uleb128 0x16
 3801 13d8 75520000 		.4byte	.LASF470
 3802 13dc 1940     		.2byte	0x4019
 3803 13de 16       		.uleb128 0x16
 3804 13df 01400000 		.4byte	.LASF471
 3805 13e3 1A40     		.2byte	0x401a
 3806 13e5 16       		.uleb128 0x16
 3807 13e6 D2290000 		.4byte	.LASF472
 3808 13ea 0050     		.2byte	0x5000
 3809 13ec 16       		.uleb128 0x16
 3810 13ed 17340000 		.4byte	.LASF473
 3811 13f1 0150     		.2byte	0x5001
 3812 13f3 16       		.uleb128 0x16
 3813 13f4 56250000 		.4byte	.LASF474
 3814 13f8 0250     		.2byte	0x5002
 3815 13fa 16       		.uleb128 0x16
 3816 13fb 210C0000 		.4byte	.LASF475
 3817 13ff 0350     		.2byte	0x5003
 3818 1401 16       		.uleb128 0x16
 3819 1402 9C2C0000 		.4byte	.LASF476
 3820 1406 0450     		.2byte	0x5004
 3821 1408 16       		.uleb128 0x16
 3822 1409 40220000 		.4byte	.LASF477
 3823 140d 0550     		.2byte	0x5005
 3824 140f 16       		.uleb128 0x16
 3825 1410 7A220000 		.4byte	.LASF478
 3826 1414 0650     		.2byte	0x5006
 3827 1416 16       		.uleb128 0x16
 3828 1417 49140000 		.4byte	.LASF479
 3829 141b 0750     		.2byte	0x5007
 3830 141d 16       		.uleb128 0x16
 3831 141e A0260000 		.4byte	.LASF480
 3832 1422 0850     		.2byte	0x5008
 3833 1424 16       		.uleb128 0x16
 3834 1425 53270000 		.4byte	.LASF481
 3835 1429 0950     		.2byte	0x5009
 3836 142b 16       		.uleb128 0x16
 3837 142c 12440000 		.4byte	.LASF482
 3838 1430 0A50     		.2byte	0x500a
ARM GAS  C:\Users\hkmnt\AppData\Local\Temp\ccBdSSuH.s 			page 103


 3839 1432 16       		.uleb128 0x16
 3840 1433 FF2A0000 		.4byte	.LASF483
 3841 1437 0B50     		.2byte	0x500b
 3842 1439 16       		.uleb128 0x16
 3843 143a 180D0000 		.4byte	.LASF484
 3844 143e 0C50     		.2byte	0x500c
 3845 1440 16       		.uleb128 0x16
 3846 1441 F11A0000 		.4byte	.LASF485
 3847 1445 0D50     		.2byte	0x500d
 3848 1447 16       		.uleb128 0x16
 3849 1448 50360000 		.4byte	.LASF486
 3850 144c 0E50     		.2byte	0x500e
 3851 144e 16       		.uleb128 0x16
 3852 144f 53030000 		.4byte	.LASF487
 3853 1453 0F50     		.2byte	0x500f
 3854 1455 16       		.uleb128 0x16
 3855 1456 10390000 		.4byte	.LASF488
 3856 145a 1050     		.2byte	0x5010
 3857 145c 16       		.uleb128 0x16
 3858 145d 01090000 		.4byte	.LASF489
 3859 1461 1150     		.2byte	0x5011
 3860 1463 16       		.uleb128 0x16
 3861 1464 6C150000 		.4byte	.LASF490
 3862 1468 1250     		.2byte	0x5012
 3863 146a 16       		.uleb128 0x16
 3864 146b 700B0000 		.4byte	.LASF491
 3865 146f 1350     		.2byte	0x5013
 3866 1471 16       		.uleb128 0x16
 3867 1472 76120000 		.4byte	.LASF492
 3868 1476 1450     		.2byte	0x5014
 3869 1478 16       		.uleb128 0x16
 3870 1479 E6490000 		.4byte	.LASF493
 3871 147d 1550     		.2byte	0x5015
 3872 147f 16       		.uleb128 0x16
 3873 1480 A3160000 		.4byte	.LASF494
 3874 1484 1650     		.2byte	0x5016
 3875 1486 16       		.uleb128 0x16
 3876 1487 67460000 		.4byte	.LASF495
 3877 148b 1750     		.2byte	0x5017
 3878 148d 16       		.uleb128 0x16
 3879 148e F4090000 		.4byte	.LASF496
 3880 1492 1850     		.2byte	0x5018
 3881 1494 16       		.uleb128 0x16
 3882 1495 71190000 		.4byte	.LASF497
 3883 1499 0060     		.2byte	0x6000
 3884 149b 16       		.uleb128 0x16
 3885 149c 6D070000 		.4byte	.LASF498
 3886 14a0 0160     		.2byte	0x6001
 3887 14a2 16       		.uleb128 0x16
 3888 14a3 AE240000 		.4byte	.LASF499
 3889 14a7 0260     		.2byte	0x6002
 3890 14a9 16       		.uleb128 0x16
 3891 14aa A2200000 		.4byte	.LASF500
 3892 14ae 0360     		.2byte	0x6003
 3893 14b0 16       		.uleb128 0x16
 3894 14b1 4B0A0000 		.4byte	.LASF501
 3895 14b5 0460     		.2byte	0x6004
ARM GAS  C:\Users\hkmnt\AppData\Local\Temp\ccBdSSuH.s 			page 104


 3896 14b7 16       		.uleb128 0x16
 3897 14b8 5F3C0000 		.4byte	.LASF502
 3898 14bc 0560     		.2byte	0x6005
 3899 14be 16       		.uleb128 0x16
 3900 14bf 2C2B0000 		.4byte	.LASF503
 3901 14c3 0660     		.2byte	0x6006
 3902 14c5 16       		.uleb128 0x16
 3903 14c6 E0160000 		.4byte	.LASF504
 3904 14ca 0760     		.2byte	0x6007
 3905 14cc 16       		.uleb128 0x16
 3906 14cd 52120000 		.4byte	.LASF505
 3907 14d1 0860     		.2byte	0x6008
 3908 14d3 16       		.uleb128 0x16
 3909 14d4 76010000 		.4byte	.LASF506
 3910 14d8 0960     		.2byte	0x6009
 3911 14da 16       		.uleb128 0x16
 3912 14db C2400000 		.4byte	.LASF507
 3913 14df 0A60     		.2byte	0x600a
 3914 14e1 16       		.uleb128 0x16
 3915 14e2 FE440000 		.4byte	.LASF508
 3916 14e6 FFFF     		.2byte	0xffff
 3917 14e8 00       		.byte	0
 3918 14e9 12       		.uleb128 0x12
 3919 14ea FF530000 		.4byte	.LASF509
 3920 14ee 0B       		.byte	0xb
 3921 14ef D604     		.2byte	0x4d6
 3922 14f1 A9110000 		.4byte	0x11a9
 3923 14f5 15       		.uleb128 0x15
 3924 14f6 04       		.byte	0x4
 3925 14f7 2C000000 		.4byte	0x2c
 3926 14fb 0B       		.byte	0xb
 3927 14fc E004     		.2byte	0x4e0
 3928 14fe 0E160000 		.4byte	0x160e
 3929 1502 11       		.uleb128 0x11
 3930 1503 EB510000 		.4byte	.LASF510
 3931 1507 00       		.byte	0
 3932 1508 17       		.uleb128 0x17
 3933 1509 B1030000 		.4byte	.LASF511
 3934 150d 01001400 		.4byte	0x140001
 3935 1511 17       		.uleb128 0x17
 3936 1512 D8460000 		.4byte	.LASF512
 3937 1516 01001600 		.4byte	0x160001
 3938 151a 17       		.uleb128 0x17
 3939 151b 7D230000 		.4byte	.LASF513
 3940 151f 02001600 		.4byte	0x160002
 3941 1523 17       		.uleb128 0x17
 3942 1524 24310000 		.4byte	.LASF514
 3943 1528 03001600 		.4byte	0x160003
 3944 152c 17       		.uleb128 0x17
 3945 152d D42F0000 		.4byte	.LASF515
 3946 1531 04001600 		.4byte	0x160004
 3947 1535 17       		.uleb128 0x17
 3948 1536 4C560000 		.4byte	.LASF516
 3949 153a 05001600 		.4byte	0x160005
 3950 153e 17       		.uleb128 0x17
 3951 153f FF2C0000 		.4byte	.LASF517
 3952 1543 06001600 		.4byte	0x160006
ARM GAS  C:\Users\hkmnt\AppData\Local\Temp\ccBdSSuH.s 			page 105


 3953 1547 17       		.uleb128 0x17
 3954 1548 BA460000 		.4byte	.LASF518
 3955 154c 07001600 		.4byte	0x160007
 3956 1550 17       		.uleb128 0x17
 3957 1551 0D460000 		.4byte	.LASF519
 3958 1555 08001600 		.4byte	0x160008
 3959 1559 17       		.uleb128 0x17
 3960 155a FE000000 		.4byte	.LASF520
 3961 155e 09001600 		.4byte	0x160009
 3962 1562 17       		.uleb128 0x17
 3963 1563 DB4A0000 		.4byte	.LASF521
 3964 1567 0A001600 		.4byte	0x16000a
 3965 156b 17       		.uleb128 0x17
 3966 156c 8B1C0000 		.4byte	.LASF522
 3967 1570 0B001600 		.4byte	0x16000b
 3968 1574 17       		.uleb128 0x17
 3969 1575 96370000 		.4byte	.LASF523
 3970 1579 0C001600 		.4byte	0x16000c
 3971 157d 17       		.uleb128 0x17
 3972 157e 083A0000 		.4byte	.LASF524
 3973 1582 0D001600 		.4byte	0x16000d
 3974 1586 17       		.uleb128 0x17
 3975 1587 834E0000 		.4byte	.LASF525
 3976 158b 0E001600 		.4byte	0x16000e
 3977 158f 17       		.uleb128 0x17
 3978 1590 6D2C0000 		.4byte	.LASF526
 3979 1594 0F001600 		.4byte	0x16000f
 3980 1598 17       		.uleb128 0x17
 3981 1599 58390000 		.4byte	.LASF527
 3982 159d 10001600 		.4byte	0x160010
 3983 15a1 17       		.uleb128 0x17
 3984 15a2 EA230000 		.4byte	.LASF528
 3985 15a6 11001600 		.4byte	0x160011
 3986 15aa 17       		.uleb128 0x17
 3987 15ab 10180000 		.4byte	.LASF529
 3988 15af 12001600 		.4byte	0x160012
 3989 15b3 17       		.uleb128 0x17
 3990 15b4 6C020000 		.4byte	.LASF530
 3991 15b8 13001600 		.4byte	0x160013
 3992 15bc 17       		.uleb128 0x17
 3993 15bd 0F1F0000 		.4byte	.LASF531
 3994 15c1 14001600 		.4byte	0x160014
 3995 15c5 17       		.uleb128 0x17
 3996 15c6 371D0000 		.4byte	.LASF532
 3997 15ca 15001600 		.4byte	0x160015
 3998 15ce 17       		.uleb128 0x17
 3999 15cf DF4B0000 		.4byte	.LASF533
 4000 15d3 16001600 		.4byte	0x160016
 4001 15d7 17       		.uleb128 0x17
 4002 15d8 F6270000 		.4byte	.LASF534
 4003 15dc 17001600 		.4byte	0x160017
 4004 15e0 17       		.uleb128 0x17
 4005 15e1 DC270000 		.4byte	.LASF535
 4006 15e5 18001600 		.4byte	0x160018
 4007 15e9 17       		.uleb128 0x17
 4008 15ea AD100000 		.4byte	.LASF536
 4009 15ee 19001600 		.4byte	0x160019
ARM GAS  C:\Users\hkmnt\AppData\Local\Temp\ccBdSSuH.s 			page 106


 4010 15f2 17       		.uleb128 0x17
 4011 15f3 9E310000 		.4byte	.LASF537
 4012 15f7 FE001600 		.4byte	0x1600fe
 4013 15fb 17       		.uleb128 0x17
 4014 15fc 18150000 		.4byte	.LASF538
 4015 1600 FF001600 		.4byte	0x1600ff
 4016 1604 17       		.uleb128 0x17
 4017 1605 8D310000 		.4byte	.LASF539
 4018 1609 FFFF1600 		.4byte	0x16ffff
 4019 160d 00       		.byte	0
 4020 160e 12       		.uleb128 0x12
 4021 160f 46170000 		.4byte	.LASF540
 4022 1613 0B       		.byte	0xb
 4023 1614 4305     		.2byte	0x543
 4024 1616 F5140000 		.4byte	0x14f5
 4025 161a 13       		.uleb128 0x13
 4026 161b 07       		.byte	0x7
 4027 161c 0B       		.byte	0xb
 4028 161d 6105     		.2byte	0x561
 4029 161f 3E160000 		.4byte	0x163e
 4030 1623 14       		.uleb128 0x14
 4031 1624 6E4B0000 		.4byte	.LASF541
 4032 1628 0B       		.byte	0xb
 4033 1629 6405     		.2byte	0x564
 4034 162b 3E160000 		.4byte	0x163e
 4035 162f 00       		.byte	0
 4036 1630 14       		.uleb128 0x14
 4037 1631 12080000 		.4byte	.LASF542
 4038 1635 0B       		.byte	0xb
 4039 1636 6705     		.2byte	0x567
 4040 1638 B9000000 		.4byte	0xb9
 4041 163c 06       		.byte	0x6
 4042 163d 00       		.byte	0
 4043 163e 08       		.uleb128 0x8
 4044 163f B9000000 		.4byte	0xb9
 4045 1643 4E160000 		.4byte	0x164e
 4046 1647 09       		.uleb128 0x9
 4047 1648 A9000000 		.4byte	0xa9
 4048 164c 05       		.byte	0x5
 4049 164d 00       		.byte	0
 4050 164e 12       		.uleb128 0x12
 4051 164f 86530000 		.4byte	.LASF543
 4052 1653 0B       		.byte	0xb
 4053 1654 6905     		.2byte	0x569
 4054 1656 1A160000 		.4byte	0x161a
 4055 165a 13       		.uleb128 0x13
 4056 165b 22       		.byte	0x22
 4057 165c 0B       		.byte	0xb
 4058 165d B305     		.2byte	0x5b3
 4059 165f A5160000 		.4byte	0x16a5
 4060 1663 14       		.uleb128 0x14
 4061 1664 CC490000 		.4byte	.LASF544
 4062 1668 0B       		.byte	0xb
 4063 1669 C205     		.2byte	0x5c2
 4064 166b A5160000 		.4byte	0x16a5
 4065 166f 00       		.byte	0
 4066 1670 14       		.uleb128 0x14
ARM GAS  C:\Users\hkmnt\AppData\Local\Temp\ccBdSSuH.s 			page 107


 4067 1671 2A290000 		.4byte	.LASF545
 4068 1675 0B       		.byte	0xb
 4069 1676 D505     		.2byte	0x5d5
 4070 1678 B5160000 		.4byte	0x16b5
 4071 167c 08       		.byte	0x8
 4072 167d 14       		.uleb128 0x14
 4073 167e 23050000 		.4byte	.LASF546
 4074 1682 0B       		.byte	0xb
 4075 1683 DB05     		.2byte	0x5db
 4076 1685 B9000000 		.4byte	0xb9
 4077 1689 16       		.byte	0x16
 4078 168a 14       		.uleb128 0x14
 4079 168b 32160000 		.4byte	.LASF547
 4080 168f 0B       		.byte	0xb
 4081 1690 E105     		.2byte	0x5e1
 4082 1692 CF000000 		.4byte	0xcf
 4083 1696 18       		.byte	0x18
 4084 1697 14       		.uleb128 0x14
 4085 1698 19370000 		.4byte	.LASF548
 4086 169c 0B       		.byte	0xb
 4087 169d F005     		.2byte	0x5f0
 4088 169f A5160000 		.4byte	0x16a5
 4089 16a3 1A       		.byte	0x1a
 4090 16a4 00       		.byte	0
 4091 16a5 08       		.uleb128 0x8
 4092 16a6 CF000000 		.4byte	0xcf
 4093 16aa B5160000 		.4byte	0x16b5
 4094 16ae 09       		.uleb128 0x9
 4095 16af A9000000 		.4byte	0xa9
 4096 16b3 03       		.byte	0x3
 4097 16b4 00       		.byte	0
 4098 16b5 08       		.uleb128 0x8
 4099 16b6 CF000000 		.4byte	0xcf
 4100 16ba C5160000 		.4byte	0x16c5
 4101 16be 09       		.uleb128 0x9
 4102 16bf A9000000 		.4byte	0xa9
 4103 16c3 06       		.byte	0x6
 4104 16c4 00       		.byte	0
 4105 16c5 12       		.uleb128 0x12
 4106 16c6 504B0000 		.4byte	.LASF549
 4107 16ca 0B       		.byte	0xb
 4108 16cb F205     		.2byte	0x5f2
 4109 16cd 5A160000 		.4byte	0x165a
 4110 16d1 18       		.uleb128 0x18
 4111 16d2 04       		.byte	0x4
 4112 16d3 B9000000 		.4byte	0xb9
 4113 16d7 15       		.uleb128 0x15
 4114 16d8 01       		.byte	0x1
 4115 16d9 41000000 		.4byte	0x41
 4116 16dd 0B       		.byte	0xb
 4117 16de 7B06     		.2byte	0x67b
 4118 16e0 09170000 		.4byte	0x1709
 4119 16e4 10       		.uleb128 0x10
 4120 16e5 A5360000 		.4byte	.LASF550
 4121 16e9 6C       		.sleb128 -20
 4122 16ea 10       		.uleb128 0x10
 4123 16eb 5D4E0000 		.4byte	.LASF551
ARM GAS  C:\Users\hkmnt\AppData\Local\Temp\ccBdSSuH.s 			page 108


 4124 16ef 70       		.sleb128 -16
 4125 16f0 10       		.uleb128 0x10
 4126 16f1 C73D0000 		.4byte	.LASF552
 4127 16f5 74       		.sleb128 -12
 4128 16f6 10       		.uleb128 0x10
 4129 16f7 76100000 		.4byte	.LASF553
 4130 16fb 7A       		.sleb128 -6
 4131 16fc 11       		.uleb128 0x11
 4132 16fd D91A0000 		.4byte	.LASF554
 4133 1701 00       		.byte	0
 4134 1702 11       		.uleb128 0x11
 4135 1703 CB2C0000 		.4byte	.LASF555
 4136 1707 04       		.byte	0x4
 4137 1708 00       		.byte	0
 4138 1709 12       		.uleb128 0x12
 4139 170a 73030000 		.4byte	.LASF556
 4140 170e 0B       		.byte	0xb
 4141 170f 8E06     		.2byte	0x68e
 4142 1711 D7160000 		.4byte	0x16d7
 4143 1715 15       		.uleb128 0x15
 4144 1716 01       		.byte	0x1
 4145 1717 53000000 		.4byte	0x53
 4146 171b 0B       		.byte	0xb
 4147 171c 9206     		.2byte	0x692
 4148 171e 35170000 		.4byte	0x1735
 4149 1722 11       		.uleb128 0x11
 4150 1723 8B4C0000 		.4byte	.LASF557
 4151 1727 00       		.byte	0
 4152 1728 11       		.uleb128 0x11
 4153 1729 6E1F0000 		.4byte	.LASF558
 4154 172d 01       		.byte	0x1
 4155 172e 11       		.uleb128 0x11
 4156 172f 1E4F0000 		.4byte	.LASF559
 4157 1733 02       		.byte	0x2
 4158 1734 00       		.byte	0
 4159 1735 12       		.uleb128 0x12
 4160 1736 69260000 		.4byte	.LASF560
 4161 173a 0B       		.byte	0xb
 4162 173b 9C06     		.2byte	0x69c
 4163 173d 15170000 		.4byte	0x1715
 4164 1741 15       		.uleb128 0x15
 4165 1742 01       		.byte	0x1
 4166 1743 53000000 		.4byte	0x53
 4167 1747 0C       		.byte	0xc
 4168 1748 0C01     		.2byte	0x10c
 4169 174a 67170000 		.4byte	0x1767
 4170 174e 11       		.uleb128 0x11
 4171 174f CB240000 		.4byte	.LASF561
 4172 1753 01       		.byte	0x1
 4173 1754 11       		.uleb128 0x11
 4174 1755 2A4E0000 		.4byte	.LASF562
 4175 1759 02       		.byte	0x2
 4176 175a 11       		.uleb128 0x11
 4177 175b 5D0B0000 		.4byte	.LASF563
 4178 175f 03       		.byte	0x3
 4179 1760 11       		.uleb128 0x11
 4180 1761 052F0000 		.4byte	.LASF564
ARM GAS  C:\Users\hkmnt\AppData\Local\Temp\ccBdSSuH.s 			page 109


 4181 1765 04       		.byte	0x4
 4182 1766 00       		.byte	0
 4183 1767 12       		.uleb128 0x12
 4184 1768 4B2F0000 		.4byte	.LASF565
 4185 176c 0C       		.byte	0xc
 4186 176d 1901     		.2byte	0x119
 4187 176f 41170000 		.4byte	0x1741
 4188 1773 15       		.uleb128 0x15
 4189 1774 01       		.byte	0x1
 4190 1775 53000000 		.4byte	0x53
 4191 1779 0C       		.byte	0xc
 4192 177a 1D01     		.2byte	0x11d
 4193 177c 8D170000 		.4byte	0x178d
 4194 1780 11       		.uleb128 0x11
 4195 1781 58100000 		.4byte	.LASF566
 4196 1785 00       		.byte	0
 4197 1786 11       		.uleb128 0x11
 4198 1787 C22B0000 		.4byte	.LASF567
 4199 178b 01       		.byte	0x1
 4200 178c 00       		.byte	0
 4201 178d 12       		.uleb128 0x12
 4202 178e A92B0000 		.4byte	.LASF568
 4203 1792 0C       		.byte	0xc
 4204 1793 2401     		.2byte	0x124
 4205 1795 73170000 		.4byte	0x1773
 4206 1799 13       		.uleb128 0x13
 4207 179a 02       		.byte	0x2
 4208 179b 0C       		.byte	0xc
 4209 179c 6401     		.2byte	0x164
 4210 179e BD170000 		.4byte	0x17bd
 4211 17a2 14       		.uleb128 0x14
 4212 17a3 D4300000 		.4byte	.LASF569
 4213 17a7 0C       		.byte	0xc
 4214 17a8 6E01     		.2byte	0x16e
 4215 17aa B9000000 		.4byte	0xb9
 4216 17ae 00       		.byte	0
 4217 17af 14       		.uleb128 0x14
 4218 17b0 F9530000 		.4byte	.LASF570
 4219 17b4 0C       		.byte	0xc
 4220 17b5 7201     		.2byte	0x172
 4221 17b7 B9000000 		.4byte	0xb9
 4222 17bb 01       		.byte	0x1
 4223 17bc 00       		.byte	0
 4224 17bd 12       		.uleb128 0x12
 4225 17be 6A450000 		.4byte	.LASF571
 4226 17c2 0C       		.byte	0xc
 4227 17c3 7401     		.2byte	0x174
 4228 17c5 99170000 		.4byte	0x1799
 4229 17c9 13       		.uleb128 0x13
 4230 17ca 02       		.byte	0x2
 4231 17cb 0C       		.byte	0xc
 4232 17cc 9B01     		.2byte	0x19b
 4233 17ce ED170000 		.4byte	0x17ed
 4234 17d2 14       		.uleb128 0x14
 4235 17d3 AC0F0000 		.4byte	.LASF572
 4236 17d7 0C       		.byte	0xc
 4237 17d8 9E01     		.2byte	0x19e
ARM GAS  C:\Users\hkmnt\AppData\Local\Temp\ccBdSSuH.s 			page 110


 4238 17da 35170000 		.4byte	0x1735
 4239 17de 00       		.byte	0
 4240 17df 14       		.uleb128 0x14
 4241 17e0 D4300000 		.4byte	.LASF569
 4242 17e4 0C       		.byte	0xc
 4243 17e5 A101     		.2byte	0x1a1
 4244 17e7 B9000000 		.4byte	0xb9
 4245 17eb 01       		.byte	0x1
 4246 17ec 00       		.byte	0
 4247 17ed 12       		.uleb128 0x12
 4248 17ee C9230000 		.4byte	.LASF573
 4249 17f2 0C       		.byte	0xc
 4250 17f3 A301     		.2byte	0x1a3
 4251 17f5 C9170000 		.4byte	0x17c9
 4252 17f9 13       		.uleb128 0x13
 4253 17fa 03       		.byte	0x3
 4254 17fb 0C       		.byte	0xc
 4255 17fc A601     		.2byte	0x1a6
 4256 17fe 1D180000 		.4byte	0x181d
 4257 1802 14       		.uleb128 0x14
 4258 1803 700D0000 		.4byte	.LASF574
 4259 1807 0C       		.byte	0xc
 4260 1808 A901     		.2byte	0x1a9
 4261 180a 09170000 		.4byte	0x1709
 4262 180e 00       		.byte	0
 4263 180f 14       		.uleb128 0x14
 4264 1810 EA0A0000 		.4byte	.LASF575
 4265 1814 0C       		.byte	0xc
 4266 1815 AC01     		.2byte	0x1ac
 4267 1817 ED170000 		.4byte	0x17ed
 4268 181b 01       		.byte	0x1
 4269 181c 00       		.byte	0
 4270 181d 12       		.uleb128 0x12
 4271 181e 68140000 		.4byte	.LASF576
 4272 1822 0C       		.byte	0xc
 4273 1823 AE01     		.2byte	0x1ae
 4274 1825 F9170000 		.4byte	0x17f9
 4275 1829 13       		.uleb128 0x13
 4276 182a 0C       		.byte	0xc
 4277 182b 0C       		.byte	0xc
 4278 182c EE02     		.2byte	0x2ee
 4279 182e 67180000 		.4byte	0x1867
 4280 1832 14       		.uleb128 0x14
 4281 1833 F8020000 		.4byte	.LASF577
 4282 1837 0C       		.byte	0xc
 4283 1838 F102     		.2byte	0x2f1
 4284 183a 8D170000 		.4byte	0x178d
 4285 183e 00       		.byte	0
 4286 183f 14       		.uleb128 0x14
 4287 1840 D5150000 		.4byte	.LASF578
 4288 1844 0C       		.byte	0xc
 4289 1845 F902     		.2byte	0x2f9
 4290 1847 B0000000 		.4byte	0xb0
 4291 184b 04       		.byte	0x4
 4292 184c 14       		.uleb128 0x14
 4293 184d A3210000 		.4byte	.LASF579
 4294 1851 0C       		.byte	0xc
ARM GAS  C:\Users\hkmnt\AppData\Local\Temp\ccBdSSuH.s 			page 111


 4295 1852 FE02     		.2byte	0x2fe
 4296 1854 B9000000 		.4byte	0xb9
 4297 1858 08       		.byte	0x8
 4298 1859 14       		.uleb128 0x14
 4299 185a E0410000 		.4byte	.LASF580
 4300 185e 0C       		.byte	0xc
 4301 185f 0103     		.2byte	0x301
 4302 1861 BD170000 		.4byte	0x17bd
 4303 1865 09       		.byte	0x9
 4304 1866 00       		.byte	0
 4305 1867 12       		.uleb128 0x12
 4306 1868 CF2D0000 		.4byte	.LASF581
 4307 186c 0C       		.byte	0xc
 4308 186d 0303     		.2byte	0x303
 4309 186f 29180000 		.4byte	0x1829
 4310 1873 19       		.uleb128 0x19
 4311 1874 02       		.byte	0x2
 4312 1875 0C       		.byte	0xc
 4313 1876 1B03     		.2byte	0x31b
 4314 1878 95180000 		.4byte	0x1895
 4315 187c 1A       		.uleb128 0x1a
 4316 187d E0410000 		.4byte	.LASF580
 4317 1881 0C       		.byte	0xc
 4318 1882 1E03     		.2byte	0x31e
 4319 1884 BD170000 		.4byte	0x17bd
 4320 1888 1A       		.uleb128 0x1a
 4321 1889 D4300000 		.4byte	.LASF569
 4322 188d 0C       		.byte	0xc
 4323 188e 2103     		.2byte	0x321
 4324 1890 B9000000 		.4byte	0xb9
 4325 1894 00       		.byte	0
 4326 1895 13       		.uleb128 0x13
 4327 1896 04       		.byte	0x4
 4328 1897 0C       		.byte	0xc
 4329 1898 1503     		.2byte	0x315
 4330 189a C6180000 		.4byte	0x18c6
 4331 189e 14       		.uleb128 0x14
 4332 189f B1380000 		.4byte	.LASF582
 4333 18a3 0C       		.byte	0xc
 4334 18a4 1803     		.2byte	0x318
 4335 18a6 67170000 		.4byte	0x1767
 4336 18aa 00       		.byte	0
 4337 18ab 14       		.uleb128 0x14
 4338 18ac 36300000 		.4byte	.LASF583
 4339 18b0 0C       		.byte	0xc
 4340 18b1 2303     		.2byte	0x323
 4341 18b3 73180000 		.4byte	0x1873
 4342 18b7 01       		.byte	0x1
 4343 18b8 14       		.uleb128 0x14
 4344 18b9 EA370000 		.4byte	.LASF584
 4345 18bd 0C       		.byte	0xc
 4346 18be 2603     		.2byte	0x326
 4347 18c0 B9000000 		.4byte	0xb9
 4348 18c4 03       		.byte	0x3
 4349 18c5 00       		.byte	0
 4350 18c6 12       		.uleb128 0x12
 4351 18c7 83130000 		.4byte	.LASF585
ARM GAS  C:\Users\hkmnt\AppData\Local\Temp\ccBdSSuH.s 			page 112


 4352 18cb 0C       		.byte	0xc
 4353 18cc 2803     		.2byte	0x328
 4354 18ce 95180000 		.4byte	0x1895
 4355 18d2 0F       		.uleb128 0xf
 4356 18d3 01       		.byte	0x1
 4357 18d4 53000000 		.4byte	0x53
 4358 18d8 0D       		.byte	0xd
 4359 18d9 4E       		.byte	0x4e
 4360 18da 8D190000 		.4byte	0x198d
 4361 18de 11       		.uleb128 0x11
 4362 18df C31A0000 		.4byte	.LASF586
 4363 18e3 01       		.byte	0x1
 4364 18e4 11       		.uleb128 0x11
 4365 18e5 A10A0000 		.4byte	.LASF587
 4366 18e9 02       		.byte	0x2
 4367 18ea 11       		.uleb128 0x11
 4368 18eb 6E550000 		.4byte	.LASF588
 4369 18ef 03       		.byte	0x3
 4370 18f0 11       		.uleb128 0x11
 4371 18f1 D3360000 		.4byte	.LASF589
 4372 18f5 04       		.byte	0x4
 4373 18f6 11       		.uleb128 0x11
 4374 18f7 0C2C0000 		.4byte	.LASF590
 4375 18fb 05       		.byte	0x5
 4376 18fc 11       		.uleb128 0x11
 4377 18fd F0340000 		.4byte	.LASF591
 4378 1901 06       		.byte	0x6
 4379 1902 11       		.uleb128 0x11
 4380 1903 C5050000 		.4byte	.LASF592
 4381 1907 07       		.byte	0x7
 4382 1908 11       		.uleb128 0x11
 4383 1909 384C0000 		.4byte	.LASF593
 4384 190d 08       		.byte	0x8
 4385 190e 11       		.uleb128 0x11
 4386 190f 221C0000 		.4byte	.LASF594
 4387 1913 09       		.byte	0x9
 4388 1914 11       		.uleb128 0x11
 4389 1915 143D0000 		.4byte	.LASF595
 4390 1919 0A       		.byte	0xa
 4391 191a 11       		.uleb128 0x11
 4392 191b 400C0000 		.4byte	.LASF596
 4393 191f 0B       		.byte	0xb
 4394 1920 11       		.uleb128 0x11
 4395 1921 01330000 		.4byte	.LASF597
 4396 1925 0C       		.byte	0xc
 4397 1926 11       		.uleb128 0x11
 4398 1927 39030000 		.4byte	.LASF598
 4399 192b 0D       		.byte	0xd
 4400 192c 11       		.uleb128 0x11
 4401 192d FA0B0000 		.4byte	.LASF599
 4402 1931 0E       		.byte	0xe
 4403 1932 11       		.uleb128 0x11
 4404 1933 25350000 		.4byte	.LASF600
 4405 1937 0F       		.byte	0xf
 4406 1938 11       		.uleb128 0x11
 4407 1939 56280000 		.4byte	.LASF601
 4408 193d 10       		.byte	0x10
ARM GAS  C:\Users\hkmnt\AppData\Local\Temp\ccBdSSuH.s 			page 113


 4409 193e 11       		.uleb128 0x11
 4410 193f 28500000 		.4byte	.LASF602
 4411 1943 11       		.byte	0x11
 4412 1944 11       		.uleb128 0x11
 4413 1945 39470000 		.4byte	.LASF603
 4414 1949 12       		.byte	0x12
 4415 194a 11       		.uleb128 0x11
 4416 194b 0D170000 		.4byte	.LASF604
 4417 194f 13       		.byte	0x13
 4418 1950 11       		.uleb128 0x11
 4419 1951 32040000 		.4byte	.LASF605
 4420 1955 52       		.byte	0x52
 4421 1956 11       		.uleb128 0x11
 4422 1957 BB310000 		.4byte	.LASF606
 4423 195b 16       		.byte	0x16
 4424 195c 11       		.uleb128 0x11
 4425 195d B12D0000 		.4byte	.LASF607
 4426 1961 17       		.byte	0x17
 4427 1962 11       		.uleb128 0x11
 4428 1963 A0300000 		.4byte	.LASF608
 4429 1967 18       		.byte	0x18
 4430 1968 11       		.uleb128 0x11
 4431 1969 83270000 		.4byte	.LASF609
 4432 196d 19       		.byte	0x19
 4433 196e 11       		.uleb128 0x11
 4434 196f EE3A0000 		.4byte	.LASF610
 4435 1973 1B       		.byte	0x1b
 4436 1974 11       		.uleb128 0x11
 4437 1975 BA280000 		.4byte	.LASF611
 4438 1979 1D       		.byte	0x1d
 4439 197a 11       		.uleb128 0x11
 4440 197b 15160000 		.4byte	.LASF612
 4441 197f 1E       		.byte	0x1e
 4442 1980 11       		.uleb128 0x11
 4443 1981 8C2B0000 		.4byte	.LASF613
 4444 1985 D2       		.byte	0xd2
 4445 1986 11       		.uleb128 0x11
 4446 1987 8E150000 		.4byte	.LASF614
 4447 198b FF       		.byte	0xff
 4448 198c 00       		.byte	0
 4449 198d 04       		.uleb128 0x4
 4450 198e C3190000 		.4byte	.LASF615
 4451 1992 0D       		.byte	0xd
 4452 1993 A6       		.byte	0xa6
 4453 1994 D2180000 		.4byte	0x18d2
 4454 1998 0F       		.uleb128 0xf
 4455 1999 01       		.byte	0x1
 4456 199a 53000000 		.4byte	0x53
 4457 199e 0D       		.byte	0xd
 4458 199f AA       		.byte	0xaa
 4459 19a0 891A0000 		.4byte	0x1a89
 4460 19a4 11       		.uleb128 0x11
 4461 19a5 E8050000 		.4byte	.LASF616
 4462 19a9 00       		.byte	0
 4463 19aa 11       		.uleb128 0x11
 4464 19ab 1B0E0000 		.4byte	.LASF617
 4465 19af 01       		.byte	0x1
ARM GAS  C:\Users\hkmnt\AppData\Local\Temp\ccBdSSuH.s 			page 114


 4466 19b0 11       		.uleb128 0x11
 4467 19b1 29250000 		.4byte	.LASF618
 4468 19b5 02       		.byte	0x2
 4469 19b6 11       		.uleb128 0x11
 4470 19b7 FD050000 		.4byte	.LASF619
 4471 19bb 03       		.byte	0x3
 4472 19bc 11       		.uleb128 0x11
 4473 19bd 91400000 		.4byte	.LASF620
 4474 19c1 04       		.byte	0x4
 4475 19c2 11       		.uleb128 0x11
 4476 19c3 AF0C0000 		.4byte	.LASF621
 4477 19c7 05       		.byte	0x5
 4478 19c8 11       		.uleb128 0x11
 4479 19c9 48040000 		.4byte	.LASF622
 4480 19cd 06       		.byte	0x6
 4481 19ce 11       		.uleb128 0x11
 4482 19cf 2C0A0000 		.4byte	.LASF623
 4483 19d3 07       		.byte	0x7
 4484 19d4 11       		.uleb128 0x11
 4485 19d5 31260000 		.4byte	.LASF624
 4486 19d9 08       		.byte	0x8
 4487 19da 11       		.uleb128 0x11
 4488 19db 2A070000 		.4byte	.LASF625
 4489 19df 09       		.byte	0x9
 4490 19e0 11       		.uleb128 0x11
 4491 19e1 43410000 		.4byte	.LASF626
 4492 19e5 0A       		.byte	0xa
 4493 19e6 11       		.uleb128 0x11
 4494 19e7 BE110000 		.4byte	.LASF627
 4495 19eb 0B       		.byte	0xb
 4496 19ec 11       		.uleb128 0x11
 4497 19ed 12420000 		.4byte	.LASF628
 4498 19f1 0C       		.byte	0xc
 4499 19f2 11       		.uleb128 0x11
 4500 19f3 9C220000 		.4byte	.LASF629
 4501 19f7 0D       		.byte	0xd
 4502 19f8 11       		.uleb128 0x11
 4503 19f9 E9430000 		.4byte	.LASF630
 4504 19fd 0E       		.byte	0xe
 4505 19fe 11       		.uleb128 0x11
 4506 19ff B50B0000 		.4byte	.LASF631
 4507 1a03 0F       		.byte	0xf
 4508 1a04 11       		.uleb128 0x11
 4509 1a05 2C270000 		.4byte	.LASF632
 4510 1a09 10       		.byte	0x10
 4511 1a0a 11       		.uleb128 0x11
 4512 1a0b EA170000 		.4byte	.LASF633
 4513 1a0f 11       		.byte	0x11
 4514 1a10 11       		.uleb128 0x11
 4515 1a11 9D430000 		.4byte	.LASF634
 4516 1a15 80       		.byte	0x80
 4517 1a16 11       		.uleb128 0x11
 4518 1a17 0C020000 		.4byte	.LASF635
 4519 1a1b 80       		.byte	0x80
 4520 1a1c 11       		.uleb128 0x11
 4521 1a1d 5B500000 		.4byte	.LASF636
 4522 1a21 80       		.byte	0x80
ARM GAS  C:\Users\hkmnt\AppData\Local\Temp\ccBdSSuH.s 			page 115


 4523 1a22 11       		.uleb128 0x11
 4524 1a23 9E3B0000 		.4byte	.LASF637
 4525 1a27 80       		.byte	0x80
 4526 1a28 11       		.uleb128 0x11
 4527 1a29 303D0000 		.4byte	.LASF638
 4528 1a2d 80       		.byte	0x80
 4529 1a2e 11       		.uleb128 0x11
 4530 1a2f 70370000 		.4byte	.LASF639
 4531 1a33 80       		.byte	0x80
 4532 1a34 11       		.uleb128 0x11
 4533 1a35 89360000 		.4byte	.LASF640
 4534 1a39 80       		.byte	0x80
 4535 1a3a 11       		.uleb128 0x11
 4536 1a3b ED360000 		.4byte	.LASF641
 4537 1a3f 81       		.byte	0x81
 4538 1a40 11       		.uleb128 0x11
 4539 1a41 91480000 		.4byte	.LASF642
 4540 1a45 81       		.byte	0x81
 4541 1a46 11       		.uleb128 0x11
 4542 1a47 203E0000 		.4byte	.LASF643
 4543 1a4b 81       		.byte	0x81
 4544 1a4c 11       		.uleb128 0x11
 4545 1a4d 29370000 		.4byte	.LASF644
 4546 1a51 81       		.byte	0x81
 4547 1a52 11       		.uleb128 0x11
 4548 1a53 C7420000 		.4byte	.LASF645
 4549 1a57 82       		.byte	0x82
 4550 1a58 11       		.uleb128 0x11
 4551 1a59 7C0D0000 		.4byte	.LASF646
 4552 1a5d A0       		.byte	0xa0
 4553 1a5e 11       		.uleb128 0x11
 4554 1a5f 14230000 		.4byte	.LASF647
 4555 1a63 A0       		.byte	0xa0
 4556 1a64 11       		.uleb128 0x11
 4557 1a65 EF520000 		.4byte	.LASF648
 4558 1a69 A1       		.byte	0xa1
 4559 1a6a 11       		.uleb128 0x11
 4560 1a6b A34F0000 		.4byte	.LASF649
 4561 1a6f A2       		.byte	0xa2
 4562 1a70 11       		.uleb128 0x11
 4563 1a71 23170000 		.4byte	.LASF650
 4564 1a75 A3       		.byte	0xa3
 4565 1a76 11       		.uleb128 0x11
 4566 1a77 98190000 		.4byte	.LASF651
 4567 1a7b FD       		.byte	0xfd
 4568 1a7c 11       		.uleb128 0x11
 4569 1a7d 5E1B0000 		.4byte	.LASF652
 4570 1a81 FE       		.byte	0xfe
 4571 1a82 11       		.uleb128 0x11
 4572 1a83 E94C0000 		.4byte	.LASF653
 4573 1a87 FF       		.byte	0xff
 4574 1a88 00       		.byte	0
 4575 1a89 12       		.uleb128 0x12
 4576 1a8a 0A310000 		.4byte	.LASF654
 4577 1a8e 0D       		.byte	0xd
 4578 1a8f 6101     		.2byte	0x161
 4579 1a91 98190000 		.4byte	0x1998
ARM GAS  C:\Users\hkmnt\AppData\Local\Temp\ccBdSSuH.s 			page 116


 4580 1a95 12       		.uleb128 0x12
 4581 1a96 E1110000 		.4byte	.LASF655
 4582 1a9a 0D       		.byte	0xd
 4583 1a9b 7F01     		.2byte	0x17f
 4584 1a9d CF000000 		.4byte	0xcf
 4585 1aa1 13       		.uleb128 0x13
 4586 1aa2 08       		.byte	0x8
 4587 1aa3 0D       		.byte	0xd
 4588 1aa4 9401     		.2byte	0x194
 4589 1aa6 D21A0000 		.4byte	0x1ad2
 4590 1aaa 1B       		.uleb128 0x1b
 4591 1aab 76616C00 		.ascii	"val\000"
 4592 1aaf 0D       		.byte	0xd
 4593 1ab0 9701     		.2byte	0x197
 4594 1ab2 D1160000 		.4byte	0x16d1
 4595 1ab6 00       		.byte	0
 4596 1ab7 1B       		.uleb128 0x1b
 4597 1ab8 6C656E00 		.ascii	"len\000"
 4598 1abc 0D       		.byte	0xd
 4599 1abd 9A01     		.2byte	0x19a
 4600 1abf CF000000 		.4byte	0xcf
 4601 1ac3 04       		.byte	0x4
 4602 1ac4 14       		.uleb128 0x14
 4603 1ac5 DA520000 		.4byte	.LASF656
 4604 1ac9 0D       		.byte	0xd
 4605 1aca A101     		.2byte	0x1a1
 4606 1acc CF000000 		.4byte	0xcf
 4607 1ad0 06       		.byte	0x6
 4608 1ad1 00       		.byte	0
 4609 1ad2 12       		.uleb128 0x12
 4610 1ad3 A60D0000 		.4byte	.LASF657
 4611 1ad7 0D       		.byte	0xd
 4612 1ad8 A301     		.2byte	0x1a3
 4613 1ada A11A0000 		.4byte	0x1aa1
 4614 1ade 13       		.uleb128 0x13
 4615 1adf 0C       		.byte	0xc
 4616 1ae0 0D       		.byte	0xd
 4617 1ae1 A601     		.2byte	0x1a6
 4618 1ae3 021B0000 		.4byte	0x1b02
 4619 1ae7 14       		.uleb128 0x14
 4620 1ae8 330D0000 		.4byte	.LASF658
 4621 1aec 0D       		.byte	0xd
 4622 1aed A901     		.2byte	0x1a9
 4623 1aef D21A0000 		.4byte	0x1ad2
 4624 1af3 00       		.byte	0
 4625 1af4 14       		.uleb128 0x14
 4626 1af5 44300000 		.4byte	.LASF659
 4627 1af9 0D       		.byte	0xd
 4628 1afa AC01     		.2byte	0x1ac
 4629 1afc 951A0000 		.4byte	0x1a95
 4630 1b00 08       		.byte	0x8
 4631 1b01 00       		.byte	0
 4632 1b02 12       		.uleb128 0x12
 4633 1b03 D31F0000 		.4byte	.LASF660
 4634 1b07 0D       		.byte	0xd
 4635 1b08 AE01     		.2byte	0x1ae
 4636 1b0a DE1A0000 		.4byte	0x1ade
ARM GAS  C:\Users\hkmnt\AppData\Local\Temp\ccBdSSuH.s 			page 117


 4637 1b0e 13       		.uleb128 0x13
 4638 1b0f 04       		.byte	0x4
 4639 1b10 0D       		.byte	0xd
 4640 1b11 BC01     		.2byte	0x1bc
 4641 1b13 321B0000 		.4byte	0x1b32
 4642 1b17 14       		.uleb128 0x14
 4643 1b18 E0410000 		.4byte	.LASF580
 4644 1b1c 0D       		.byte	0xd
 4645 1b1d BF01     		.2byte	0x1bf
 4646 1b1f BD170000 		.4byte	0x17bd
 4647 1b23 00       		.byte	0
 4648 1b24 1B       		.uleb128 0x1b
 4649 1b25 6D747500 		.ascii	"mtu\000"
 4650 1b29 0D       		.byte	0xd
 4651 1b2a C201     		.2byte	0x1c2
 4652 1b2c CF000000 		.4byte	0xcf
 4653 1b30 02       		.byte	0x2
 4654 1b31 00       		.byte	0
 4655 1b32 12       		.uleb128 0x12
 4656 1b33 1F490000 		.4byte	.LASF661
 4657 1b37 0D       		.byte	0xd
 4658 1b38 C401     		.2byte	0x1c4
 4659 1b3a 0E1B0000 		.4byte	0x1b0e
 4660 1b3e 13       		.uleb128 0x13
 4661 1b3f 10       		.byte	0x10
 4662 1b40 0D       		.byte	0xd
 4663 1b41 D201     		.2byte	0x1d2
 4664 1b43 621B0000 		.4byte	0x1b62
 4665 1b47 14       		.uleb128 0x14
 4666 1b48 A7470000 		.4byte	.LASF662
 4667 1b4c 0D       		.byte	0xd
 4668 1b4d D501     		.2byte	0x1d5
 4669 1b4f 021B0000 		.4byte	0x1b02
 4670 1b53 00       		.byte	0
 4671 1b54 14       		.uleb128 0x14
 4672 1b55 E0410000 		.4byte	.LASF580
 4673 1b59 0D       		.byte	0xd
 4674 1b5a D801     		.2byte	0x1d8
 4675 1b5c BD170000 		.4byte	0x17bd
 4676 1b60 0C       		.byte	0xc
 4677 1b61 00       		.byte	0
 4678 1b62 12       		.uleb128 0x12
 4679 1b63 E12C0000 		.4byte	.LASF663
 4680 1b67 0D       		.byte	0xd
 4681 1b68 DA01     		.2byte	0x1da
 4682 1b6a 3E1B0000 		.4byte	0x1b3e
 4683 1b6e 13       		.uleb128 0x13
 4684 1b6f 04       		.byte	0x4
 4685 1b70 0D       		.byte	0xd
 4686 1b71 DD01     		.2byte	0x1dd
 4687 1b73 9F1B0000 		.4byte	0x1b9f
 4688 1b77 14       		.uleb128 0x14
 4689 1b78 44300000 		.4byte	.LASF659
 4690 1b7c 0D       		.byte	0xd
 4691 1b7d E001     		.2byte	0x1e0
 4692 1b7f 951A0000 		.4byte	0x1a95
 4693 1b83 00       		.byte	0
ARM GAS  C:\Users\hkmnt\AppData\Local\Temp\ccBdSSuH.s 			page 118


 4694 1b84 14       		.uleb128 0x14
 4695 1b85 4F2D0000 		.4byte	.LASF664
 4696 1b89 0D       		.byte	0xd
 4697 1b8a E301     		.2byte	0x1e3
 4698 1b8c 8D190000 		.4byte	0x198d
 4699 1b90 02       		.byte	0x2
 4700 1b91 14       		.uleb128 0x14
 4701 1b92 7C530000 		.4byte	.LASF665
 4702 1b96 0D       		.byte	0xd
 4703 1b97 E601     		.2byte	0x1e6
 4704 1b99 891A0000 		.4byte	0x1a89
 4705 1b9d 03       		.byte	0x3
 4706 1b9e 00       		.byte	0
 4707 1b9f 12       		.uleb128 0x12
 4708 1ba0 BC380000 		.4byte	.LASF666
 4709 1ba4 0D       		.byte	0xd
 4710 1ba5 E801     		.2byte	0x1e8
 4711 1ba7 6E1B0000 		.4byte	0x1b6e
 4712 1bab 13       		.uleb128 0x13
 4713 1bac 06       		.byte	0x6
 4714 1bad 0D       		.byte	0xd
 4715 1bae EB01     		.2byte	0x1eb
 4716 1bb0 CF1B0000 		.4byte	0x1bcf
 4717 1bb4 14       		.uleb128 0x14
 4718 1bb5 E0410000 		.4byte	.LASF580
 4719 1bb9 0D       		.byte	0xd
 4720 1bba EE01     		.2byte	0x1ee
 4721 1bbc BD170000 		.4byte	0x17bd
 4722 1bc0 00       		.byte	0
 4723 1bc1 14       		.uleb128 0x14
 4724 1bc2 071F0000 		.4byte	.LASF667
 4725 1bc6 0D       		.byte	0xd
 4726 1bc7 F101     		.2byte	0x1f1
 4727 1bc9 9F1B0000 		.4byte	0x1b9f
 4728 1bcd 02       		.byte	0x2
 4729 1bce 00       		.byte	0
 4730 1bcf 12       		.uleb128 0x12
 4731 1bd0 CF530000 		.4byte	.LASF668
 4732 1bd4 0D       		.byte	0xd
 4733 1bd5 F301     		.2byte	0x1f3
 4734 1bd7 AB1B0000 		.4byte	0x1bab
 4735 1bdb 13       		.uleb128 0x13
 4736 1bdc 0C       		.byte	0xc
 4737 1bdd 0D       		.byte	0xd
 4738 1bde 0302     		.2byte	0x203
 4739 1be0 191C0000 		.4byte	0x1c19
 4740 1be4 14       		.uleb128 0x14
 4741 1be5 4E3A0000 		.4byte	.LASF669
 4742 1be9 0D       		.byte	0xd
 4743 1bea 0802     		.2byte	0x208
 4744 1bec D1160000 		.4byte	0x16d1
 4745 1bf0 00       		.byte	0
 4746 1bf1 14       		.uleb128 0x14
 4747 1bf2 763F0000 		.4byte	.LASF670
 4748 1bf6 0D       		.byte	0xd
 4749 1bf7 0D02     		.2byte	0x20d
 4750 1bf9 CF000000 		.4byte	0xcf
ARM GAS  C:\Users\hkmnt\AppData\Local\Temp\ccBdSSuH.s 			page 119


 4751 1bfd 04       		.byte	0x4
 4752 1bfe 14       		.uleb128 0x14
 4753 1bff 641D0000 		.4byte	.LASF671
 4754 1c03 0D       		.byte	0xd
 4755 1c04 1302     		.2byte	0x213
 4756 1c06 CF000000 		.4byte	0xcf
 4757 1c0a 06       		.byte	0x6
 4758 1c0b 14       		.uleb128 0x14
 4759 1c0c E0410000 		.4byte	.LASF580
 4760 1c10 0D       		.byte	0xd
 4761 1c11 1602     		.2byte	0x216
 4762 1c13 BD170000 		.4byte	0x17bd
 4763 1c17 08       		.byte	0x8
 4764 1c18 00       		.byte	0
 4765 1c19 12       		.uleb128 0x12
 4766 1c1a 79210000 		.4byte	.LASF672
 4767 1c1e 0D       		.byte	0xd
 4768 1c1f 1802     		.2byte	0x218
 4769 1c21 DB1B0000 		.4byte	0x1bdb
 4770 1c25 0F       		.uleb128 0xf
 4771 1c26 01       		.byte	0x1
 4772 1c27 53000000 		.4byte	0x53
 4773 1c2b 0E       		.byte	0xe
 4774 1c2c D5       		.byte	0xd5
 4775 1c2d 501C0000 		.4byte	0x1c50
 4776 1c31 11       		.uleb128 0x11
 4777 1c32 DD1C0000 		.4byte	.LASF673
 4778 1c36 00       		.byte	0
 4779 1c37 11       		.uleb128 0x11
 4780 1c38 5C200000 		.4byte	.LASF674
 4781 1c3c 01       		.byte	0x1
 4782 1c3d 11       		.uleb128 0x11
 4783 1c3e 4C430000 		.4byte	.LASF675
 4784 1c42 02       		.byte	0x2
 4785 1c43 11       		.uleb128 0x11
 4786 1c44 972F0000 		.4byte	.LASF676
 4787 1c48 03       		.byte	0x3
 4788 1c49 11       		.uleb128 0x11
 4789 1c4a 95060000 		.4byte	.LASF677
 4790 1c4e 04       		.byte	0x4
 4791 1c4f 00       		.byte	0
 4792 1c50 04       		.uleb128 0x4
 4793 1c51 3D240000 		.4byte	.LASF678
 4794 1c55 0E       		.byte	0xe
 4795 1c56 E7       		.byte	0xe7
 4796 1c57 251C0000 		.4byte	0x1c25
 4797 1c5b 0F       		.uleb128 0xf
 4798 1c5c 01       		.byte	0x1
 4799 1c5d 53000000 		.4byte	0x53
 4800 1c61 0E       		.byte	0xe
 4801 1c62 EB       		.byte	0xeb
 4802 1c63 CE1C0000 		.4byte	0x1cce
 4803 1c67 11       		.uleb128 0x11
 4804 1c68 92100000 		.4byte	.LASF679
 4805 1c6c 00       		.byte	0
 4806 1c6d 11       		.uleb128 0x11
 4807 1c6e 9A010000 		.4byte	.LASF680
ARM GAS  C:\Users\hkmnt\AppData\Local\Temp\ccBdSSuH.s 			page 120


 4808 1c72 01       		.byte	0x1
 4809 1c73 11       		.uleb128 0x11
 4810 1c74 1F430000 		.4byte	.LASF681
 4811 1c78 02       		.byte	0x2
 4812 1c79 11       		.uleb128 0x11
 4813 1c7a 10280000 		.4byte	.LASF682
 4814 1c7e 03       		.byte	0x3
 4815 1c7f 11       		.uleb128 0x11
 4816 1c80 00030000 		.4byte	.LASF683
 4817 1c84 04       		.byte	0x4
 4818 1c85 11       		.uleb128 0x11
 4819 1c86 1D010000 		.4byte	.LASF684
 4820 1c8a 05       		.byte	0x5
 4821 1c8b 11       		.uleb128 0x11
 4822 1c8c 22540000 		.4byte	.LASF685
 4823 1c90 06       		.byte	0x6
 4824 1c91 11       		.uleb128 0x11
 4825 1c92 CD3C0000 		.4byte	.LASF686
 4826 1c96 07       		.byte	0x7
 4827 1c97 11       		.uleb128 0x11
 4828 1c98 B9070000 		.4byte	.LASF687
 4829 1c9c 08       		.byte	0x8
 4830 1c9d 11       		.uleb128 0x11
 4831 1c9e 30390000 		.4byte	.LASF688
 4832 1ca2 09       		.byte	0x9
 4833 1ca3 11       		.uleb128 0x11
 4834 1ca4 CF140000 		.4byte	.LASF689
 4835 1ca8 0A       		.byte	0xa
 4836 1ca9 11       		.uleb128 0x11
 4837 1caa A9440000 		.4byte	.LASF690
 4838 1cae 0B       		.byte	0xb
 4839 1caf 11       		.uleb128 0x11
 4840 1cb0 2D0B0000 		.4byte	.LASF691
 4841 1cb4 0C       		.byte	0xc
 4842 1cb5 11       		.uleb128 0x11
 4843 1cb6 F71F0000 		.4byte	.LASF692
 4844 1cba 0D       		.byte	0xd
 4845 1cbb 11       		.uleb128 0x11
 4846 1cbc 6D180000 		.4byte	.LASF693
 4847 1cc0 0E       		.byte	0xe
 4848 1cc1 11       		.uleb128 0x11
 4849 1cc2 B00E0000 		.4byte	.LASF694
 4850 1cc6 15       		.byte	0x15
 4851 1cc7 11       		.uleb128 0x11
 4852 1cc8 1C4D0000 		.4byte	.LASF695
 4853 1ccc 18       		.byte	0x18
 4854 1ccd 00       		.byte	0
 4855 1cce 12       		.uleb128 0x12
 4856 1ccf 920B0000 		.4byte	.LASF696
 4857 1cd3 0E       		.byte	0xe
 4858 1cd4 2801     		.2byte	0x128
 4859 1cd6 5B1C0000 		.4byte	0x1c5b
 4860 1cda 15       		.uleb128 0x15
 4861 1cdb 01       		.byte	0x1
 4862 1cdc 53000000 		.4byte	0x53
 4863 1ce0 0E       		.byte	0xe
 4864 1ce1 5201     		.2byte	0x152
ARM GAS  C:\Users\hkmnt\AppData\Local\Temp\ccBdSSuH.s 			page 121


 4865 1ce3 001D0000 		.4byte	0x1d00
 4866 1ce7 11       		.uleb128 0x11
 4867 1ce8 EB1E0000 		.4byte	.LASF697
 4868 1cec 00       		.byte	0
 4869 1ced 11       		.uleb128 0x11
 4870 1cee 192E0000 		.4byte	.LASF698
 4871 1cf2 01       		.byte	0x1
 4872 1cf3 11       		.uleb128 0x11
 4873 1cf4 47020000 		.4byte	.LASF699
 4874 1cf8 02       		.byte	0x2
 4875 1cf9 11       		.uleb128 0x11
 4876 1cfa 05070000 		.4byte	.LASF700
 4877 1cfe 03       		.byte	0x3
 4878 1cff 00       		.byte	0
 4879 1d00 12       		.uleb128 0x12
 4880 1d01 D61D0000 		.4byte	.LASF701
 4881 1d05 0E       		.byte	0xe
 4882 1d06 5F01     		.2byte	0x15f
 4883 1d08 DA1C0000 		.4byte	0x1cda
 4884 1d0c 12       		.uleb128 0x12
 4885 1d0d 1A1A0000 		.4byte	.LASF702
 4886 1d11 0E       		.byte	0xe
 4887 1d12 6601     		.2byte	0x166
 4888 1d14 4E160000 		.4byte	0x164e
 4889 1d18 13       		.uleb128 0x13
 4890 1d19 06       		.byte	0x6
 4891 1d1a 0E       		.byte	0xe
 4892 1d1b EA01     		.2byte	0x1ea
 4893 1d1d 701D0000 		.4byte	0x1d70
 4894 1d21 14       		.uleb128 0x14
 4895 1d22 30470000 		.4byte	.LASF703
 4896 1d26 0E       		.byte	0xe
 4897 1d27 F301     		.2byte	0x1f3
 4898 1d29 B9000000 		.4byte	0xb9
 4899 1d2d 00       		.byte	0
 4900 1d2e 14       		.uleb128 0x14
 4901 1d2f 98300000 		.4byte	.LASF704
 4902 1d33 0E       		.byte	0xe
 4903 1d34 F901     		.2byte	0x1f9
 4904 1d36 B9000000 		.4byte	0xb9
 4905 1d3a 01       		.byte	0x1
 4906 1d3b 14       		.uleb128 0x14
 4907 1d3c 6D010000 		.4byte	.LASF705
 4908 1d40 0E       		.byte	0xe
 4909 1d41 0002     		.2byte	0x200
 4910 1d43 B9000000 		.4byte	0xb9
 4911 1d47 02       		.byte	0x2
 4912 1d48 14       		.uleb128 0x14
 4913 1d49 101C0000 		.4byte	.LASF706
 4914 1d4d 0E       		.byte	0xe
 4915 1d4e 0402     		.2byte	0x204
 4916 1d50 CE1C0000 		.4byte	0x1cce
 4917 1d54 03       		.byte	0x3
 4918 1d55 14       		.uleb128 0x14
 4919 1d56 4E450000 		.4byte	.LASF707
 4920 1d5a 0E       		.byte	0xe
 4921 1d5b 0E02     		.2byte	0x20e
ARM GAS  C:\Users\hkmnt\AppData\Local\Temp\ccBdSSuH.s 			page 122


 4922 1d5d B9000000 		.4byte	0xb9
 4923 1d61 04       		.byte	0x4
 4924 1d62 14       		.uleb128 0x14
 4925 1d63 D4300000 		.4byte	.LASF569
 4926 1d67 0E       		.byte	0xe
 4927 1d68 1102     		.2byte	0x211
 4928 1d6a B9000000 		.4byte	0xb9
 4929 1d6e 05       		.byte	0x5
 4930 1d6f 00       		.byte	0
 4931 1d70 12       		.uleb128 0x12
 4932 1d71 28200000 		.4byte	.LASF708
 4933 1d75 0E       		.byte	0xe
 4934 1d76 1302     		.2byte	0x213
 4935 1d78 181D0000 		.4byte	0x1d18
 4936 1d7c 13       		.uleb128 0x13
 4937 1d7d 1C       		.byte	0x1c
 4938 1d7e 0E       		.byte	0xe
 4939 1d7f 1503     		.2byte	0x315
 4940 1d81 151E0000 		.4byte	0x1e15
 4941 1d85 14       		.uleb128 0x14
 4942 1d86 A9500000 		.4byte	.LASF709
 4943 1d8a 0E       		.byte	0xe
 4944 1d8b 1B03     		.2byte	0x31b
 4945 1d8d CF000000 		.4byte	0xcf
 4946 1d91 00       		.byte	0
 4947 1d92 14       		.uleb128 0x14
 4948 1d93 A94E0000 		.4byte	.LASF710
 4949 1d97 0E       		.byte	0xe
 4950 1d98 2003     		.2byte	0x320
 4951 1d9a CF000000 		.4byte	0xcf
 4952 1d9e 02       		.byte	0x2
 4953 1d9f 14       		.uleb128 0x14
 4954 1da0 88550000 		.4byte	.LASF711
 4955 1da4 0E       		.byte	0xe
 4956 1da5 2603     		.2byte	0x326
 4957 1da7 CF000000 		.4byte	0xcf
 4958 1dab 04       		.byte	0x4
 4959 1dac 14       		.uleb128 0x14
 4960 1dad B4120000 		.4byte	.LASF712
 4961 1db1 0E       		.byte	0xe
 4962 1db2 2903     		.2byte	0x329
 4963 1db4 D1160000 		.4byte	0x16d1
 4964 1db8 08       		.byte	0x8
 4965 1db9 14       		.uleb128 0x14
 4966 1dba A7330000 		.4byte	.LASF713
 4967 1dbe 0E       		.byte	0xe
 4968 1dbf 2C03     		.2byte	0x32c
 4969 1dc1 001D0000 		.4byte	0x1d00
 4970 1dc5 0C       		.byte	0xc
 4971 1dc6 14       		.uleb128 0x14
 4972 1dc7 160B0000 		.4byte	.LASF714
 4973 1dcb 0E       		.byte	0xe
 4974 1dcc 3603     		.2byte	0x336
 4975 1dce D1160000 		.4byte	0x16d1
 4976 1dd2 10       		.byte	0x10
 4977 1dd3 14       		.uleb128 0x14
 4978 1dd4 A53D0000 		.4byte	.LASF715
ARM GAS  C:\Users\hkmnt\AppData\Local\Temp\ccBdSSuH.s 			page 123


 4979 1dd8 0E       		.byte	0xe
 4980 1dd9 3F03     		.2byte	0x33f
 4981 1ddb D1160000 		.4byte	0x16d1
 4982 1ddf 14       		.byte	0x14
 4983 1de0 14       		.uleb128 0x14
 4984 1de1 C3060000 		.4byte	.LASF716
 4985 1de5 0E       		.byte	0xe
 4986 1de6 4303     		.2byte	0x343
 4987 1de8 B9000000 		.4byte	0xb9
 4988 1dec 18       		.byte	0x18
 4989 1ded 14       		.uleb128 0x14
 4990 1dee 9C1F0000 		.4byte	.LASF717
 4991 1df2 0E       		.byte	0xe
 4992 1df3 4F03     		.2byte	0x34f
 4993 1df5 B9000000 		.4byte	0xb9
 4994 1df9 19       		.byte	0x19
 4995 1dfa 14       		.uleb128 0x14
 4996 1dfb 39230000 		.4byte	.LASF718
 4997 1dff 0E       		.byte	0xe
 4998 1e00 5503     		.2byte	0x355
 4999 1e02 B9000000 		.4byte	0xb9
 5000 1e06 1A       		.byte	0x1a
 5001 1e07 14       		.uleb128 0x14
 5002 1e08 D4300000 		.4byte	.LASF569
 5003 1e0c 0E       		.byte	0xe
 5004 1e0d 5803     		.2byte	0x358
 5005 1e0f B9000000 		.4byte	0xb9
 5006 1e13 1B       		.byte	0x1b
 5007 1e14 00       		.byte	0
 5008 1e15 12       		.uleb128 0x12
 5009 1e16 67320000 		.4byte	.LASF719
 5010 1e1a 0E       		.byte	0xe
 5011 1e1b 5A03     		.2byte	0x35a
 5012 1e1d 7C1D0000 		.4byte	0x1d7c
 5013 1e21 0E       		.uleb128 0xe
 5014 1e22 0C       		.byte	0xc
 5015 1e23 0F       		.byte	0xf
 5016 1e24 71       		.byte	0x71
 5017 1e25 8A1E0000 		.4byte	0x1e8a
 5018 1e29 0B       		.uleb128 0xb
 5019 1e2a DD200000 		.4byte	.LASF720
 5020 1e2e 0F       		.byte	0xf
 5021 1e2f 78       		.byte	0x78
 5022 1e30 B9000000 		.4byte	0xb9
 5023 1e34 00       		.byte	0
 5024 1e35 0B       		.uleb128 0xb
 5025 1e36 FF0D0000 		.4byte	.LASF721
 5026 1e3a 0F       		.byte	0xf
 5027 1e3b 7E       		.byte	0x7e
 5028 1e3c B9000000 		.4byte	0xb9
 5029 1e40 01       		.byte	0x1
 5030 1e41 0B       		.uleb128 0xb
 5031 1e42 5F3D0000 		.4byte	.LASF722
 5032 1e46 0F       		.byte	0xf
 5033 1e47 85       		.byte	0x85
 5034 1e48 CF000000 		.4byte	0xcf
 5035 1e4c 02       		.byte	0x2
ARM GAS  C:\Users\hkmnt\AppData\Local\Temp\ccBdSSuH.s 			page 124


 5036 1e4d 0B       		.uleb128 0xb
 5037 1e4e 4D3C0000 		.4byte	.LASF723
 5038 1e52 0F       		.byte	0xf
 5039 1e53 8C       		.byte	0x8c
 5040 1e54 CF000000 		.4byte	0xcf
 5041 1e58 04       		.byte	0x4
 5042 1e59 0B       		.uleb128 0xb
 5043 1e5a 2C560000 		.4byte	.LASF724
 5044 1e5e 0F       		.byte	0xf
 5045 1e5f 94       		.byte	0x94
 5046 1e60 B9000000 		.4byte	0xb9
 5047 1e64 06       		.byte	0x6
 5048 1e65 0B       		.uleb128 0xb
 5049 1e66 11540000 		.4byte	.LASF725
 5050 1e6a 0F       		.byte	0xf
 5051 1e6b 9C       		.byte	0x9c
 5052 1e6c B9000000 		.4byte	0xb9
 5053 1e70 07       		.byte	0x7
 5054 1e71 0B       		.uleb128 0xb
 5055 1e72 7F430000 		.4byte	.LASF726
 5056 1e76 0F       		.byte	0xf
 5057 1e77 A0       		.byte	0xa0
 5058 1e78 CF000000 		.4byte	0xcf
 5059 1e7c 08       		.byte	0x8
 5060 1e7d 0B       		.uleb128 0xb
 5061 1e7e 09300000 		.4byte	.LASF727
 5062 1e82 0F       		.byte	0xf
 5063 1e83 AA       		.byte	0xaa
 5064 1e84 B9000000 		.4byte	0xb9
 5065 1e88 0A       		.byte	0xa
 5066 1e89 00       		.byte	0
 5067 1e8a 04       		.uleb128 0x4
 5068 1e8b 6D480000 		.4byte	.LASF728
 5069 1e8f 0F       		.byte	0xf
 5070 1e90 AC       		.byte	0xac
 5071 1e91 211E0000 		.4byte	0x1e21
 5072 1e95 0F       		.uleb128 0xf
 5073 1e96 01       		.byte	0x1
 5074 1e97 53000000 		.4byte	0x53
 5075 1e9b 10       		.byte	0x10
 5076 1e9c 3E       		.byte	0x3e
 5077 1e9d C01E0000 		.4byte	0x1ec0
 5078 1ea1 11       		.uleb128 0x11
 5079 1ea2 A1320000 		.4byte	.LASF729
 5080 1ea6 00       		.byte	0
 5081 1ea7 11       		.uleb128 0x11
 5082 1ea8 8B3F0000 		.4byte	.LASF730
 5083 1eac 01       		.byte	0x1
 5084 1ead 11       		.uleb128 0x11
 5085 1eae AB180000 		.4byte	.LASF731
 5086 1eb2 02       		.byte	0x2
 5087 1eb3 11       		.uleb128 0x11
 5088 1eb4 34080000 		.4byte	.LASF732
 5089 1eb8 03       		.byte	0x3
 5090 1eb9 11       		.uleb128 0x11
 5091 1eba 36180000 		.4byte	.LASF733
 5092 1ebe 04       		.byte	0x4
ARM GAS  C:\Users\hkmnt\AppData\Local\Temp\ccBdSSuH.s 			page 125


 5093 1ebf 00       		.byte	0
 5094 1ec0 04       		.uleb128 0x4
 5095 1ec1 D4430000 		.4byte	.LASF734
 5096 1ec5 10       		.byte	0x10
 5097 1ec6 4E       		.byte	0x4e
 5098 1ec7 951E0000 		.4byte	0x1e95
 5099 1ecb 0E       		.uleb128 0xe
 5100 1ecc 10       		.byte	0x10
 5101 1ecd 10       		.byte	0x10
 5102 1ece 56       		.byte	0x56
 5103 1ecf 341F0000 		.4byte	0x1f34
 5104 1ed3 0B       		.uleb128 0xb
 5105 1ed4 34140000 		.4byte	.LASF735
 5106 1ed8 10       		.byte	0x10
 5107 1ed9 5E       		.byte	0x5e
 5108 1eda CF000000 		.4byte	0xcf
 5109 1ede 00       		.byte	0
 5110 1edf 0B       		.uleb128 0xb
 5111 1ee0 21560000 		.4byte	.LASF736
 5112 1ee4 10       		.byte	0x10
 5113 1ee5 66       		.byte	0x66
 5114 1ee6 CF000000 		.4byte	0xcf
 5115 1eea 02       		.byte	0x2
 5116 1eeb 0B       		.uleb128 0xb
 5117 1eec C1210000 		.4byte	.LASF737
 5118 1ef0 10       		.byte	0x10
 5119 1ef1 6F       		.byte	0x6f
 5120 1ef2 C01E0000 		.4byte	0x1ec0
 5121 1ef6 04       		.byte	0x4
 5122 1ef7 0B       		.uleb128 0xb
 5123 1ef8 2C560000 		.4byte	.LASF724
 5124 1efc 10       		.byte	0x10
 5125 1efd 77       		.byte	0x77
 5126 1efe B9000000 		.4byte	0xb9
 5127 1f02 05       		.byte	0x5
 5128 1f03 0B       		.uleb128 0xb
 5129 1f04 712D0000 		.4byte	.LASF738
 5130 1f08 10       		.byte	0x10
 5131 1f09 7E       		.byte	0x7e
 5132 1f0a B9000000 		.4byte	0xb9
 5133 1f0e 06       		.byte	0x6
 5134 1f0f 0B       		.uleb128 0xb
 5135 1f10 FA510000 		.4byte	.LASF739
 5136 1f14 10       		.byte	0x10
 5137 1f15 84       		.byte	0x84
 5138 1f16 3E160000 		.4byte	0x163e
 5139 1f1a 07       		.byte	0x7
 5140 1f1b 0B       		.uleb128 0xb
 5141 1f1c 14530000 		.4byte	.LASF740
 5142 1f20 10       		.byte	0x10
 5143 1f21 8C       		.byte	0x8c
 5144 1f22 B9000000 		.4byte	0xb9
 5145 1f26 0D       		.byte	0xd
 5146 1f27 0B       		.uleb128 0xb
 5147 1f28 DD300000 		.4byte	.LASF741
 5148 1f2c 10       		.byte	0x10
 5149 1f2d 98       		.byte	0x98
ARM GAS  C:\Users\hkmnt\AppData\Local\Temp\ccBdSSuH.s 			page 126


 5150 1f2e B9000000 		.4byte	0xb9
 5151 1f32 0E       		.byte	0xe
 5152 1f33 00       		.byte	0
 5153 1f34 04       		.uleb128 0x4
 5154 1f35 F90A0000 		.4byte	.LASF742
 5155 1f39 10       		.byte	0x10
 5156 1f3a 9A       		.byte	0x9a
 5157 1f3b CB1E0000 		.4byte	0x1ecb
 5158 1f3f 0E       		.uleb128 0xe
 5159 1f40 20       		.byte	0x20
 5160 1f41 10       		.byte	0x10
 5161 1f42 9D       		.byte	0x9d
 5162 1f43 601F0000 		.4byte	0x1f60
 5163 1f47 0B       		.uleb128 0xb
 5164 1f48 66550000 		.4byte	.LASF743
 5165 1f4c 10       		.byte	0x10
 5166 1f4d A0       		.byte	0xa0
 5167 1f4e 601F0000 		.4byte	0x1f60
 5168 1f52 00       		.byte	0
 5169 1f53 0B       		.uleb128 0xb
 5170 1f54 F6370000 		.4byte	.LASF744
 5171 1f58 10       		.byte	0x10
 5172 1f59 A3       		.byte	0xa3
 5173 1f5a B9000000 		.4byte	0xb9
 5174 1f5e 1F       		.byte	0x1f
 5175 1f5f 00       		.byte	0
 5176 1f60 08       		.uleb128 0x8
 5177 1f61 B9000000 		.4byte	0xb9
 5178 1f65 701F0000 		.4byte	0x1f70
 5179 1f69 09       		.uleb128 0x9
 5180 1f6a A9000000 		.4byte	0xa9
 5181 1f6e 1E       		.byte	0x1e
 5182 1f6f 00       		.byte	0
 5183 1f70 04       		.uleb128 0x4
 5184 1f71 C2220000 		.4byte	.LASF745
 5185 1f75 10       		.byte	0x10
 5186 1f76 A5       		.byte	0xa5
 5187 1f77 3F1F0000 		.4byte	0x1f3f
 5188 1f7b 0E       		.uleb128 0xe
 5189 1f7c 20       		.byte	0x20
 5190 1f7d 10       		.byte	0x10
 5191 1f7e A8       		.byte	0xa8
 5192 1f7f 9C1F0000 		.4byte	0x1f9c
 5193 1f83 0B       		.uleb128 0xb
 5194 1f84 3B020000 		.4byte	.LASF746
 5195 1f88 10       		.byte	0x10
 5196 1f89 AC       		.byte	0xac
 5197 1f8a 601F0000 		.4byte	0x1f60
 5198 1f8e 00       		.byte	0
 5199 1f8f 0B       		.uleb128 0xb
 5200 1f90 5E480000 		.4byte	.LASF747
 5201 1f94 10       		.byte	0x10
 5202 1f95 AF       		.byte	0xaf
 5203 1f96 B9000000 		.4byte	0xb9
 5204 1f9a 1F       		.byte	0x1f
 5205 1f9b 00       		.byte	0
 5206 1f9c 04       		.uleb128 0x4
ARM GAS  C:\Users\hkmnt\AppData\Local\Temp\ccBdSSuH.s 			page 127


 5207 1f9d 91050000 		.4byte	.LASF748
 5208 1fa1 10       		.byte	0x10
 5209 1fa2 B1       		.byte	0xb1
 5210 1fa3 7B1F0000 		.4byte	0x1f7b
 5211 1fa7 0E       		.uleb128 0xe
 5212 1fa8 14       		.byte	0x14
 5213 1fa9 10       		.byte	0x10
 5214 1faa B4       		.byte	0xb4
 5215 1fab EC1F0000 		.4byte	0x1fec
 5216 1faf 0B       		.uleb128 0xb
 5217 1fb0 88050000 		.4byte	.LASF749
 5218 1fb4 10       		.byte	0x10
 5219 1fb5 BC       		.byte	0xbc
 5220 1fb6 B9000000 		.4byte	0xb9
 5221 1fba 00       		.byte	0
 5222 1fbb 0B       		.uleb128 0xb
 5223 1fbc 111A0000 		.4byte	.LASF750
 5224 1fc0 10       		.byte	0x10
 5225 1fc1 C1       		.byte	0xc1
 5226 1fc2 EC1F0000 		.4byte	0x1fec
 5227 1fc6 04       		.byte	0x4
 5228 1fc7 0B       		.uleb128 0xb
 5229 1fc8 66550000 		.4byte	.LASF743
 5230 1fcc 10       		.byte	0x10
 5231 1fcd C3       		.byte	0xc3
 5232 1fce F21F0000 		.4byte	0x1ff2
 5233 1fd2 08       		.byte	0x8
 5234 1fd3 0B       		.uleb128 0xb
 5235 1fd4 3B020000 		.4byte	.LASF746
 5236 1fd8 10       		.byte	0x10
 5237 1fd9 C5       		.byte	0xc5
 5238 1fda F81F0000 		.4byte	0x1ff8
 5239 1fde 0C       		.byte	0xc
 5240 1fdf 0B       		.uleb128 0xb
 5241 1fe0 501A0000 		.4byte	.LASF751
 5242 1fe4 10       		.byte	0x10
 5243 1fe5 CF       		.byte	0xcf
 5244 1fe6 CF000000 		.4byte	0xcf
 5245 1fea 10       		.byte	0x10
 5246 1feb 00       		.byte	0
 5247 1fec 18       		.uleb128 0x18
 5248 1fed 04       		.byte	0x4
 5249 1fee 341F0000 		.4byte	0x1f34
 5250 1ff2 18       		.uleb128 0x18
 5251 1ff3 04       		.byte	0x4
 5252 1ff4 701F0000 		.4byte	0x1f70
 5253 1ff8 18       		.uleb128 0x18
 5254 1ff9 04       		.byte	0x4
 5255 1ffa 9C1F0000 		.4byte	0x1f9c
 5256 1ffe 04       		.uleb128 0x4
 5257 1fff AE270000 		.4byte	.LASF752
 5258 2003 10       		.byte	0x10
 5259 2004 D1       		.byte	0xd1
 5260 2005 A71F0000 		.4byte	0x1fa7
 5261 2009 0F       		.uleb128 0xf
 5262 200a 01       		.byte	0x1
 5263 200b 53000000 		.4byte	0x53
ARM GAS  C:\Users\hkmnt\AppData\Local\Temp\ccBdSSuH.s 			page 128


 5264 200f 02       		.byte	0x2
 5265 2010 69       		.byte	0x69
 5266 2011 28200000 		.4byte	0x2028
 5267 2015 11       		.uleb128 0x11
 5268 2016 7E0E0000 		.4byte	.LASF753
 5269 201a 00       		.byte	0
 5270 201b 11       		.uleb128 0x11
 5271 201c EE390000 		.4byte	.LASF754
 5272 2020 01       		.byte	0x1
 5273 2021 11       		.uleb128 0x11
 5274 2022 4C090000 		.4byte	.LASF755
 5275 2026 02       		.byte	0x2
 5276 2027 00       		.byte	0
 5277 2028 04       		.uleb128 0x4
 5278 2029 11050000 		.4byte	.LASF756
 5279 202d 02       		.byte	0x2
 5280 202e 70       		.byte	0x70
 5281 202f 09200000 		.4byte	0x2009
 5282 2033 0F       		.uleb128 0xf
 5283 2034 01       		.byte	0x1
 5284 2035 53000000 		.4byte	0x53
 5285 2039 02       		.byte	0x2
 5286 203a 7E       		.byte	0x7e
 5287 203b 58200000 		.4byte	0x2058
 5288 203f 11       		.uleb128 0x11
 5289 2040 63340000 		.4byte	.LASF757
 5290 2044 00       		.byte	0
 5291 2045 11       		.uleb128 0x11
 5292 2046 610F0000 		.4byte	.LASF758
 5293 204a 01       		.byte	0x1
 5294 204b 11       		.uleb128 0x11
 5295 204c 6E040000 		.4byte	.LASF759
 5296 2050 02       		.byte	0x2
 5297 2051 11       		.uleb128 0x11
 5298 2052 47400000 		.4byte	.LASF760
 5299 2056 03       		.byte	0x3
 5300 2057 00       		.byte	0
 5301 2058 04       		.uleb128 0x4
 5302 2059 43350000 		.4byte	.LASF761
 5303 205d 02       		.byte	0x2
 5304 205e 83       		.byte	0x83
 5305 205f 33200000 		.4byte	0x2033
 5306 2063 0F       		.uleb128 0xf
 5307 2064 01       		.byte	0x1
 5308 2065 53000000 		.4byte	0x53
 5309 2069 02       		.byte	0x2
 5310 206a 87       		.byte	0x87
 5311 206b A0200000 		.4byte	0x20a0
 5312 206f 11       		.uleb128 0x11
 5313 2070 5B470000 		.4byte	.LASF762
 5314 2074 00       		.byte	0
 5315 2075 11       		.uleb128 0x11
 5316 2076 4A310000 		.4byte	.LASF763
 5317 207a 01       		.byte	0x1
 5318 207b 11       		.uleb128 0x11
 5319 207c F1450000 		.4byte	.LASF764
 5320 2080 02       		.byte	0x2
ARM GAS  C:\Users\hkmnt\AppData\Local\Temp\ccBdSSuH.s 			page 129


 5321 2081 11       		.uleb128 0x11
 5322 2082 90280000 		.4byte	.LASF765
 5323 2086 03       		.byte	0x3
 5324 2087 11       		.uleb128 0x11
 5325 2088 D1330000 		.4byte	.LASF766
 5326 208c 04       		.byte	0x4
 5327 208d 11       		.uleb128 0x11
 5328 208e F4130000 		.4byte	.LASF767
 5329 2092 05       		.byte	0x5
 5330 2093 11       		.uleb128 0x11
 5331 2094 07040000 		.4byte	.LASF768
 5332 2098 06       		.byte	0x6
 5333 2099 11       		.uleb128 0x11
 5334 209a 780C0000 		.4byte	.LASF769
 5335 209e 07       		.byte	0x7
 5336 209f 00       		.byte	0
 5337 20a0 04       		.uleb128 0x4
 5338 20a1 CD3F0000 		.4byte	.LASF770
 5339 20a5 02       		.byte	0x2
 5340 20a6 90       		.byte	0x90
 5341 20a7 63200000 		.4byte	0x2063
 5342 20ab 0E       		.uleb128 0xe
 5343 20ac 0C       		.byte	0xc
 5344 20ad 02       		.byte	0x2
 5345 20ae 93       		.byte	0x93
 5346 20af FC200000 		.4byte	0x20fc
 5347 20b3 0B       		.uleb128 0xb
 5348 20b4 F0000000 		.4byte	.LASF771
 5349 20b8 02       		.byte	0x2
 5350 20b9 96       		.byte	0x96
 5351 20ba 951A0000 		.4byte	0x1a95
 5352 20be 00       		.byte	0
 5353 20bf 0B       		.uleb128 0xb
 5354 20c0 0F380000 		.4byte	.LASF772
 5355 20c4 02       		.byte	0x2
 5356 20c5 99       		.byte	0x99
 5357 20c6 951A0000 		.4byte	0x1a95
 5358 20ca 02       		.byte	0x2
 5359 20cb 0B       		.uleb128 0xb
 5360 20cc D7380000 		.4byte	.LASF773
 5361 20d0 02       		.byte	0x2
 5362 20d1 9C       		.byte	0x9c
 5363 20d2 951A0000 		.4byte	0x1a95
 5364 20d6 04       		.byte	0x4
 5365 20d7 0B       		.uleb128 0xb
 5366 20d8 CA120000 		.4byte	.LASF774
 5367 20dc 02       		.byte	0x2
 5368 20dd 9F       		.byte	0x9f
 5369 20de 951A0000 		.4byte	0x1a95
 5370 20e2 06       		.byte	0x6
 5371 20e3 0B       		.uleb128 0xb
 5372 20e4 304B0000 		.4byte	.LASF775
 5373 20e8 02       		.byte	0x2
 5374 20e9 A2       		.byte	0xa2
 5375 20ea 951A0000 		.4byte	0x1a95
 5376 20ee 08       		.byte	0x8
 5377 20ef 0B       		.uleb128 0xb
ARM GAS  C:\Users\hkmnt\AppData\Local\Temp\ccBdSSuH.s 			page 130


 5378 20f0 01250000 		.4byte	.LASF776
 5379 20f4 02       		.byte	0x2
 5380 20f5 A5       		.byte	0xa5
 5381 20f6 951A0000 		.4byte	0x1a95
 5382 20fa 0A       		.byte	0xa
 5383 20fb 00       		.byte	0
 5384 20fc 04       		.uleb128 0x4
 5385 20fd 410F0000 		.4byte	.LASF777
 5386 2101 02       		.byte	0x2
 5387 2102 A6       		.byte	0xa6
 5388 2103 AB200000 		.4byte	0x20ab
 5389 2107 13       		.uleb128 0x13
 5390 2108 0E       		.byte	0xe
 5391 2109 02       		.byte	0x2
 5392 210a 2B01     		.2byte	0x12b
 5393 210c 6C210000 		.4byte	0x216c
 5394 2110 14       		.uleb128 0x14
 5395 2111 084C0000 		.4byte	.LASF778
 5396 2115 02       		.byte	0x2
 5397 2116 2E01     		.2byte	0x12e
 5398 2118 CF000000 		.4byte	0xcf
 5399 211c 00       		.byte	0
 5400 211d 14       		.uleb128 0x14
 5401 211e 05360000 		.4byte	.LASF779
 5402 2122 02       		.byte	0x2
 5403 2123 3101     		.2byte	0x131
 5404 2125 CF000000 		.4byte	0xcf
 5405 2129 02       		.byte	0x2
 5406 212a 14       		.uleb128 0x14
 5407 212b F6060000 		.4byte	.LASF780
 5408 212f 02       		.byte	0x2
 5409 2130 3401     		.2byte	0x134
 5410 2132 CF000000 		.4byte	0xcf
 5411 2136 04       		.byte	0x4
 5412 2137 14       		.uleb128 0x14
 5413 2138 EB530000 		.4byte	.LASF781
 5414 213c 02       		.byte	0x2
 5415 213d 3701     		.2byte	0x137
 5416 213f B9000000 		.4byte	0xb9
 5417 2143 06       		.byte	0x6
 5418 2144 14       		.uleb128 0x14
 5419 2145 0E220000 		.4byte	.LASF782
 5420 2149 02       		.byte	0x2
 5421 214a 3A01     		.2byte	0x13a
 5422 214c CF000000 		.4byte	0xcf
 5423 2150 08       		.byte	0x8
 5424 2151 14       		.uleb128 0x14
 5425 2152 9C0C0000 		.4byte	.LASF783
 5426 2156 02       		.byte	0x2
 5427 2157 3D01     		.2byte	0x13d
 5428 2159 CF000000 		.4byte	0xcf
 5429 215d 0A       		.byte	0xa
 5430 215e 14       		.uleb128 0x14
 5431 215f 864D0000 		.4byte	.LASF784
 5432 2163 02       		.byte	0x2
 5433 2164 4001     		.2byte	0x140
 5434 2166 CF000000 		.4byte	0xcf
ARM GAS  C:\Users\hkmnt\AppData\Local\Temp\ccBdSSuH.s 			page 131


 5435 216a 0C       		.byte	0xc
 5436 216b 00       		.byte	0
 5437 216c 12       		.uleb128 0x12
 5438 216d ED310000 		.4byte	.LASF785
 5439 2171 02       		.byte	0x2
 5440 2172 4101     		.2byte	0x141
 5441 2174 07210000 		.4byte	0x2107
 5442 2178 13       		.uleb128 0x13
 5443 2179 16       		.byte	0x16
 5444 217a 02       		.byte	0x2
 5445 217b 4401     		.2byte	0x144
 5446 217d 11220000 		.4byte	0x2211
 5447 2181 14       		.uleb128 0x14
 5448 2182 BD4C0000 		.4byte	.LASF786
 5449 2186 02       		.byte	0x2
 5450 2187 4701     		.2byte	0x147
 5451 2189 CF000000 		.4byte	0xcf
 5452 218d 00       		.byte	0
 5453 218e 14       		.uleb128 0x14
 5454 218f E7060000 		.4byte	.LASF787
 5455 2193 02       		.byte	0x2
 5456 2194 4A01     		.2byte	0x14a
 5457 2196 CF000000 		.4byte	0xcf
 5458 219a 02       		.byte	0x2
 5459 219b 14       		.uleb128 0x14
 5460 219c B31A0000 		.4byte	.LASF788
 5461 21a0 02       		.byte	0x2
 5462 21a1 4D01     		.2byte	0x14d
 5463 21a3 CF000000 		.4byte	0xcf
 5464 21a7 04       		.byte	0x4
 5465 21a8 14       		.uleb128 0x14
 5466 21a9 4A110000 		.4byte	.LASF789
 5467 21ad 02       		.byte	0x2
 5468 21ae 5001     		.2byte	0x150
 5469 21b0 B9000000 		.4byte	0xb9
 5470 21b4 06       		.byte	0x6
 5471 21b5 14       		.uleb128 0x14
 5472 21b6 3B480000 		.4byte	.LASF790
 5473 21ba 02       		.byte	0x2
 5474 21bb 5301     		.2byte	0x153
 5475 21bd CF000000 		.4byte	0xcf
 5476 21c1 08       		.byte	0x8
 5477 21c2 14       		.uleb128 0x14
 5478 21c3 774D0000 		.4byte	.LASF791
 5479 21c7 02       		.byte	0x2
 5480 21c8 5601     		.2byte	0x156
 5481 21ca CF000000 		.4byte	0xcf
 5482 21ce 0A       		.byte	0xa
 5483 21cf 14       		.uleb128 0x14
 5484 21d0 B54E0000 		.4byte	.LASF792
 5485 21d4 02       		.byte	0x2
 5486 21d5 5901     		.2byte	0x159
 5487 21d7 CF000000 		.4byte	0xcf
 5488 21db 0C       		.byte	0xc
 5489 21dc 14       		.uleb128 0x14
 5490 21dd 67510000 		.4byte	.LASF793
 5491 21e1 02       		.byte	0x2
ARM GAS  C:\Users\hkmnt\AppData\Local\Temp\ccBdSSuH.s 			page 132


 5492 21e2 5C01     		.2byte	0x15c
 5493 21e4 CF000000 		.4byte	0xcf
 5494 21e8 0E       		.byte	0xe
 5495 21e9 14       		.uleb128 0x14
 5496 21ea 213B0000 		.4byte	.LASF794
 5497 21ee 02       		.byte	0x2
 5498 21ef 5F01     		.2byte	0x15f
 5499 21f1 CF000000 		.4byte	0xcf
 5500 21f5 10       		.byte	0x10
 5501 21f6 14       		.uleb128 0x14
 5502 21f7 17510000 		.4byte	.LASF795
 5503 21fb 02       		.byte	0x2
 5504 21fc 6301     		.2byte	0x163
 5505 21fe CF000000 		.4byte	0xcf
 5506 2202 12       		.byte	0x12
 5507 2203 14       		.uleb128 0x14
 5508 2204 5B230000 		.4byte	.LASF796
 5509 2208 02       		.byte	0x2
 5510 2209 6601     		.2byte	0x166
 5511 220b CF000000 		.4byte	0xcf
 5512 220f 14       		.byte	0x14
 5513 2210 00       		.byte	0
 5514 2211 12       		.uleb128 0x12
 5515 2212 504A0000 		.4byte	.LASF797
 5516 2216 02       		.byte	0x2
 5517 2217 6701     		.2byte	0x167
 5518 2219 78210000 		.4byte	0x2178
 5519 221d 04       		.uleb128 0x4
 5520 221e E84E0000 		.4byte	.LASF798
 5521 2222 11       		.byte	0x11
 5522 2223 74       		.byte	0x74
 5523 2224 621B0000 		.4byte	0x1b62
 5524 2228 0E       		.uleb128 0xe
 5525 2229 06       		.byte	0x6
 5526 222a 11       		.byte	0x11
 5527 222b 7E       		.byte	0x7e
 5528 222c 55220000 		.4byte	0x2255
 5529 2230 0B       		.uleb128 0xb
 5530 2231 E0410000 		.4byte	.LASF580
 5531 2235 11       		.byte	0x11
 5532 2236 81       		.byte	0x81
 5533 2237 BD170000 		.4byte	0x17bd
 5534 223b 00       		.byte	0
 5535 223c 0B       		.uleb128 0xb
 5536 223d 44300000 		.4byte	.LASF659
 5537 2241 11       		.byte	0x11
 5538 2242 84       		.byte	0x84
 5539 2243 951A0000 		.4byte	0x1a95
 5540 2247 02       		.byte	0x2
 5541 2248 0B       		.uleb128 0xb
 5542 2249 77290000 		.4byte	.LASF799
 5543 224d 11       		.byte	0x11
 5544 224e 8A       		.byte	0x8a
 5545 224f 891A0000 		.4byte	0x1a89
 5546 2253 04       		.byte	0x4
 5547 2254 00       		.byte	0
 5548 2255 04       		.uleb128 0x4
ARM GAS  C:\Users\hkmnt\AppData\Local\Temp\ccBdSSuH.s 			page 133


 5549 2256 35550000 		.4byte	.LASF800
 5550 225a 11       		.byte	0x11
 5551 225b 8C       		.byte	0x8c
 5552 225c 28220000 		.4byte	0x2228
 5553 2260 0E       		.uleb128 0xe
 5554 2261 08       		.byte	0x8
 5555 2262 12       		.byte	0x12
 5556 2263 D6       		.byte	0xd6
 5557 2264 81220000 		.4byte	0x2281
 5558 2268 0B       		.uleb128 0xb
 5559 2269 3C420000 		.4byte	.LASF801
 5560 226d 12       		.byte	0x12
 5561 226e D9       		.byte	0xd9
 5562 226f CF000000 		.4byte	0xcf
 5563 2273 00       		.byte	0
 5564 2274 0B       		.uleb128 0xb
 5565 2275 45460000 		.4byte	.LASF802
 5566 2279 12       		.byte	0x12
 5567 227a DE       		.byte	0xde
 5568 227b B0000000 		.4byte	0xb0
 5569 227f 04       		.byte	0x4
 5570 2280 00       		.byte	0
 5571 2281 04       		.uleb128 0x4
 5572 2282 81540000 		.4byte	.LASF803
 5573 2286 12       		.byte	0x12
 5574 2287 E0       		.byte	0xe0
 5575 2288 60220000 		.4byte	0x2260
 5576 228c 0E       		.uleb128 0xe
 5577 228d 08       		.byte	0x8
 5578 228e 12       		.byte	0x12
 5579 228f E3       		.byte	0xe3
 5580 2290 AD220000 		.4byte	0x22ad
 5581 2294 0B       		.uleb128 0xb
 5582 2295 EB4D0000 		.4byte	.LASF804
 5583 2299 12       		.byte	0x12
 5584 229a E6       		.byte	0xe6
 5585 229b CF000000 		.4byte	0xcf
 5586 229f 00       		.byte	0
 5587 22a0 0B       		.uleb128 0xb
 5588 22a1 EE470000 		.4byte	.LASF805
 5589 22a5 12       		.byte	0x12
 5590 22a6 EB       		.byte	0xeb
 5591 22a7 AD220000 		.4byte	0x22ad
 5592 22ab 04       		.byte	0x4
 5593 22ac 00       		.byte	0
 5594 22ad 18       		.uleb128 0x18
 5595 22ae 04       		.byte	0x4
 5596 22af 81220000 		.4byte	0x2281
 5597 22b3 04       		.uleb128 0x4
 5598 22b4 3E160000 		.4byte	.LASF806
 5599 22b8 12       		.byte	0x12
 5600 22b9 ED       		.byte	0xed
 5601 22ba 8C220000 		.4byte	0x228c
 5602 22be 1C       		.uleb128 0x1c
 5603 22bf 08       		.byte	0x8
 5604 22c0 12       		.byte	0x12
 5605 22c1 F0       		.byte	0xf0
ARM GAS  C:\Users\hkmnt\AppData\Local\Temp\ccBdSSuH.s 			page 134


 5606 22c2 DD220000 		.4byte	0x22dd
 5607 22c6 1D       		.uleb128 0x1d
 5608 22c7 A7340000 		.4byte	.LASF807
 5609 22cb 12       		.byte	0x12
 5610 22cc F6       		.byte	0xf6
 5611 22cd B3220000 		.4byte	0x22b3
 5612 22d1 1D       		.uleb128 0x1d
 5613 22d2 5C260000 		.4byte	.LASF808
 5614 22d6 12       		.byte	0x12
 5615 22d7 F9       		.byte	0xf9
 5616 22d8 CF000000 		.4byte	0xcf
 5617 22dc 00       		.byte	0
 5618 22dd 04       		.uleb128 0x4
 5619 22de 1B330000 		.4byte	.LASF809
 5620 22e2 12       		.byte	0x12
 5621 22e3 FB       		.byte	0xfb
 5622 22e4 BE220000 		.4byte	0x22be
 5623 22e8 0E       		.uleb128 0xe
 5624 22e9 14       		.byte	0x14
 5625 22ea 12       		.byte	0x12
 5626 22eb FE       		.byte	0xfe
 5627 22ec 32230000 		.4byte	0x2332
 5628 22f0 14       		.uleb128 0x14
 5629 22f1 3F140000 		.4byte	.LASF810
 5630 22f5 12       		.byte	0x12
 5631 22f6 0101     		.2byte	0x101
 5632 22f8 CF000000 		.4byte	0xcf
 5633 22fc 00       		.byte	0
 5634 22fd 14       		.uleb128 0x14
 5635 22fe 800F0000 		.4byte	.LASF811
 5636 2302 12       		.byte	0x12
 5637 2303 0701     		.2byte	0x107
 5638 2305 CF000000 		.4byte	0xcf
 5639 2309 02       		.byte	0x2
 5640 230a 14       		.uleb128 0x14
 5641 230b EA070000 		.4byte	.LASF812
 5642 230f 12       		.byte	0x12
 5643 2310 1501     		.2byte	0x115
 5644 2312 E5000000 		.4byte	0xe5
 5645 2316 04       		.byte	0x4
 5646 2317 14       		.uleb128 0x14
 5647 2318 1F2B0000 		.4byte	.LASF813
 5648 231c 12       		.byte	0x12
 5649 231d 1801     		.2byte	0x118
 5650 231f CF000000 		.4byte	0xcf
 5651 2323 08       		.byte	0x8
 5652 2324 14       		.uleb128 0x14
 5653 2325 CC370000 		.4byte	.LASF814
 5654 2329 12       		.byte	0x12
 5655 232a 2101     		.2byte	0x121
 5656 232c DD220000 		.4byte	0x22dd
 5657 2330 0C       		.byte	0xc
 5658 2331 00       		.byte	0
 5659 2332 12       		.uleb128 0x12
 5660 2333 6D130000 		.4byte	.LASF815
 5661 2337 12       		.byte	0x12
 5662 2338 2301     		.2byte	0x123
ARM GAS  C:\Users\hkmnt\AppData\Local\Temp\ccBdSSuH.s 			page 135


 5663 233a E8220000 		.4byte	0x22e8
 5664 233e 18       		.uleb128 0x18
 5665 233f 04       		.byte	0x4
 5666 2340 44230000 		.4byte	0x2344
 5667 2344 07       		.uleb128 0x7
 5668 2345 32230000 		.4byte	0x2332
 5669 2349 0E       		.uleb128 0xe
 5670 234a 06       		.byte	0x6
 5671 234b 13       		.byte	0x13
 5672 234c 87       		.byte	0x87
 5673 234d 76230000 		.4byte	0x2376
 5674 2351 0B       		.uleb128 0xb
 5675 2352 F0000000 		.4byte	.LASF771
 5676 2356 13       		.byte	0x13
 5677 2357 89       		.byte	0x89
 5678 2358 951A0000 		.4byte	0x1a95
 5679 235c 00       		.byte	0
 5680 235d 0B       		.uleb128 0xb
 5681 235e AD400000 		.4byte	.LASF816
 5682 2362 13       		.byte	0x13
 5683 2363 8A       		.byte	0x8a
 5684 2364 951A0000 		.4byte	0x1a95
 5685 2368 02       		.byte	0x2
 5686 2369 0B       		.uleb128 0xb
 5687 236a 22530000 		.4byte	.LASF817
 5688 236e 13       		.byte	0x13
 5689 236f 8B       		.byte	0x8b
 5690 2370 951A0000 		.4byte	0x1a95
 5691 2374 04       		.byte	0x4
 5692 2375 00       		.byte	0
 5693 2376 04       		.uleb128 0x4
 5694 2377 B61B0000 		.4byte	.LASF818
 5695 237b 13       		.byte	0x13
 5696 237c 8C       		.byte	0x8c
 5697 237d 49230000 		.4byte	0x2349
 5698 2381 0E       		.uleb128 0xe
 5699 2382 02       		.byte	0x2
 5700 2383 14       		.byte	0x14
 5701 2384 C5       		.byte	0xc5
 5702 2385 A2230000 		.4byte	0x23a2
 5703 2389 0B       		.uleb128 0xb
 5704 238a 181C0000 		.4byte	.LASF819
 5705 238e 14       		.byte	0x14
 5706 238f D8       		.byte	0xd8
 5707 2390 B9000000 		.4byte	0xb9
 5708 2394 00       		.byte	0
 5709 2395 0B       		.uleb128 0xb
 5710 2396 D4300000 		.4byte	.LASF569
 5711 239a 14       		.byte	0x14
 5712 239b DB       		.byte	0xdb
 5713 239c B9000000 		.4byte	0xb9
 5714 23a0 01       		.byte	0x1
 5715 23a1 00       		.byte	0
 5716 23a2 04       		.uleb128 0x4
 5717 23a3 32510000 		.4byte	.LASF820
 5718 23a7 14       		.byte	0x14
 5719 23a8 DD       		.byte	0xdd
ARM GAS  C:\Users\hkmnt\AppData\Local\Temp\ccBdSSuH.s 			page 136


 5720 23a9 81230000 		.4byte	0x2381
 5721 23ad 04       		.uleb128 0x4
 5722 23ae CD4B0000 		.4byte	.LASF821
 5723 23b2 15       		.byte	0x15
 5724 23b3 40       		.byte	0x40
 5725 23b4 B8230000 		.4byte	0x23b8
 5726 23b8 18       		.uleb128 0x18
 5727 23b9 04       		.byte	0x4
 5728 23ba BE230000 		.4byte	0x23be
 5729 23be 1E       		.uleb128 0x1e
 5730 23bf CE230000 		.4byte	0x23ce
 5731 23c3 1F       		.uleb128 0x1f
 5732 23c4 E5000000 		.4byte	0xe5
 5733 23c8 1F       		.uleb128 0x1f
 5734 23c9 B0000000 		.4byte	0xb0
 5735 23cd 00       		.byte	0
 5736 23ce 03       		.uleb128 0x3
 5737 23cf 01       		.byte	0x1
 5738 23d0 02       		.byte	0x2
 5739 23d1 C6150000 		.4byte	.LASF822
 5740 23d5 20       		.uleb128 0x20
 5741 23d6 DB04     		.2byte	0x4db
 5742 23d8 15       		.byte	0x15
 5743 23d9 DE01     		.2byte	0x1de
 5744 23db 17240000 		.4byte	0x2417
 5745 23df 14       		.uleb128 0x14
 5746 23e0 C51F0000 		.4byte	.LASF823
 5747 23e4 15       		.byte	0x15
 5748 23e5 E101     		.2byte	0x1e1
 5749 23e7 17240000 		.4byte	0x2417
 5750 23eb 00       		.byte	0
 5751 23ec 21       		.uleb128 0x21
 5752 23ed 391E0000 		.4byte	.LASF824
 5753 23f1 15       		.byte	0x15
 5754 23f2 E401     		.2byte	0x1e4
 5755 23f4 28240000 		.4byte	0x2428
 5756 23f8 D604     		.2byte	0x4d6
 5757 23fa 21       		.uleb128 0x21
 5758 23fb 9C4A0000 		.4byte	.LASF825
 5759 23ff 15       		.byte	0x15
 5760 2400 E701     		.2byte	0x1e7
 5761 2402 B9000000 		.4byte	0xb9
 5762 2406 D904     		.2byte	0x4d9
 5763 2408 21       		.uleb128 0x21
 5764 2409 3F1C0000 		.4byte	.LASF826
 5765 240d 15       		.byte	0x15
 5766 240e EA01     		.2byte	0x1ea
 5767 2410 B9000000 		.4byte	0xb9
 5768 2414 DA04     		.2byte	0x4da
 5769 2416 00       		.byte	0
 5770 2417 08       		.uleb128 0x8
 5771 2418 B9000000 		.4byte	0xb9
 5772 241c 28240000 		.4byte	0x2428
 5773 2420 0D       		.uleb128 0xd
 5774 2421 A9000000 		.4byte	0xa9
 5775 2425 D504     		.2byte	0x4d5
 5776 2427 00       		.byte	0
ARM GAS  C:\Users\hkmnt\AppData\Local\Temp\ccBdSSuH.s 			page 137


 5777 2428 08       		.uleb128 0x8
 5778 2429 B9000000 		.4byte	0xb9
 5779 242d 3E240000 		.4byte	0x243e
 5780 2431 09       		.uleb128 0x9
 5781 2432 A9000000 		.4byte	0xa9
 5782 2436 00       		.byte	0
 5783 2437 09       		.uleb128 0x9
 5784 2438 A9000000 		.4byte	0xa9
 5785 243c 02       		.byte	0x2
 5786 243d 00       		.byte	0
 5787 243e 12       		.uleb128 0x12
 5788 243f D00D0000 		.4byte	.LASF827
 5789 2443 15       		.byte	0x15
 5790 2444 EB01     		.2byte	0x1eb
 5791 2446 D5230000 		.4byte	0x23d5
 5792 244a 13       		.uleb128 0x13
 5793 244b 08       		.byte	0x8
 5794 244c 15       		.byte	0x15
 5795 244d EE01     		.2byte	0x1ee
 5796 244f A2240000 		.4byte	0x24a2
 5797 2453 14       		.uleb128 0x14
 5798 2454 1B2F0000 		.4byte	.LASF828
 5799 2458 15       		.byte	0x15
 5800 2459 F101     		.2byte	0x1f1
 5801 245b 09170000 		.4byte	0x1709
 5802 245f 00       		.byte	0
 5803 2460 14       		.uleb128 0x14
 5804 2461 D1000000 		.4byte	.LASF829
 5805 2465 15       		.byte	0x15
 5806 2466 F401     		.2byte	0x1f4
 5807 2468 09170000 		.4byte	0x1709
 5808 246c 01       		.byte	0x1
 5809 246d 14       		.uleb128 0x14
 5810 246e 813C0000 		.4byte	.LASF830
 5811 2472 15       		.byte	0x15
 5812 2473 F701     		.2byte	0x1f7
 5813 2475 501C0000 		.4byte	0x1c50
 5814 2479 02       		.byte	0x2
 5815 247a 14       		.uleb128 0x14
 5816 247b 784F0000 		.4byte	.LASF831
 5817 247f 15       		.byte	0x15
 5818 2480 FA01     		.2byte	0x1fa
 5819 2482 B9000000 		.4byte	0xb9
 5820 2486 03       		.byte	0x3
 5821 2487 14       		.uleb128 0x14
 5822 2488 AA150000 		.4byte	.LASF832
 5823 248c 15       		.byte	0x15
 5824 248d FD01     		.2byte	0x1fd
 5825 248f B9000000 		.4byte	0xb9
 5826 2493 04       		.byte	0x4
 5827 2494 14       		.uleb128 0x14
 5828 2495 18410000 		.4byte	.LASF833
 5829 2499 15       		.byte	0x15
 5830 249a 0002     		.2byte	0x200
 5831 249c CF000000 		.4byte	0xcf
 5832 24a0 06       		.byte	0x6
 5833 24a1 00       		.byte	0
ARM GAS  C:\Users\hkmnt\AppData\Local\Temp\ccBdSSuH.s 			page 138


 5834 24a2 12       		.uleb128 0x12
 5835 24a3 C8320000 		.4byte	.LASF834
 5836 24a7 15       		.byte	0x15
 5837 24a8 0102     		.2byte	0x201
 5838 24aa 4A240000 		.4byte	0x244a
 5839 24ae 13       		.uleb128 0x13
 5840 24af 3C       		.byte	0x3c
 5841 24b0 15       		.byte	0x15
 5842 24b1 0502     		.2byte	0x205
 5843 24b3 7B250000 		.4byte	0x257b
 5844 24b7 14       		.uleb128 0x14
 5845 24b8 2E090000 		.4byte	.LASF835
 5846 24bc 15       		.byte	0x15
 5847 24bd 0902     		.2byte	0x209
 5848 24bf 7B250000 		.4byte	0x257b
 5849 24c3 00       		.byte	0
 5850 24c4 14       		.uleb128 0x14
 5851 24c5 6F3E0000 		.4byte	.LASF836
 5852 24c9 15       		.byte	0x15
 5853 24ca 0C02     		.2byte	0x20c
 5854 24cc 81250000 		.4byte	0x2581
 5855 24d0 04       		.byte	0x4
 5856 24d1 14       		.uleb128 0x14
 5857 24d2 AB350000 		.4byte	.LASF837
 5858 24d6 15       		.byte	0x15
 5859 24d7 0F02     		.2byte	0x20f
 5860 24d9 87250000 		.4byte	0x2587
 5861 24dd 08       		.byte	0x8
 5862 24de 14       		.uleb128 0x14
 5863 24df 0F4F0000 		.4byte	.LASF838
 5864 24e3 15       		.byte	0x15
 5865 24e4 1202     		.2byte	0x212
 5866 24e6 8D250000 		.4byte	0x258d
 5867 24ea 0C       		.byte	0xc
 5868 24eb 14       		.uleb128 0x14
 5869 24ec 8B300000 		.4byte	.LASF839
 5870 24f0 15       		.byte	0x15
 5871 24f1 1502     		.2byte	0x215
 5872 24f3 93250000 		.4byte	0x2593
 5873 24f7 10       		.byte	0x10
 5874 24f8 14       		.uleb128 0x14
 5875 24f9 0B4A0000 		.4byte	.LASF840
 5876 24fd 15       		.byte	0x15
 5877 24fe 1802     		.2byte	0x218
 5878 2500 9E250000 		.4byte	0x259e
 5879 2504 14       		.byte	0x14
 5880 2505 14       		.uleb128 0x14
 5881 2506 2C1F0000 		.4byte	.LASF841
 5882 250a 15       		.byte	0x15
 5883 250b 1B02     		.2byte	0x21b
 5884 250d A9250000 		.4byte	0x25a9
 5885 2511 18       		.byte	0x18
 5886 2512 14       		.uleb128 0x14
 5887 2513 01380000 		.4byte	.LASF842
 5888 2517 15       		.byte	0x15
 5889 2518 1E02     		.2byte	0x21e
 5890 251a D1160000 		.4byte	0x16d1
ARM GAS  C:\Users\hkmnt\AppData\Local\Temp\ccBdSSuH.s 			page 139


 5891 251e 1C       		.byte	0x1c
 5892 251f 14       		.uleb128 0x14
 5893 2520 AA380000 		.4byte	.LASF843
 5894 2524 15       		.byte	0x15
 5895 2525 2102     		.2byte	0x221
 5896 2527 3E230000 		.4byte	0x233e
 5897 252b 20       		.byte	0x20
 5898 252c 14       		.uleb128 0x14
 5899 252d 1A210000 		.4byte	.LASF844
 5900 2531 15       		.byte	0x15
 5901 2532 2402     		.2byte	0x224
 5902 2534 B4250000 		.4byte	0x25b4
 5903 2538 24       		.byte	0x24
 5904 2539 14       		.uleb128 0x14
 5905 253a 293D0000 		.4byte	.LASF845
 5906 253e 15       		.byte	0x15
 5907 253f 2702     		.2byte	0x227
 5908 2541 BA250000 		.4byte	0x25ba
 5909 2545 28       		.byte	0x28
 5910 2546 14       		.uleb128 0x14
 5911 2547 21090000 		.4byte	.LASF846
 5912 254b 15       		.byte	0x15
 5913 254c 2B02     		.2byte	0x22b
 5914 254e AD230000 		.4byte	0x23ad
 5915 2552 2C       		.byte	0x2c
 5916 2553 14       		.uleb128 0x14
 5917 2554 D8490000 		.4byte	.LASF847
 5918 2558 15       		.byte	0x15
 5919 2559 2E02     		.2byte	0x22e
 5920 255b C5250000 		.4byte	0x25c5
 5921 255f 30       		.byte	0x30
 5922 2560 14       		.uleb128 0x14
 5923 2561 07550000 		.4byte	.LASF848
 5924 2565 15       		.byte	0x15
 5925 2566 3202     		.2byte	0x232
 5926 2568 CB250000 		.4byte	0x25cb
 5927 256c 34       		.byte	0x34
 5928 256d 14       		.uleb128 0x14
 5929 256e 40090000 		.4byte	.LASF849
 5930 2572 15       		.byte	0x15
 5931 2573 3502     		.2byte	0x235
 5932 2575 D6250000 		.4byte	0x25d6
 5933 2579 38       		.byte	0x38
 5934 257a 00       		.byte	0
 5935 257b 18       		.uleb128 0x18
 5936 257c 04       		.byte	0x4
 5937 257d FE1F0000 		.4byte	0x1ffe
 5938 2581 18       		.uleb128 0x18
 5939 2582 04       		.byte	0x4
 5940 2583 6C210000 		.4byte	0x216c
 5941 2587 18       		.uleb128 0x18
 5942 2588 04       		.byte	0x4
 5943 2589 8A1E0000 		.4byte	0x1e8a
 5944 258d 18       		.uleb128 0x18
 5945 258e 04       		.byte	0x4
 5946 258f 11220000 		.4byte	0x2211
 5947 2593 18       		.uleb128 0x18
ARM GAS  C:\Users\hkmnt\AppData\Local\Temp\ccBdSSuH.s 			page 140


 5948 2594 04       		.byte	0x4
 5949 2595 99250000 		.4byte	0x2599
 5950 2599 07       		.uleb128 0x7
 5951 259a 3E240000 		.4byte	0x243e
 5952 259e 18       		.uleb128 0x18
 5953 259f 04       		.byte	0x4
 5954 25a0 A4250000 		.4byte	0x25a4
 5955 25a4 07       		.uleb128 0x7
 5956 25a5 76230000 		.4byte	0x2376
 5957 25a9 18       		.uleb128 0x18
 5958 25aa 04       		.byte	0x4
 5959 25ab AF250000 		.4byte	0x25af
 5960 25af 07       		.uleb128 0x7
 5961 25b0 FC200000 		.4byte	0x20fc
 5962 25b4 18       		.uleb128 0x18
 5963 25b5 04       		.byte	0x4
 5964 25b6 701D0000 		.4byte	0x1d70
 5965 25ba 18       		.uleb128 0x18
 5966 25bb 04       		.byte	0x4
 5967 25bc C0250000 		.4byte	0x25c0
 5968 25c0 07       		.uleb128 0x7
 5969 25c1 A2240000 		.4byte	0x24a2
 5970 25c5 18       		.uleb128 0x18
 5971 25c6 04       		.byte	0x4
 5972 25c7 0C1D0000 		.4byte	0x1d0c
 5973 25cb 18       		.uleb128 0x18
 5974 25cc 04       		.byte	0x4
 5975 25cd D1250000 		.4byte	0x25d1
 5976 25d1 07       		.uleb128 0x7
 5977 25d2 9D110000 		.4byte	0x119d
 5978 25d6 18       		.uleb128 0x18
 5979 25d7 04       		.byte	0x4
 5980 25d8 C5160000 		.4byte	0x16c5
 5981 25dc 12       		.uleb128 0x12
 5982 25dd 8A3B0000 		.4byte	.LASF850
 5983 25e1 15       		.byte	0x15
 5984 25e2 4C02     		.2byte	0x24c
 5985 25e4 AE240000 		.4byte	0x24ae
 5986 25e8 0F       		.uleb128 0xf
 5987 25e9 01       		.byte	0x1
 5988 25ea 53000000 		.4byte	0x53
 5989 25ee 16       		.byte	0x16
 5990 25ef 29       		.byte	0x29
 5991 25f0 31260000 		.4byte	0x2631
 5992 25f4 11       		.uleb128 0x11
 5993 25f5 CA4F0000 		.4byte	.LASF851
 5994 25f9 00       		.byte	0
 5995 25fa 11       		.uleb128 0x11
 5996 25fb 07430000 		.4byte	.LASF852
 5997 25ff 01       		.byte	0x1
 5998 2600 11       		.uleb128 0x11
 5999 2601 EE420000 		.4byte	.LASF853
 6000 2605 02       		.byte	0x2
 6001 2606 11       		.uleb128 0x11
 6002 2607 72350000 		.4byte	.LASF854
 6003 260b 03       		.byte	0x3
 6004 260c 11       		.uleb128 0x11
ARM GAS  C:\Users\hkmnt\AppData\Local\Temp\ccBdSSuH.s 			page 141


 6005 260d 662F0000 		.4byte	.LASF855
 6006 2611 04       		.byte	0x4
 6007 2612 11       		.uleb128 0x11
 6008 2613 C4350000 		.4byte	.LASF856
 6009 2617 05       		.byte	0x5
 6010 2618 11       		.uleb128 0x11
 6011 2619 8E4F0000 		.4byte	.LASF857
 6012 261d 06       		.byte	0x6
 6013 261e 11       		.uleb128 0x11
 6014 261f 43200000 		.4byte	.LASF858
 6015 2623 07       		.byte	0x7
 6016 2624 11       		.uleb128 0x11
 6017 2625 7B310000 		.4byte	.LASF859
 6018 2629 08       		.byte	0x8
 6019 262a 11       		.uleb128 0x11
 6020 262b A0000000 		.4byte	.LASF860
 6021 262f 09       		.byte	0x9
 6022 2630 00       		.byte	0
 6023 2631 12       		.uleb128 0x12
 6024 2632 6D270000 		.4byte	.LASF861
 6025 2636 17       		.byte	0x17
 6026 2637 4709     		.2byte	0x947
 6027 2639 3D260000 		.4byte	0x263d
 6028 263d 18       		.uleb128 0x18
 6029 263e 04       		.byte	0x4
 6030 263f 43260000 		.4byte	0x2643
 6031 2643 22       		.uleb128 0x22
 6032 2644 891A0000 		.4byte	0x1a89
 6033 2648 57260000 		.4byte	0x2657
 6034 264c 1F       		.uleb128 0x1f
 6035 264d E5000000 		.4byte	0xe5
 6036 2651 1F       		.uleb128 0x1f
 6037 2652 B0000000 		.4byte	0xb0
 6038 2656 00       		.byte	0
 6039 2657 13       		.uleb128 0x13
 6040 2658 0C       		.byte	0xc
 6041 2659 17       		.byte	0x17
 6042 265a 4A09     		.2byte	0x94a
 6043 265c 7B260000 		.4byte	0x267b
 6044 2660 14       		.uleb128 0x14
 6045 2661 E4540000 		.4byte	.LASF862
 6046 2665 17       		.byte	0x17
 6047 2666 4D09     		.2byte	0x94d
 6048 2668 7B260000 		.4byte	0x267b
 6049 266c 00       		.byte	0
 6050 266d 14       		.uleb128 0x14
 6051 266e D33B0000 		.4byte	.LASF863
 6052 2672 17       		.byte	0x17
 6053 2673 5009     		.2byte	0x950
 6054 2675 B9000000 		.4byte	0xb9
 6055 2679 08       		.byte	0x8
 6056 267a 00       		.byte	0
 6057 267b 08       		.uleb128 0x8
 6058 267c 31260000 		.4byte	0x2631
 6059 2680 8B260000 		.4byte	0x268b
 6060 2684 09       		.uleb128 0x9
 6061 2685 A9000000 		.4byte	0xa9
ARM GAS  C:\Users\hkmnt\AppData\Local\Temp\ccBdSSuH.s 			page 142


 6062 2689 01       		.byte	0x1
 6063 268a 00       		.byte	0
 6064 268b 12       		.uleb128 0x12
 6065 268c C13E0000 		.4byte	.LASF864
 6066 2690 17       		.byte	0x17
 6067 2691 5109     		.2byte	0x951
 6068 2693 57260000 		.4byte	0x2657
 6069 2697 23       		.uleb128 0x23
 6070 2698 8D340000 		.4byte	.LASF879
 6071 269c 02       		.byte	0x2
 6072 269d 6C03     		.2byte	0x36c
 6073 269f A0200000 		.4byte	0x20a0
 6074 26a3 03       		.byte	0x3
 6075 26a4 B5260000 		.4byte	0x26b5
 6076 26a8 24       		.uleb128 0x24
 6077 26a9 E0410000 		.4byte	.LASF580
 6078 26ad 02       		.byte	0x2
 6079 26ae 6C03     		.2byte	0x36c
 6080 26b0 BD170000 		.4byte	0x17bd
 6081 26b4 00       		.byte	0
 6082 26b5 25       		.uleb128 0x25
 6083 26b6 472A0000 		.4byte	.LASF866
 6084 26ba 02       		.byte	0x2
 6085 26bb F902     		.2byte	0x2f9
 6086 26bd 03       		.byte	0x3
 6087 26be CF260000 		.4byte	0x26cf
 6088 26c2 24       		.uleb128 0x24
 6089 26c3 74060000 		.4byte	.LASF865
 6090 26c7 02       		.byte	0x2
 6091 26c8 F902     		.2byte	0x2f9
 6092 26ca 58200000 		.4byte	0x2058
 6093 26ce 00       		.byte	0
 6094 26cf 26       		.uleb128 0x26
 6095 26d0 561A0000 		.4byte	.LASF928
 6096 26d4 02       		.byte	0x2
 6097 26d5 E702     		.2byte	0x2e7
 6098 26d7 58200000 		.4byte	0x2058
 6099 26db 03       		.byte	0x3
 6100 26dc 25       		.uleb128 0x25
 6101 26dd D4470000 		.4byte	.LASF867
 6102 26e1 02       		.byte	0x2
 6103 26e2 7C03     		.2byte	0x37c
 6104 26e4 03       		.byte	0x3
 6105 26e5 02270000 		.4byte	0x2702
 6106 26e9 24       		.uleb128 0x24
 6107 26ea E0410000 		.4byte	.LASF580
 6108 26ee 02       		.byte	0x2
 6109 26ef 7C03     		.2byte	0x37c
 6110 26f1 BD170000 		.4byte	0x17bd
 6111 26f5 24       		.uleb128 0x24
 6112 26f6 74060000 		.4byte	.LASF865
 6113 26fa 02       		.byte	0x2
 6114 26fb 7D03     		.2byte	0x37d
 6115 26fd A0200000 		.4byte	0x20a0
 6116 2701 00       		.byte	0
 6117 2702 27       		.uleb128 0x27
 6118 2703 F03B0000 		.4byte	.LASF929
ARM GAS  C:\Users\hkmnt\AppData\Local\Temp\ccBdSSuH.s 			page 143


 6119 2707 01       		.byte	0x1
 6120 2708 A7       		.byte	0xa7
 6121 2709 00000000 		.4byte	.LFB257
 6122 270d 44000000 		.4byte	.LFE257-.LFB257
 6123 2711 01       		.uleb128 0x1
 6124 2712 9C       		.byte	0x9c
 6125 2713 61270000 		.4byte	0x2761
 6126 2717 28       		.uleb128 0x28
 6127 2718 2E030000 		.4byte	.LASF868
 6128 271c 01       		.byte	0x1
 6129 271d A7       		.byte	0xa7
 6130 271e 61270000 		.4byte	0x2761
 6131 2722 00000000 		.4byte	.LLST0
 6132 2726 28       		.uleb128 0x28
 6133 2727 E74F0000 		.4byte	.LASF869
 6134 272b 01       		.byte	0x1
 6135 272c A8       		.byte	0xa8
 6136 272d 891A0000 		.4byte	0x1a89
 6137 2731 3A000000 		.4byte	.LLST1
 6138 2735 29       		.uleb128 0x29
 6139 2736 85420000 		.4byte	.LASF871
 6140 273a 01       		.byte	0x1
 6141 273b AA       		.byte	0xaa
 6142 273c CF1B0000 		.4byte	0x1bcf
 6143 2740 02       		.uleb128 0x2
 6144 2741 91       		.byte	0x91
 6145 2742 70       		.sleb128 -16
 6146 2743 2A       		.uleb128 0x2a
 6147 2744 32000000 		.4byte	.LVL2
 6148 2748 59300000 		.4byte	0x3059
 6149 274c 57270000 		.4byte	0x2757
 6150 2750 2B       		.uleb128 0x2b
 6151 2751 01       		.uleb128 0x1
 6152 2752 50       		.byte	0x50
 6153 2753 02       		.uleb128 0x2
 6154 2754 7D       		.byte	0x7d
 6155 2755 00       		.sleb128 0
 6156 2756 00       		.byte	0
 6157 2757 2C       		.uleb128 0x2c
 6158 2758 3A000000 		.4byte	.LVL5
 6159 275c 65300000 		.4byte	0x3065
 6160 2760 00       		.byte	0
 6161 2761 18       		.uleb128 0x18
 6162 2762 04       		.byte	0x4
 6163 2763 67270000 		.4byte	0x2767
 6164 2767 07       		.uleb128 0x7
 6165 2768 1D220000 		.4byte	0x221d
 6166 276c 2D       		.uleb128 0x2d
 6167 276d BA2A0000 		.4byte	.LASF874
 6168 2771 01       		.byte	0x1
 6169 2772 55       		.byte	0x55
 6170 2773 0E160000 		.4byte	0x160e
 6171 2777 00000000 		.4byte	.LFB255
 6172 277b 60000000 		.4byte	.LFE255-.LFB255
 6173 277f 01       		.uleb128 0x1
 6174 2780 9C       		.byte	0x9c
 6175 2781 C8270000 		.4byte	0x27c8
ARM GAS  C:\Users\hkmnt\AppData\Local\Temp\ccBdSSuH.s 			page 144


 6176 2785 28       		.uleb128 0x28
 6177 2786 550D0000 		.4byte	.LASF870
 6178 278a 01       		.byte	0x1
 6179 278b 55       		.byte	0x55
 6180 278c 31260000 		.4byte	0x2631
 6181 2790 74000000 		.4byte	.LLST2
 6182 2794 2E       		.uleb128 0x2e
 6183 2795 55440000 		.4byte	.LASF872
 6184 2799 01       		.byte	0x1
 6185 279a 57       		.byte	0x57
 6186 279b 0E160000 		.4byte	0x160e
 6187 279f CC000000 		.4byte	.LLST3
 6188 27a3 2E       		.uleb128 0x2e
 6189 27a4 DE4E0000 		.4byte	.LASF873
 6190 27a8 01       		.byte	0x1
 6191 27a9 58       		.byte	0x58
 6192 27aa B9000000 		.4byte	0xb9
 6193 27ae EB000000 		.4byte	.LLST4
 6194 27b2 2F       		.uleb128 0x2f
 6195 27b3 00000000 		.4byte	.Ldebug_ranges0+0
 6196 27b7 30       		.uleb128 0x30
 6197 27b8 69647800 		.ascii	"idx\000"
 6198 27bc 01       		.byte	0x1
 6199 27bd 61       		.byte	0x61
 6200 27be E5000000 		.4byte	0xe5
 6201 27c2 21010000 		.4byte	.LLST5
 6202 27c6 00       		.byte	0
 6203 27c7 00       		.byte	0
 6204 27c8 2D       		.uleb128 0x2d
 6205 27c9 FB0E0000 		.4byte	.LASF875
 6206 27cd 01       		.byte	0x1
 6207 27ce 88       		.byte	0x88
 6208 27cf 891A0000 		.4byte	0x1a89
 6209 27d3 00000000 		.4byte	.LFB256
 6210 27d7 38000000 		.4byte	.LFE256-.LFB256
 6211 27db 01       		.uleb128 0x1
 6212 27dc 9C       		.byte	0x9c
 6213 27dd 30280000 		.4byte	0x2830
 6214 27e1 28       		.uleb128 0x28
 6215 27e2 104E0000 		.4byte	.LASF876
 6216 27e6 01       		.byte	0x1
 6217 27e7 88       		.byte	0x88
 6218 27e8 E5000000 		.4byte	0xe5
 6219 27ec 3F010000 		.4byte	.LLST6
 6220 27f0 28       		.uleb128 0x28
 6221 27f1 2E030000 		.4byte	.LASF868
 6222 27f5 01       		.byte	0x1
 6223 27f6 89       		.byte	0x89
 6224 27f7 B0000000 		.4byte	0xb0
 6225 27fb 6B010000 		.4byte	.LLST7
 6226 27ff 30       		.uleb128 0x30
 6227 2800 69647800 		.ascii	"idx\000"
 6228 2804 01       		.byte	0x1
 6229 2805 8B       		.byte	0x8b
 6230 2806 E5000000 		.4byte	0xe5
 6231 280a 97010000 		.4byte	.LLST8
 6232 280e 2E       		.uleb128 0x2e
ARM GAS  C:\Users\hkmnt\AppData\Local\Temp\ccBdSSuH.s 			page 145


 6233 280f E74F0000 		.4byte	.LASF869
 6234 2813 01       		.byte	0x1
 6235 2814 8C       		.byte	0x8c
 6236 2815 891A0000 		.4byte	0x1a89
 6237 2819 B6010000 		.4byte	.LLST9
 6238 281d 31       		.uleb128 0x31
 6239 281e 18000000 		.4byte	.LVL23
 6240 2822 2B       		.uleb128 0x2b
 6241 2823 01       		.uleb128 0x1
 6242 2824 50       		.byte	0x50
 6243 2825 02       		.uleb128 0x2
 6244 2826 76       		.byte	0x76
 6245 2827 00       		.sleb128 0
 6246 2828 2B       		.uleb128 0x2b
 6247 2829 01       		.uleb128 0x1
 6248 282a 51       		.byte	0x51
 6249 282b 02       		.uleb128 0x2
 6250 282c 75       		.byte	0x75
 6251 282d 00       		.sleb128 0
 6252 282e 00       		.byte	0
 6253 282f 00       		.byte	0
 6254 2830 32       		.uleb128 0x32
 6255 2831 C1200000 		.4byte	.LASF877
 6256 2835 01       		.byte	0x1
 6257 2836 1401     		.2byte	0x114
 6258 2838 B9000000 		.4byte	0xb9
 6259 283c 00000000 		.4byte	.LFB259
 6260 2840 1E000000 		.4byte	.LFE259-.LFB259
 6261 2844 01       		.uleb128 0x1
 6262 2845 9C       		.byte	0x9c
 6263 2846 79280000 		.4byte	0x2879
 6264 284a 33       		.uleb128 0x33
 6265 284b D8490000 		.4byte	.LASF847
 6266 284f 01       		.byte	0x1
 6267 2850 1401     		.2byte	0x114
 6268 2852 79280000 		.4byte	0x2879
 6269 2856 E0010000 		.4byte	.LLST10
 6270 285a 34       		.uleb128 0x34
 6271 285b 21060000 		.4byte	.LASF878
 6272 285f 01       		.byte	0x1
 6273 2860 1601     		.2byte	0x116
 6274 2862 B9000000 		.4byte	0xb9
 6275 2866 33020000 		.4byte	.LLST11
 6276 286a 35       		.uleb128 0x35
 6277 286b 6900     		.ascii	"i\000"
 6278 286d 01       		.byte	0x1
 6279 286e 1701     		.2byte	0x117
 6280 2870 E5000000 		.4byte	0xe5
 6281 2874 52020000 		.4byte	.LLST12
 6282 2878 00       		.byte	0
 6283 2879 18       		.uleb128 0x18
 6284 287a 04       		.byte	0x4
 6285 287b 7F280000 		.4byte	0x287f
 6286 287f 07       		.uleb128 0x7
 6287 2880 0C1D0000 		.4byte	0x1d0c
 6288 2884 23       		.uleb128 0x23
 6289 2885 1E240000 		.4byte	.LASF880
ARM GAS  C:\Users\hkmnt\AppData\Local\Temp\ccBdSSuH.s 			page 146


 6290 2889 02       		.byte	0x2
 6291 288a B503     		.2byte	0x3b5
 6292 288c BD170000 		.4byte	0x17bd
 6293 2890 03       		.byte	0x3
 6294 2891 B8280000 		.4byte	0x28b8
 6295 2895 24       		.uleb128 0x24
 6296 2896 D4300000 		.4byte	.LASF569
 6297 289a 02       		.byte	0x2
 6298 289b B503     		.2byte	0x3b5
 6299 289d B9000000 		.4byte	0xb9
 6300 28a1 36       		.uleb128 0x36
 6301 28a2 6900     		.ascii	"i\000"
 6302 28a4 02       		.byte	0x2
 6303 28a5 B703     		.2byte	0x3b7
 6304 28a7 E5000000 		.4byte	0xe5
 6305 28ab 37       		.uleb128 0x37
 6306 28ac 3C3E0000 		.4byte	.LASF881
 6307 28b0 02       		.byte	0x2
 6308 28b1 B803     		.2byte	0x3b8
 6309 28b3 BD170000 		.4byte	0x17bd
 6310 28b7 00       		.byte	0
 6311 28b8 38       		.uleb128 0x38
 6312 28b9 EB0D0000 		.4byte	.LASF930
 6313 28bd 01       		.byte	0x1
 6314 28be 3601     		.2byte	0x136
 6315 28c0 00000000 		.4byte	.LFB260
 6316 28c4 38060000 		.4byte	.LFE260-.LFB260
 6317 28c8 01       		.uleb128 0x1
 6318 28c9 9C       		.byte	0x9c
 6319 28ca E22E0000 		.4byte	0x2ee2
 6320 28ce 33       		.uleb128 0x33
 6321 28cf F82F0000 		.4byte	.LASF882
 6322 28d3 01       		.byte	0x1
 6323 28d4 3601     		.2byte	0x136
 6324 28d6 E9140000 		.4byte	0x14e9
 6325 28da 70020000 		.4byte	.LLST13
 6326 28de 33       		.uleb128 0x33
 6327 28df 880F0000 		.4byte	.LASF883
 6328 28e3 01       		.byte	0x1
 6329 28e4 3701     		.2byte	0x137
 6330 28e6 B0000000 		.4byte	0xb0
 6331 28ea 53040000 		.4byte	.LLST14
 6332 28ee 39       		.uleb128 0x39
 6333 28ef 56010000 		.4byte	.LBB80
 6334 28f3 48000000 		.4byte	.LBE80-.LBB80
 6335 28f7 0C290000 		.4byte	0x290c
 6336 28fb 34       		.uleb128 0x34
 6337 28fc E2260000 		.4byte	.LASF884
 6338 2900 01       		.byte	0x1
 6339 2901 5E01     		.2byte	0x15e
 6340 2903 E5000000 		.4byte	0xe5
 6341 2907 37060000 		.4byte	.LLST15
 6342 290b 00       		.byte	0
 6343 290c 39       		.uleb128 0x39
 6344 290d C8010000 		.4byte	.LBB81
 6345 2911 10000000 		.4byte	.LBE81-.LBB81
 6346 2915 39290000 		.4byte	0x2939
ARM GAS  C:\Users\hkmnt\AppData\Local\Temp\ccBdSSuH.s 			page 147


 6347 2919 3A       		.uleb128 0x3a
 6348 291a 83450000 		.4byte	.LASF885
 6349 291e 01       		.byte	0x1
 6350 291f 7801     		.2byte	0x178
 6351 2921 43110000 		.4byte	0x1143
 6352 2925 02       		.uleb128 0x2
 6353 2926 91       		.byte	0x91
 6354 2927 58       		.sleb128 -40
 6355 2928 3B       		.uleb128 0x3b
 6356 2929 D8010000 		.4byte	.LVL47
 6357 292d 71300000 		.4byte	0x3071
 6358 2931 2B       		.uleb128 0x2b
 6359 2932 01       		.uleb128 0x1
 6360 2933 50       		.byte	0x50
 6361 2934 02       		.uleb128 0x2
 6362 2935 91       		.byte	0x91
 6363 2936 58       		.sleb128 -40
 6364 2937 00       		.byte	0
 6365 2938 00       		.byte	0
 6366 2939 3C       		.uleb128 0x3c
 6367 293a B5260000 		.4byte	0x26b5
 6368 293e E6010000 		.4byte	.LBB82
 6369 2942 04000000 		.4byte	.LBE82-.LBB82
 6370 2946 01       		.byte	0x1
 6371 2947 8901     		.2byte	0x189
 6372 2949 57290000 		.4byte	0x2957
 6373 294d 3D       		.uleb128 0x3d
 6374 294e C2260000 		.4byte	0x26c2
 6375 2952 4A060000 		.4byte	.LLST16
 6376 2956 00       		.byte	0
 6377 2957 39       		.uleb128 0x39
 6378 2958 10020000 		.4byte	.LBB84
 6379 295c 48000000 		.4byte	.LBE84-.LBB84
 6380 2960 98290000 		.4byte	0x2998
 6381 2964 3A       		.uleb128 0x3a
 6382 2965 C54E0000 		.4byte	.LASF886
 6383 2969 01       		.byte	0x1
 6384 296a A801     		.2byte	0x1a8
 6385 296c 1D180000 		.4byte	0x181d
 6386 2970 02       		.uleb128 0x2
 6387 2971 91       		.byte	0x91
 6388 2972 58       		.sleb128 -40
 6389 2973 2A       		.uleb128 0x2a
 6390 2974 2E020000 		.4byte	.LVL56
 6391 2978 7D300000 		.4byte	0x307d
 6392 297c 87290000 		.4byte	0x2987
 6393 2980 2B       		.uleb128 0x2b
 6394 2981 01       		.uleb128 0x1
 6395 2982 50       		.byte	0x50
 6396 2983 02       		.uleb128 0x2
 6397 2984 91       		.byte	0x91
 6398 2985 58       		.sleb128 -40
 6399 2986 00       		.byte	0
 6400 2987 3B       		.uleb128 0x3b
 6401 2988 4C020000 		.4byte	.LVL57
 6402 298c 7D300000 		.4byte	0x307d
 6403 2990 2B       		.uleb128 0x2b
ARM GAS  C:\Users\hkmnt\AppData\Local\Temp\ccBdSSuH.s 			page 148


 6404 2991 01       		.uleb128 0x1
 6405 2992 50       		.byte	0x50
 6406 2993 02       		.uleb128 0x2
 6407 2994 91       		.byte	0x91
 6408 2995 58       		.sleb128 -40
 6409 2996 00       		.byte	0
 6410 2997 00       		.byte	0
 6411 2998 3C       		.uleb128 0x3c
 6412 2999 84280000 		.4byte	0x2884
 6413 299d 60020000 		.4byte	.LBB85
 6414 29a1 64000000 		.4byte	.LBE85-.LBB85
 6415 29a5 01       		.byte	0x1
 6416 29a6 C401     		.2byte	0x1c4
 6417 29a8 082A0000 		.4byte	0x2a08
 6418 29ac 3D       		.uleb128 0x3d
 6419 29ad 95280000 		.4byte	0x2895
 6420 29b1 5E060000 		.4byte	.LLST17
 6421 29b5 3E       		.uleb128 0x3e
 6422 29b6 60020000 		.4byte	.LBB86
 6423 29ba 64000000 		.4byte	.LBE86-.LBB86
 6424 29be 3F       		.uleb128 0x3f
 6425 29bf A1280000 		.4byte	0x28a1
 6426 29c3 71060000 		.4byte	.LLST18
 6427 29c7 40       		.uleb128 0x40
 6428 29c8 AB280000 		.4byte	0x28ab
 6429 29cc 02       		.uleb128 0x2
 6430 29cd 91       		.byte	0x91
 6431 29ce 58       		.sleb128 -40
 6432 29cf 3C       		.uleb128 0x3c
 6433 29d0 97260000 		.4byte	0x2697
 6434 29d4 76020000 		.4byte	.LBB87
 6435 29d8 0E000000 		.4byte	.LBE87-.LBB87
 6436 29dc 02       		.byte	0x2
 6437 29dd C003     		.2byte	0x3c0
 6438 29df EC290000 		.4byte	0x29ec
 6439 29e3 41       		.uleb128 0x41
 6440 29e4 A8260000 		.4byte	0x26a8
 6441 29e8 02       		.uleb128 0x2
 6442 29e9 91       		.byte	0x91
 6443 29ea 50       		.sleb128 -48
 6444 29eb 00       		.byte	0
 6445 29ec 3B       		.uleb128 0x3b
 6446 29ed B8020000 		.4byte	.LVL69
 6447 29f1 89300000 		.4byte	0x3089
 6448 29f5 2B       		.uleb128 0x2b
 6449 29f6 01       		.uleb128 0x1
 6450 29f7 50       		.byte	0x50
 6451 29f8 05       		.uleb128 0x5
 6452 29f9 03       		.byte	0x3
 6453 29fa 00000000 		.4byte	.LC2
 6454 29fe 2B       		.uleb128 0x2b
 6455 29ff 01       		.uleb128 0x1
 6456 2a00 51       		.byte	0x51
 6457 2a01 03       		.uleb128 0x3
 6458 2a02 0A       		.byte	0xa
 6459 2a03 CA03     		.2byte	0x3ca
 6460 2a05 00       		.byte	0
ARM GAS  C:\Users\hkmnt\AppData\Local\Temp\ccBdSSuH.s 			page 149


 6461 2a06 00       		.byte	0
 6462 2a07 00       		.byte	0
 6463 2a08 39       		.uleb128 0x39
 6464 2a09 D0020000 		.4byte	.LBB89
 6465 2a0d 28000000 		.4byte	.LBE89-.LBB89
 6466 2a11 422A0000 		.4byte	0x2a42
 6467 2a15 34       		.uleb128 0x34
 6468 2a16 DD2A0000 		.4byte	.LASF887
 6469 2a1a 01       		.byte	0x1
 6470 2a1b CC01     		.2byte	0x1cc
 6471 2a1d E22E0000 		.4byte	0x2ee2
 6472 2a21 9B060000 		.4byte	.LLST19
 6473 2a25 3E       		.uleb128 0x3e
 6474 2a26 DC020000 		.4byte	.LBB90
 6475 2a2a 10000000 		.4byte	.LBE90-.LBB90
 6476 2a2e 3A       		.uleb128 0x3a
 6477 2a2f 7C340000 		.4byte	.LASF888
 6478 2a33 01       		.byte	0x1
 6479 2a34 D301     		.2byte	0x1d3
 6480 2a36 191C0000 		.4byte	0x1c19
 6481 2a3a 05       		.uleb128 0x5
 6482 2a3b 03       		.byte	0x3
 6483 2a3c 00000000 		.4byte	gPrepWriteReqMem.14272
 6484 2a40 00       		.byte	0
 6485 2a41 00       		.byte	0
 6486 2a42 39       		.uleb128 0x39
 6487 2a43 00030000 		.4byte	.LBB91
 6488 2a47 B0000000 		.4byte	.LBE91-.LBB91
 6489 2a4b CB2A0000 		.4byte	0x2acb
 6490 2a4f 3A       		.uleb128 0x3a
 6491 2a50 02420000 		.4byte	.LASF889
 6492 2a54 01       		.byte	0x1
 6493 2a55 F601     		.2byte	0x1f6
 6494 2a57 BD170000 		.4byte	0x17bd
 6495 2a5b 02       		.uleb128 0x2
 6496 2a5c 91       		.byte	0x91
 6497 2a5d 58       		.sleb128 -40
 6498 2a5e 42       		.uleb128 0x42
 6499 2a5f 84280000 		.4byte	0x2884
 6500 2a63 02030000 		.4byte	.LBB92
 6501 2a67 A2000000 		.4byte	.LBE92-.LBB92
 6502 2a6b 01       		.byte	0x1
 6503 2a6c F701     		.2byte	0x1f7
 6504 2a6e 3D       		.uleb128 0x3d
 6505 2a6f 95280000 		.4byte	0x2895
 6506 2a73 AE060000 		.4byte	.LLST20
 6507 2a77 3E       		.uleb128 0x3e
 6508 2a78 02030000 		.4byte	.LBB93
 6509 2a7c A2000000 		.4byte	.LBE93-.LBB93
 6510 2a80 3F       		.uleb128 0x3f
 6511 2a81 A1280000 		.4byte	0x28a1
 6512 2a85 C1060000 		.4byte	.LLST21
 6513 2a89 40       		.uleb128 0x40
 6514 2a8a AB280000 		.4byte	0x28ab
 6515 2a8e 02       		.uleb128 0x2
 6516 2a8f 91       		.byte	0x91
 6517 2a90 58       		.sleb128 -40
ARM GAS  C:\Users\hkmnt\AppData\Local\Temp\ccBdSSuH.s 			page 150


 6518 2a91 3C       		.uleb128 0x3c
 6519 2a92 97260000 		.4byte	0x2697
 6520 2a96 56030000 		.4byte	.LBB94
 6521 2a9a 0E000000 		.4byte	.LBE94-.LBB94
 6522 2a9e 02       		.byte	0x2
 6523 2a9f C003     		.2byte	0x3c0
 6524 2aa1 AE2A0000 		.4byte	0x2aae
 6525 2aa5 41       		.uleb128 0x41
 6526 2aa6 A8260000 		.4byte	0x26a8
 6527 2aaa 02       		.uleb128 0x2
 6528 2aab 91       		.byte	0x91
 6529 2aac 54       		.sleb128 -44
 6530 2aad 00       		.byte	0
 6531 2aae 3B       		.uleb128 0x3b
 6532 2aaf 98030000 		.4byte	.LVL80
 6533 2ab3 89300000 		.4byte	0x3089
 6534 2ab7 2B       		.uleb128 0x2b
 6535 2ab8 01       		.uleb128 0x1
 6536 2ab9 50       		.byte	0x50
 6537 2aba 05       		.uleb128 0x5
 6538 2abb 03       		.byte	0x3
 6539 2abc 00000000 		.4byte	.LC2
 6540 2ac0 2B       		.uleb128 0x2b
 6541 2ac1 01       		.uleb128 0x1
 6542 2ac2 51       		.byte	0x51
 6543 2ac3 03       		.uleb128 0x3
 6544 2ac4 0A       		.byte	0xa
 6545 2ac5 CA03     		.2byte	0x3ca
 6546 2ac7 00       		.byte	0
 6547 2ac8 00       		.byte	0
 6548 2ac9 00       		.byte	0
 6549 2aca 00       		.byte	0
 6550 2acb 39       		.uleb128 0x39
 6551 2acc B6030000 		.4byte	.LBB96
 6552 2ad0 8C000000 		.4byte	.LBE96-.LBB96
 6553 2ad4 8C2B0000 		.4byte	0x2b8c
 6554 2ad8 34       		.uleb128 0x34
 6555 2ad9 500E0000 		.4byte	.LASF890
 6556 2add 01       		.byte	0x1
 6557 2ade 0702     		.2byte	0x207
 6558 2ae0 E82E0000 		.4byte	0x2ee8
 6559 2ae4 EB060000 		.4byte	.LLST22
 6560 2ae8 3C       		.uleb128 0x3c
 6561 2ae9 B5260000 		.4byte	0x26b5
 6562 2aed C2030000 		.4byte	.LBB97
 6563 2af1 06000000 		.4byte	.LBE97-.LBB97
 6564 2af5 01       		.byte	0x1
 6565 2af6 1302     		.2byte	0x213
 6566 2af8 062B0000 		.4byte	0x2b06
 6567 2afc 3D       		.uleb128 0x3d
 6568 2afd C2260000 		.4byte	0x26c2
 6569 2b01 09070000 		.4byte	.LLST23
 6570 2b05 00       		.byte	0
 6571 2b06 3E       		.uleb128 0x3e
 6572 2b07 C8030000 		.4byte	.LBB99
 6573 2b0b 74000000 		.4byte	.LBE99-.LBB99
 6574 2b0f 3A       		.uleb128 0x3a
ARM GAS  C:\Users\hkmnt\AppData\Local\Temp\ccBdSSuH.s 			page 151


 6575 2b10 7F000000 		.4byte	.LASF891
 6576 2b14 01       		.byte	0x1
 6577 2b15 2202     		.2byte	0x222
 6578 2b17 BD170000 		.4byte	0x17bd
 6579 2b1b 02       		.uleb128 0x2
 6580 2b1c 91       		.byte	0x91
 6581 2b1d 54       		.sleb128 -44
 6582 2b1e 42       		.uleb128 0x42
 6583 2b1f 84280000 		.4byte	0x2884
 6584 2b23 CA030000 		.4byte	.LBB100
 6585 2b27 64000000 		.4byte	.LBE100-.LBB100
 6586 2b2b 01       		.byte	0x1
 6587 2b2c 2202     		.2byte	0x222
 6588 2b2e 3D       		.uleb128 0x3d
 6589 2b2f 95280000 		.4byte	0x2895
 6590 2b33 1D070000 		.4byte	.LLST24
 6591 2b37 3E       		.uleb128 0x3e
 6592 2b38 CA030000 		.4byte	.LBB101
 6593 2b3c 64000000 		.4byte	.LBE101-.LBB101
 6594 2b40 3F       		.uleb128 0x3f
 6595 2b41 A1280000 		.4byte	0x28a1
 6596 2b45 30070000 		.4byte	.LLST25
 6597 2b49 40       		.uleb128 0x40
 6598 2b4a AB280000 		.4byte	0x28ab
 6599 2b4e 02       		.uleb128 0x2
 6600 2b4f 91       		.byte	0x91
 6601 2b50 54       		.sleb128 -44
 6602 2b51 3C       		.uleb128 0x3c
 6603 2b52 97260000 		.4byte	0x2697
 6604 2b56 E0030000 		.4byte	.LBB102
 6605 2b5a 0E000000 		.4byte	.LBE102-.LBB102
 6606 2b5e 02       		.byte	0x2
 6607 2b5f C003     		.2byte	0x3c0
 6608 2b61 6E2B0000 		.4byte	0x2b6e
 6609 2b65 41       		.uleb128 0x41
 6610 2b66 A8260000 		.4byte	0x26a8
 6611 2b6a 02       		.uleb128 0x2
 6612 2b6b 91       		.byte	0x91
 6613 2b6c 58       		.sleb128 -40
 6614 2b6d 00       		.byte	0
 6615 2b6e 3B       		.uleb128 0x3b
 6616 2b6f 22040000 		.4byte	.LVL94
 6617 2b73 89300000 		.4byte	0x3089
 6618 2b77 2B       		.uleb128 0x2b
 6619 2b78 01       		.uleb128 0x1
 6620 2b79 50       		.byte	0x50
 6621 2b7a 05       		.uleb128 0x5
 6622 2b7b 03       		.byte	0x3
 6623 2b7c 00000000 		.4byte	.LC2
 6624 2b80 2B       		.uleb128 0x2b
 6625 2b81 01       		.uleb128 0x1
 6626 2b82 51       		.byte	0x51
 6627 2b83 03       		.uleb128 0x3
 6628 2b84 0A       		.byte	0xa
 6629 2b85 CA03     		.2byte	0x3ca
 6630 2b87 00       		.byte	0
 6631 2b88 00       		.byte	0
ARM GAS  C:\Users\hkmnt\AppData\Local\Temp\ccBdSSuH.s 			page 152


 6632 2b89 00       		.byte	0
 6633 2b8a 00       		.byte	0
 6634 2b8b 00       		.byte	0
 6635 2b8c 43       		.uleb128 0x43
 6636 2b8d CF260000 		.4byte	0x26cf
 6637 2b91 5C040000 		.4byte	.LBB104
 6638 2b95 04000000 		.4byte	.LBE104-.LBB104
 6639 2b99 01       		.byte	0x1
 6640 2b9a 3B02     		.2byte	0x23b
 6641 2b9c 3C       		.uleb128 0x3c
 6642 2b9d B5260000 		.4byte	0x26b5
 6643 2ba1 64040000 		.4byte	.LBB106
 6644 2ba5 08000000 		.4byte	.LBE106-.LBB106
 6645 2ba9 01       		.byte	0x1
 6646 2baa 3D02     		.2byte	0x23d
 6647 2bac BA2B0000 		.4byte	0x2bba
 6648 2bb0 3D       		.uleb128 0x3d
 6649 2bb1 C2260000 		.4byte	0x26c2
 6650 2bb5 5A070000 		.4byte	.LLST26
 6651 2bb9 00       		.byte	0
 6652 2bba 3C       		.uleb128 0x3c
 6653 2bbb B5260000 		.4byte	0x26b5
 6654 2bbf 70040000 		.4byte	.LBB108
 6655 2bc3 08000000 		.4byte	.LBE108-.LBB108
 6656 2bc7 01       		.byte	0x1
 6657 2bc8 4202     		.2byte	0x242
 6658 2bca D82B0000 		.4byte	0x2bd8
 6659 2bce 3D       		.uleb128 0x3d
 6660 2bcf C2260000 		.4byte	0x26c2
 6661 2bd3 6E070000 		.4byte	.LLST27
 6662 2bd7 00       		.byte	0
 6663 2bd8 3C       		.uleb128 0x3c
 6664 2bd9 B5260000 		.4byte	0x26b5
 6665 2bdd 7E040000 		.4byte	.LBB110
 6666 2be1 06000000 		.4byte	.LBE110-.LBB110
 6667 2be5 01       		.byte	0x1
 6668 2be6 4802     		.2byte	0x248
 6669 2be8 F62B0000 		.4byte	0x2bf6
 6670 2bec 3D       		.uleb128 0x3d
 6671 2bed C2260000 		.4byte	0x26c2
 6672 2bf1 82070000 		.4byte	.LLST28
 6673 2bf5 00       		.byte	0
 6674 2bf6 3C       		.uleb128 0x3c
 6675 2bf7 B5260000 		.4byte	0x26b5
 6676 2bfb BC040000 		.4byte	.LBB112
 6677 2bff 08000000 		.4byte	.LBE112-.LBB112
 6678 2c03 01       		.byte	0x1
 6679 2c04 5202     		.2byte	0x252
 6680 2c06 142C0000 		.4byte	0x2c14
 6681 2c0a 3D       		.uleb128 0x3d
 6682 2c0b C2260000 		.4byte	0x26c2
 6683 2c0f 96070000 		.4byte	.LLST29
 6684 2c13 00       		.byte	0
 6685 2c14 3C       		.uleb128 0x3c
 6686 2c15 DC260000 		.4byte	0x26dc
 6687 2c19 D0040000 		.4byte	.LBB114
 6688 2c1d 1A000000 		.4byte	.LBE114-.LBB114
ARM GAS  C:\Users\hkmnt\AppData\Local\Temp\ccBdSSuH.s 			page 153


 6689 2c21 01       		.byte	0x1
 6690 2c22 A302     		.2byte	0x2a3
 6691 2c24 542C0000 		.4byte	0x2c54
 6692 2c28 3D       		.uleb128 0x3d
 6693 2c29 F5260000 		.4byte	0x26f5
 6694 2c2d AA070000 		.4byte	.LLST30
 6695 2c31 41       		.uleb128 0x41
 6696 2c32 E9260000 		.4byte	0x26e9
 6697 2c36 02       		.uleb128 0x2
 6698 2c37 91       		.byte	0x91
 6699 2c38 48       		.sleb128 -56
 6700 2c39 3B       		.uleb128 0x3b
 6701 2c3a EA040000 		.4byte	.LVL113
 6702 2c3e 89300000 		.4byte	0x3089
 6703 2c42 2B       		.uleb128 0x2b
 6704 2c43 01       		.uleb128 0x1
 6705 2c44 50       		.byte	0x50
 6706 2c45 05       		.uleb128 0x5
 6707 2c46 03       		.byte	0x3
 6708 2c47 00000000 		.4byte	.LC2
 6709 2c4b 2B       		.uleb128 0x2b
 6710 2c4c 01       		.uleb128 0x1
 6711 2c4d 51       		.byte	0x51
 6712 2c4e 03       		.uleb128 0x3
 6713 2c4f 0A       		.byte	0xa
 6714 2c50 8603     		.2byte	0x386
 6715 2c52 00       		.byte	0
 6716 2c53 00       		.byte	0
 6717 2c54 3C       		.uleb128 0x3c
 6718 2c55 DC260000 		.4byte	0x26dc
 6719 2c59 0C050000 		.4byte	.LBB116
 6720 2c5d 1A000000 		.4byte	.LBE116-.LBB116
 6721 2c61 01       		.byte	0x1
 6722 2c62 D102     		.2byte	0x2d1
 6723 2c64 942C0000 		.4byte	0x2c94
 6724 2c68 3D       		.uleb128 0x3d
 6725 2c69 F5260000 		.4byte	0x26f5
 6726 2c6d BE070000 		.4byte	.LLST31
 6727 2c71 41       		.uleb128 0x41
 6728 2c72 E9260000 		.4byte	0x26e9
 6729 2c76 02       		.uleb128 0x2
 6730 2c77 91       		.byte	0x91
 6731 2c78 4C       		.sleb128 -52
 6732 2c79 3B       		.uleb128 0x3b
 6733 2c7a 26050000 		.4byte	.LVL121
 6734 2c7e 89300000 		.4byte	0x3089
 6735 2c82 2B       		.uleb128 0x2b
 6736 2c83 01       		.uleb128 0x1
 6737 2c84 50       		.byte	0x50
 6738 2c85 05       		.uleb128 0x5
 6739 2c86 03       		.byte	0x3
 6740 2c87 00000000 		.4byte	.LC2
 6741 2c8b 2B       		.uleb128 0x2b
 6742 2c8c 01       		.uleb128 0x1
 6743 2c8d 51       		.byte	0x51
 6744 2c8e 03       		.uleb128 0x3
 6745 2c8f 0A       		.byte	0xa
ARM GAS  C:\Users\hkmnt\AppData\Local\Temp\ccBdSSuH.s 			page 154


 6746 2c90 8603     		.2byte	0x386
 6747 2c92 00       		.byte	0
 6748 2c93 00       		.byte	0
 6749 2c94 39       		.uleb128 0x39
 6750 2c95 38050000 		.4byte	.LBB118
 6751 2c99 12000000 		.4byte	.LBE118-.LBB118
 6752 2c9d C12C0000 		.4byte	0x2cc1
 6753 2ca1 3A       		.uleb128 0x3a
 6754 2ca2 F5440000 		.4byte	.LASF892
 6755 2ca6 01       		.byte	0x1
 6756 2ca7 E002     		.2byte	0x2e0
 6757 2ca9 321B0000 		.4byte	0x1b32
 6758 2cad 02       		.uleb128 0x2
 6759 2cae 91       		.byte	0x91
 6760 2caf 58       		.sleb128 -40
 6761 2cb0 3B       		.uleb128 0x3b
 6762 2cb1 4A050000 		.4byte	.LVL125
 6763 2cb5 95300000 		.4byte	0x3095
 6764 2cb9 2B       		.uleb128 0x2b
 6765 2cba 01       		.uleb128 0x1
 6766 2cbb 50       		.byte	0x50
 6767 2cbc 02       		.uleb128 0x2
 6768 2cbd 91       		.byte	0x91
 6769 2cbe 58       		.sleb128 -40
 6770 2cbf 00       		.byte	0
 6771 2cc0 00       		.byte	0
 6772 2cc1 39       		.uleb128 0x39
 6773 2cc2 4C050000 		.4byte	.LBB119
 6774 2cc6 68000000 		.4byte	.LBE119-.LBB119
 6775 2cca 702D0000 		.4byte	0x2d70
 6776 2cce 34       		.uleb128 0x34
 6777 2ccf E74F0000 		.4byte	.LASF869
 6778 2cd3 01       		.byte	0x1
 6779 2cd4 F202     		.2byte	0x2f2
 6780 2cd6 891A0000 		.4byte	0x1a89
 6781 2cda D2070000 		.4byte	.LLST32
 6782 2cde 34       		.uleb128 0x34
 6783 2cdf 44300000 		.4byte	.LASF659
 6784 2ce3 01       		.byte	0x1
 6785 2ce4 F302     		.2byte	0x2f3
 6786 2ce6 951A0000 		.4byte	0x1a95
 6787 2cea F0070000 		.4byte	.LLST33
 6788 2cee 39       		.uleb128 0x39
 6789 2cef 8E050000 		.4byte	.LBB120
 6790 2cf3 1C000000 		.4byte	.LBE120-.LBB120
 6791 2cf7 1B2D0000 		.4byte	0x2d1b
 6792 2cfb 3A       		.uleb128 0x3a
 6793 2cfc 85420000 		.4byte	.LASF871
 6794 2d00 01       		.byte	0x1
 6795 2d01 0C03     		.2byte	0x30c
 6796 2d03 CF1B0000 		.4byte	0x1bcf
 6797 2d07 02       		.uleb128 0x2
 6798 2d08 91       		.byte	0x91
 6799 2d09 58       		.sleb128 -40
 6800 2d0a 3B       		.uleb128 0x3b
 6801 2d0b AA050000 		.4byte	.LVL135
 6802 2d0f 59300000 		.4byte	0x3059
ARM GAS  C:\Users\hkmnt\AppData\Local\Temp\ccBdSSuH.s 			page 155


 6803 2d13 2B       		.uleb128 0x2b
 6804 2d14 01       		.uleb128 0x1
 6805 2d15 50       		.byte	0x50
 6806 2d16 02       		.uleb128 0x2
 6807 2d17 91       		.byte	0x91
 6808 2d18 58       		.sleb128 -40
 6809 2d19 00       		.byte	0
 6810 2d1a 00       		.byte	0
 6811 2d1b 2A       		.uleb128 0x2a
 6812 2d1c 52050000 		.4byte	.LVL128
 6813 2d20 A1300000 		.4byte	0x30a1
 6814 2d24 2F2D0000 		.4byte	0x2d2f
 6815 2d28 2B       		.uleb128 0x2b
 6816 2d29 01       		.uleb128 0x1
 6817 2d2a 50       		.byte	0x50
 6818 2d2b 02       		.uleb128 0x2
 6819 2d2c 75       		.byte	0x75
 6820 2d2d 00       		.sleb128 0
 6821 2d2e 00       		.byte	0
 6822 2d2f 2A       		.uleb128 0x2a
 6823 2d30 5E050000 		.4byte	.LVL130
 6824 2d34 C8270000 		.4byte	0x27c8
 6825 2d38 492D0000 		.4byte	0x2d49
 6826 2d3c 2B       		.uleb128 0x2b
 6827 2d3d 01       		.uleb128 0x1
 6828 2d3e 50       		.byte	0x50
 6829 2d3f 02       		.uleb128 0x2
 6830 2d40 74       		.byte	0x74
 6831 2d41 00       		.sleb128 0
 6832 2d42 2B       		.uleb128 0x2b
 6833 2d43 01       		.uleb128 0x1
 6834 2d44 51       		.byte	0x51
 6835 2d45 02       		.uleb128 0x2
 6836 2d46 75       		.byte	0x75
 6837 2d47 00       		.sleb128 0
 6838 2d48 00       		.byte	0
 6839 2d49 2A       		.uleb128 0x2a
 6840 2d4a 66050000 		.4byte	.LVL132
 6841 2d4e 02270000 		.4byte	0x2702
 6842 2d52 5D2D0000 		.4byte	0x2d5d
 6843 2d56 2B       		.uleb128 0x2b
 6844 2d57 01       		.uleb128 0x1
 6845 2d58 50       		.byte	0x50
 6846 2d59 02       		.uleb128 0x2
 6847 2d5a 75       		.byte	0x75
 6848 2d5b 00       		.sleb128 0
 6849 2d5c 00       		.byte	0
 6850 2d5d 31       		.uleb128 0x31
 6851 2d5e 7A050000 		.4byte	.LVL133
 6852 2d62 2B       		.uleb128 0x2b
 6853 2d63 01       		.uleb128 0x1
 6854 2d64 50       		.byte	0x50
 6855 2d65 02       		.uleb128 0x2
 6856 2d66 74       		.byte	0x74
 6857 2d67 00       		.sleb128 0
 6858 2d68 2B       		.uleb128 0x2b
 6859 2d69 01       		.uleb128 0x1
ARM GAS  C:\Users\hkmnt\AppData\Local\Temp\ccBdSSuH.s 			page 156


 6860 2d6a 51       		.byte	0x51
 6861 2d6b 02       		.uleb128 0x2
 6862 2d6c 75       		.byte	0x75
 6863 2d6d 00       		.sleb128 0
 6864 2d6e 00       		.byte	0
 6865 2d6f 00       		.byte	0
 6866 2d70 2A       		.uleb128 0x2a
 6867 2d71 30010000 		.4byte	.LVL37
 6868 2d75 30280000 		.4byte	0x2830
 6869 2d79 842D0000 		.4byte	0x2d84
 6870 2d7d 2B       		.uleb128 0x2b
 6871 2d7e 01       		.uleb128 0x1
 6872 2d7f 50       		.byte	0x50
 6873 2d80 02       		.uleb128 0x2
 6874 2d81 76       		.byte	0x76
 6875 2d82 00       		.sleb128 0
 6876 2d83 00       		.byte	0
 6877 2d84 2A       		.uleb128 0x2a
 6878 2d85 38010000 		.4byte	.LVL38
 6879 2d89 AC300000 		.4byte	0x30ac
 6880 2d8d 982D0000 		.4byte	0x2d98
 6881 2d91 2B       		.uleb128 0x2b
 6882 2d92 01       		.uleb128 0x1
 6883 2d93 50       		.byte	0x50
 6884 2d94 02       		.uleb128 0x2
 6885 2d95 76       		.byte	0x76
 6886 2d96 00       		.sleb128 0
 6887 2d97 00       		.byte	0
 6888 2d98 2A       		.uleb128 0x2a
 6889 2d99 42010000 		.4byte	.LVL39
 6890 2d9d B8300000 		.4byte	0x30b8
 6891 2da1 AB2D0000 		.4byte	0x2dab
 6892 2da5 2B       		.uleb128 0x2b
 6893 2da6 01       		.uleb128 0x1
 6894 2da7 51       		.byte	0x51
 6895 2da8 01       		.uleb128 0x1
 6896 2da9 30       		.byte	0x30
 6897 2daa 00       		.byte	0
 6898 2dab 2A       		.uleb128 0x2a
 6899 2dac 4A010000 		.4byte	.LVL40
 6900 2db0 B8300000 		.4byte	0x30b8
 6901 2db4 BE2D0000 		.4byte	0x2dbe
 6902 2db8 2B       		.uleb128 0x2b
 6903 2db9 01       		.uleb128 0x1
 6904 2dba 51       		.byte	0x51
 6905 2dbb 01       		.uleb128 0x1
 6906 2dbc 31       		.byte	0x31
 6907 2dbd 00       		.byte	0
 6908 2dbe 2C       		.uleb128 0x2c
 6909 2dbf A8010000 		.4byte	.LVL43
 6910 2dc3 AC300000 		.4byte	0x30ac
 6911 2dc7 2A       		.uleb128 0x2a
 6912 2dc8 B2010000 		.4byte	.LVL44
 6913 2dcc B8300000 		.4byte	0x30b8
 6914 2dd0 DA2D0000 		.4byte	0x2dda
 6915 2dd4 2B       		.uleb128 0x2b
 6916 2dd5 01       		.uleb128 0x1
ARM GAS  C:\Users\hkmnt\AppData\Local\Temp\ccBdSSuH.s 			page 157


 6917 2dd6 51       		.byte	0x51
 6918 2dd7 01       		.uleb128 0x1
 6919 2dd8 30       		.byte	0x30
 6920 2dd9 00       		.byte	0
 6921 2dda 2A       		.uleb128 0x2a
 6922 2ddb BC010000 		.4byte	.LVL45
 6923 2ddf B8300000 		.4byte	0x30b8
 6924 2de3 ED2D0000 		.4byte	0x2ded
 6925 2de7 2B       		.uleb128 0x2b
 6926 2de8 01       		.uleb128 0x1
 6927 2de9 51       		.byte	0x51
 6928 2dea 01       		.uleb128 0x1
 6929 2deb 31       		.byte	0x31
 6930 2dec 00       		.byte	0
 6931 2ded 2C       		.uleb128 0x2c
 6932 2dee C8010000 		.4byte	.LVL46
 6933 2df2 C4300000 		.4byte	0x30c4
 6934 2df6 2A       		.uleb128 0x2a
 6935 2df7 F4010000 		.4byte	.LVL52
 6936 2dfb D0300000 		.4byte	0x30d0
 6937 2dff 092E0000 		.4byte	0x2e09
 6938 2e03 2B       		.uleb128 0x2b
 6939 2e04 01       		.uleb128 0x1
 6940 2e05 50       		.byte	0x50
 6941 2e06 01       		.uleb128 0x1
 6942 2e07 3A       		.byte	0x3a
 6943 2e08 00       		.byte	0
 6944 2e09 2C       		.uleb128 0x2c
 6945 2e0a 02020000 		.4byte	.LVL53
 6946 2e0e DC300000 		.4byte	0x30dc
 6947 2e12 2C       		.uleb128 0x2c
 6948 2e13 5C020000 		.4byte	.LVL59
 6949 2e17 C8270000 		.4byte	0x27c8
 6950 2e1b 2C       		.uleb128 0x2c
 6951 2e1c B4030000 		.4byte	.LVL82
 6952 2e20 C8270000 		.4byte	0x27c8
 6953 2e24 2C       		.uleb128 0x2c
 6954 2e25 50040000 		.4byte	.LVL96
 6955 2e29 C8270000 		.4byte	0x27c8
 6956 2e2d 2A       		.uleb128 0x2a
 6957 2e2e B6040000 		.4byte	.LVL103
 6958 2e32 E8300000 		.4byte	0x30e8
 6959 2e36 402E0000 		.4byte	0x2e40
 6960 2e3a 2B       		.uleb128 0x2b
 6961 2e3b 01       		.uleb128 0x1
 6962 2e3c 50       		.byte	0x50
 6963 2e3d 01       		.uleb128 0x1
 6964 2e3e 31       		.byte	0x31
 6965 2e3f 00       		.byte	0
 6966 2e40 2C       		.uleb128 0x2c
 6967 2e41 C8040000 		.4byte	.LVL106
 6968 2e45 C8270000 		.4byte	0x27c8
 6969 2e49 2A       		.uleb128 0x2a
 6970 2e4a 04050000 		.4byte	.LVL114
 6971 2e4e C8270000 		.4byte	0x27c8
 6972 2e52 632E0000 		.4byte	0x2e63
 6973 2e56 2B       		.uleb128 0x2b
ARM GAS  C:\Users\hkmnt\AppData\Local\Temp\ccBdSSuH.s 			page 158


 6974 2e57 01       		.uleb128 0x1
 6975 2e58 50       		.byte	0x50
 6976 2e59 02       		.uleb128 0x2
 6977 2e5a 74       		.byte	0x74
 6978 2e5b 00       		.sleb128 0
 6979 2e5c 2B       		.uleb128 0x2b
 6980 2e5d 01       		.uleb128 0x1
 6981 2e5e 51       		.byte	0x51
 6982 2e5f 02       		.uleb128 0x2
 6983 2e60 75       		.byte	0x75
 6984 2e61 00       		.sleb128 0
 6985 2e62 00       		.byte	0
 6986 2e63 2A       		.uleb128 0x2a
 6987 2e64 36050000 		.4byte	.LVL122
 6988 2e68 C8270000 		.4byte	0x27c8
 6989 2e6c 7D2E0000 		.4byte	0x2e7d
 6990 2e70 2B       		.uleb128 0x2b
 6991 2e71 01       		.uleb128 0x1
 6992 2e72 50       		.byte	0x50
 6993 2e73 02       		.uleb128 0x2
 6994 2e74 74       		.byte	0x74
 6995 2e75 00       		.sleb128 0
 6996 2e76 2B       		.uleb128 0x2b
 6997 2e77 01       		.uleb128 0x1
 6998 2e78 51       		.byte	0x51
 6999 2e79 02       		.uleb128 0x2
 7000 2e7a 75       		.byte	0x75
 7001 2e7b 00       		.sleb128 0
 7002 2e7c 00       		.byte	0
 7003 2e7d 2C       		.uleb128 0x2c
 7004 2e7e BA050000 		.4byte	.LVL137
 7005 2e82 C8270000 		.4byte	0x27c8
 7006 2e86 2C       		.uleb128 0x2c
 7007 2e87 C0050000 		.4byte	.LVL139
 7008 2e8b C8270000 		.4byte	0x27c8
 7009 2e8f 2C       		.uleb128 0x2c
 7010 2e90 C6050000 		.4byte	.LVL141
 7011 2e94 C8270000 		.4byte	0x27c8
 7012 2e98 2C       		.uleb128 0x2c
 7013 2e99 CC050000 		.4byte	.LVL143
 7014 2e9d C8270000 		.4byte	0x27c8
 7015 2ea1 2A       		.uleb128 0x2a
 7016 2ea2 D4050000 		.4byte	.LVL146
 7017 2ea6 F4300000 		.4byte	0x30f4
 7018 2eaa B52E0000 		.4byte	0x2eb5
 7019 2eae 2B       		.uleb128 0x2b
 7020 2eaf 01       		.uleb128 0x1
 7021 2eb0 50       		.byte	0x50
 7022 2eb1 02       		.uleb128 0x2
 7023 2eb2 75       		.byte	0x75
 7024 2eb3 00       		.sleb128 0
 7025 2eb4 00       		.byte	0
 7026 2eb5 2A       		.uleb128 0x2a
 7027 2eb6 DC050000 		.4byte	.LVL147
 7028 2eba C8270000 		.4byte	0x27c8
 7029 2ebe CF2E0000 		.4byte	0x2ecf
 7030 2ec2 2B       		.uleb128 0x2b
ARM GAS  C:\Users\hkmnt\AppData\Local\Temp\ccBdSSuH.s 			page 159


 7031 2ec3 01       		.uleb128 0x1
 7032 2ec4 50       		.byte	0x50
 7033 2ec5 02       		.uleb128 0x2
 7034 2ec6 74       		.byte	0x74
 7035 2ec7 00       		.sleb128 0
 7036 2ec8 2B       		.uleb128 0x2b
 7037 2ec9 01       		.uleb128 0x1
 7038 2eca 51       		.byte	0x51
 7039 2ecb 02       		.uleb128 0x2
 7040 2ecc 75       		.byte	0x75
 7041 2ecd 00       		.sleb128 0
 7042 2ece 00       		.byte	0
 7043 2ecf 31       		.uleb128 0x31
 7044 2ed0 FA050000 		.4byte	.LVL148
 7045 2ed4 2B       		.uleb128 0x2b
 7046 2ed5 01       		.uleb128 0x1
 7047 2ed6 50       		.byte	0x50
 7048 2ed7 02       		.uleb128 0x2
 7049 2ed8 74       		.byte	0x74
 7050 2ed9 00       		.sleb128 0
 7051 2eda 2B       		.uleb128 0x2b
 7052 2edb 01       		.uleb128 0x1
 7053 2edc 51       		.byte	0x51
 7054 2edd 02       		.uleb128 0x2
 7055 2ede 75       		.byte	0x75
 7056 2edf 00       		.sleb128 0
 7057 2ee0 00       		.byte	0
 7058 2ee1 00       		.byte	0
 7059 2ee2 18       		.uleb128 0x18
 7060 2ee3 04       		.byte	0x4
 7061 2ee4 67180000 		.4byte	0x1867
 7062 2ee8 18       		.uleb128 0x18
 7063 2ee9 04       		.byte	0x4
 7064 2eea 151E0000 		.4byte	0x1e15
 7065 2eee 44       		.uleb128 0x44
 7066 2eef 60450000 		.4byte	.LASF893
 7067 2ef3 06       		.byte	0x6
 7068 2ef4 A7       		.byte	0xa7
 7069 2ef5 F92E0000 		.4byte	0x2ef9
 7070 2ef9 18       		.uleb128 0x18
 7071 2efa 04       		.byte	0x4
 7072 2efb FF2E0000 		.4byte	0x2eff
 7073 2eff 07       		.uleb128 0x7
 7074 2f00 6C0D0000 		.4byte	0xd6c
 7075 2f04 45       		.uleb128 0x45
 7076 2f05 402E0000 		.4byte	.LASF894
 7077 2f09 18       		.byte	0x18
 7078 2f0a F907     		.2byte	0x7f9
 7079 2f0c 102F0000 		.4byte	0x2f10
 7080 2f10 06       		.uleb128 0x6
 7081 2f11 DA000000 		.4byte	0xda
 7082 2f15 46       		.uleb128 0x46
 7083 2f16 DD100000 		.4byte	.LASF895
 7084 2f1a 01       		.byte	0x1
 7085 2f1b 2E       		.byte	0x2e
 7086 2f1c 20070000 		.4byte	0x720
 7087 2f20 05       		.uleb128 0x5
ARM GAS  C:\Users\hkmnt\AppData\Local\Temp\ccBdSSuH.s 			page 160


 7088 2f21 03       		.byte	0x3
 7089 2f22 00000000 		.4byte	cy_ble_eventHandlerFlag
 7090 2f26 45       		.uleb128 0x45
 7091 2f27 B92F0000 		.4byte	.LASF896
 7092 2f2b 02       		.byte	0x2
 7093 2f2c 1902     		.2byte	0x219
 7094 2f2e C5250000 		.4byte	0x25c5
 7095 2f32 45       		.uleb128 0x45
 7096 2f33 CE340000 		.4byte	.LASF897
 7097 2f37 02       		.byte	0x2
 7098 2f38 1B02     		.2byte	0x21b
 7099 2f3a 28200000 		.4byte	0x2028
 7100 2f3e 45       		.uleb128 0x45
 7101 2f3f 790A0000 		.4byte	.LASF898
 7102 2f43 02       		.byte	0x2
 7103 2f44 2202     		.2byte	0x222
 7104 2f46 58200000 		.4byte	0x2058
 7105 2f4a 45       		.uleb128 0x45
 7106 2f4b BB2C0000 		.4byte	.LASF899
 7107 2f4f 02       		.byte	0x2
 7108 2f50 2302     		.2byte	0x223
 7109 2f52 B9000000 		.4byte	0xb9
 7110 2f56 08       		.uleb128 0x8
 7111 2f57 BD170000 		.4byte	0x17bd
 7112 2f5b 662F0000 		.4byte	0x2f66
 7113 2f5f 09       		.uleb128 0x9
 7114 2f60 A9000000 		.4byte	0xa9
 7115 2f64 00       		.byte	0
 7116 2f65 00       		.byte	0
 7117 2f66 45       		.uleb128 0x45
 7118 2f67 49150000 		.4byte	.LASF900
 7119 2f6b 02       		.byte	0x2
 7120 2f6c 2C02     		.2byte	0x22c
 7121 2f6e 562F0000 		.4byte	0x2f56
 7122 2f72 08       		.uleb128 0x8
 7123 2f73 A0200000 		.4byte	0x20a0
 7124 2f77 822F0000 		.4byte	0x2f82
 7125 2f7b 09       		.uleb128 0x9
 7126 2f7c A9000000 		.4byte	0xa9
 7127 2f80 00       		.byte	0
 7128 2f81 00       		.byte	0
 7129 2f82 45       		.uleb128 0x45
 7130 2f83 6E4A0000 		.4byte	.LASF901
 7131 2f87 02       		.byte	0x2
 7132 2f88 2D02     		.2byte	0x22d
 7133 2f8a 722F0000 		.4byte	0x2f72
 7134 2f8e 08       		.uleb128 0x8
 7135 2f8f 20070000 		.4byte	0x720
 7136 2f93 9E2F0000 		.4byte	0x2f9e
 7137 2f97 09       		.uleb128 0x9
 7138 2f98 A9000000 		.4byte	0xa9
 7139 2f9c 00       		.byte	0
 7140 2f9d 00       		.byte	0
 7141 2f9e 45       		.uleb128 0x45
 7142 2f9f BC140000 		.4byte	.LASF902
 7143 2fa3 02       		.byte	0x2
 7144 2fa4 2F02     		.2byte	0x22f
ARM GAS  C:\Users\hkmnt\AppData\Local\Temp\ccBdSSuH.s 			page 161


 7145 2fa6 AA2F0000 		.4byte	0x2faa
 7146 2faa 06       		.uleb128 0x6
 7147 2fab 8E2F0000 		.4byte	0x2f8e
 7148 2faf 08       		.uleb128 0x8
 7149 2fb0 BF2F0000 		.4byte	0x2fbf
 7150 2fb4 BF2F0000 		.4byte	0x2fbf
 7151 2fb8 09       		.uleb128 0x9
 7152 2fb9 A9000000 		.4byte	0xa9
 7153 2fbd 00       		.byte	0
 7154 2fbe 00       		.byte	0
 7155 2fbf 06       		.uleb128 0x6
 7156 2fc0 CE230000 		.4byte	0x23ce
 7157 2fc4 45       		.uleb128 0x45
 7158 2fc5 62160000 		.4byte	.LASF903
 7159 2fc9 02       		.byte	0x2
 7160 2fca 3002     		.2byte	0x230
 7161 2fcc D02F0000 		.4byte	0x2fd0
 7162 2fd0 06       		.uleb128 0x6
 7163 2fd1 AF2F0000 		.4byte	0x2faf
 7164 2fd5 45       		.uleb128 0x45
 7165 2fd6 C5010000 		.4byte	.LASF904
 7166 2fda 15       		.byte	0x15
 7167 2fdb 8202     		.2byte	0x282
 7168 2fdd AD230000 		.4byte	0x23ad
 7169 2fe1 08       		.uleb128 0x8
 7170 2fe2 B9000000 		.4byte	0xb9
 7171 2fe6 F22F0000 		.4byte	0x2ff2
 7172 2fea 0D       		.uleb128 0xd
 7173 2feb A9000000 		.4byte	0xa9
 7174 2fef 2F1D     		.2byte	0x1d2f
 7175 2ff1 00       		.byte	0
 7176 2ff2 45       		.uleb128 0x45
 7177 2ff3 064D0000 		.4byte	.LASF905
 7178 2ff7 15       		.byte	0x15
 7179 2ff8 8802     		.2byte	0x288
 7180 2ffa E12F0000 		.4byte	0x2fe1
 7181 2ffe 45       		.uleb128 0x45
 7182 2fff 38330000 		.4byte	.LASF906
 7183 3003 15       		.byte	0x15
 7184 3004 8D02     		.2byte	0x28d
 7185 3006 0A300000 		.4byte	0x300a
 7186 300a 18       		.uleb128 0x18
 7187 300b 04       		.byte	0x4
 7188 300c DC250000 		.4byte	0x25dc
 7189 3010 46       		.uleb128 0x46
 7190 3011 67400000 		.4byte	.LASF907
 7191 3015 01       		.byte	0x1
 7192 3016 3F       		.byte	0x3f
 7193 3017 8B260000 		.4byte	0x268b
 7194 301b 05       		.uleb128 0x5
 7195 301c 03       		.byte	0x3
 7196 301d 00000000 		.4byte	cy_ble_eventHandler
 7197 3021 46       		.uleb128 0x46
 7198 3022 954D0000 		.4byte	.LASF908
 7199 3026 01       		.byte	0x1
 7200 3027 2D       		.byte	0x2d
 7201 3028 32300000 		.4byte	0x3032
ARM GAS  C:\Users\hkmnt\AppData\Local\Temp\ccBdSSuH.s 			page 162


 7202 302c 05       		.uleb128 0x5
 7203 302d 03       		.byte	0x3
 7204 302e 00000000 		.4byte	cy_ble_busyStatus
 7205 3032 06       		.uleb128 0x6
 7206 3033 8E2F0000 		.4byte	0x2f8e
 7207 3037 46       		.uleb128 0x46
 7208 3038 C1290000 		.4byte	.LASF909
 7209 303c 01       		.byte	0x1
 7210 303d 2F       		.byte	0x2f
 7211 303e F0000000 		.4byte	0xf0
 7212 3042 05       		.uleb128 0x5
 7213 3043 03       		.byte	0x3
 7214 3044 00000000 		.4byte	cy_ble_cmdStatus
 7215 3048 46       		.uleb128 0x46
 7216 3049 21220000 		.4byte	.LASF910
 7217 304d 01       		.byte	0x1
 7218 304e 32       		.byte	0x32
 7219 304f B9000000 		.4byte	0xb9
 7220 3053 05       		.uleb128 0x5
 7221 3054 03       		.byte	0x3
 7222 3055 00000000 		.4byte	cy_ble_advertisingIntervalType
 7223 3059 47       		.uleb128 0x47
 7224 305a 1C450000 		.4byte	.LASF911
 7225 305e 1C450000 		.4byte	.LASF911
 7226 3062 11       		.byte	0x11
 7227 3063 1101     		.2byte	0x111
 7228 3065 47       		.uleb128 0x47
 7229 3066 D9010000 		.4byte	.LASF912
 7230 306a D9010000 		.4byte	.LASF912
 7231 306e 11       		.byte	0x11
 7232 306f 5F01     		.2byte	0x15f
 7233 3071 47       		.uleb128 0x47
 7234 3072 0B3B0000 		.4byte	.LASF913
 7235 3076 0B3B0000 		.4byte	.LASF913
 7236 307a 0C       		.byte	0xc
 7237 307b 1D05     		.2byte	0x51d
 7238 307d 47       		.uleb128 0x47
 7239 307e 86430000 		.4byte	.LASF914
 7240 3082 86430000 		.4byte	.LASF914
 7241 3086 0C       		.byte	0xc
 7242 3087 5604     		.2byte	0x456
 7243 3089 47       		.uleb128 0x47
 7244 308a 95170000 		.4byte	.LASF915
 7245 308e 95170000 		.4byte	.LASF915
 7246 3092 09       		.byte	0x9
 7247 3093 9203     		.2byte	0x392
 7248 3095 47       		.uleb128 0x47
 7249 3096 EC260000 		.4byte	.LASF916
 7250 309a EC260000 		.4byte	.LASF916
 7251 309e 11       		.byte	0x11
 7252 309f 3B01     		.2byte	0x13b
 7253 30a1 48       		.uleb128 0x48
 7254 30a2 F11B0000 		.4byte	.LASF917
 7255 30a6 F11B0000 		.4byte	.LASF917
 7256 30aa 13       		.byte	0x13
 7257 30ab EC       		.byte	0xec
 7258 30ac 47       		.uleb128 0x47
ARM GAS  C:\Users\hkmnt\AppData\Local\Temp\ccBdSSuH.s 			page 163


 7259 30ad A4540000 		.4byte	.LASF918
 7260 30b1 A4540000 		.4byte	.LASF918
 7261 30b5 0E       		.byte	0xe
 7262 30b6 A306     		.2byte	0x6a3
 7263 30b8 47       		.uleb128 0x47
 7264 30b9 40210000 		.4byte	.LASF919
 7265 30bd 40210000 		.4byte	.LASF919
 7266 30c1 02       		.byte	0x2
 7267 30c2 FD01     		.2byte	0x1fd
 7268 30c4 47       		.uleb128 0x47
 7269 30c5 53460000 		.4byte	.LASF920
 7270 30c9 53460000 		.4byte	.LASF920
 7271 30cd 0E       		.byte	0xe
 7272 30ce AD03     		.2byte	0x3ad
 7273 30d0 47       		.uleb128 0x47
 7274 30d1 C0560000 		.4byte	.LASF921
 7275 30d5 C0560000 		.4byte	.LASF921
 7276 30d9 09       		.byte	0x9
 7277 30da 8903     		.2byte	0x389
 7278 30dc 47       		.uleb128 0x47
 7279 30dd B2500000 		.4byte	.LASF922
 7280 30e1 B2500000 		.4byte	.LASF922
 7281 30e5 15       		.byte	0x15
 7282 30e6 6202     		.2byte	0x262
 7283 30e8 47       		.uleb128 0x47
 7284 30e9 5D2B0000 		.4byte	.LASF923
 7285 30ed 5D2B0000 		.4byte	.LASF923
 7286 30f1 02       		.byte	0x2
 7287 30f2 F901     		.2byte	0x1f9
 7288 30f4 48       		.uleb128 0x48
 7289 30f5 9E130000 		.4byte	.LASF924
 7290 30f9 9E130000 		.4byte	.LASF924
 7291 30fd 13       		.byte	0x13
 7292 30fe ED       		.byte	0xed
 7293 30ff 00       		.byte	0
 7294              		.section	.debug_abbrev,"",%progbits
 7295              	.Ldebug_abbrev0:
 7296 0000 01       		.uleb128 0x1
 7297 0001 11       		.uleb128 0x11
 7298 0002 01       		.byte	0x1
 7299 0003 25       		.uleb128 0x25
 7300 0004 0E       		.uleb128 0xe
 7301 0005 13       		.uleb128 0x13
 7302 0006 0B       		.uleb128 0xb
 7303 0007 03       		.uleb128 0x3
 7304 0008 0E       		.uleb128 0xe
 7305 0009 1B       		.uleb128 0x1b
 7306 000a 0E       		.uleb128 0xe
 7307 000b 55       		.uleb128 0x55
 7308 000c 17       		.uleb128 0x17
 7309 000d 11       		.uleb128 0x11
 7310 000e 01       		.uleb128 0x1
 7311 000f 10       		.uleb128 0x10
 7312 0010 17       		.uleb128 0x17
 7313 0011 00       		.byte	0
 7314 0012 00       		.byte	0
 7315 0013 02       		.uleb128 0x2
ARM GAS  C:\Users\hkmnt\AppData\Local\Temp\ccBdSSuH.s 			page 164


 7316 0014 24       		.uleb128 0x24
 7317 0015 00       		.byte	0
 7318 0016 0B       		.uleb128 0xb
 7319 0017 0B       		.uleb128 0xb
 7320 0018 3E       		.uleb128 0x3e
 7321 0019 0B       		.uleb128 0xb
 7322 001a 03       		.uleb128 0x3
 7323 001b 08       		.uleb128 0x8
 7324 001c 00       		.byte	0
 7325 001d 00       		.byte	0
 7326 001e 03       		.uleb128 0x3
 7327 001f 24       		.uleb128 0x24
 7328 0020 00       		.byte	0
 7329 0021 0B       		.uleb128 0xb
 7330 0022 0B       		.uleb128 0xb
 7331 0023 3E       		.uleb128 0x3e
 7332 0024 0B       		.uleb128 0xb
 7333 0025 03       		.uleb128 0x3
 7334 0026 0E       		.uleb128 0xe
 7335 0027 00       		.byte	0
 7336 0028 00       		.byte	0
 7337 0029 04       		.uleb128 0x4
 7338 002a 16       		.uleb128 0x16
 7339 002b 00       		.byte	0
 7340 002c 03       		.uleb128 0x3
 7341 002d 0E       		.uleb128 0xe
 7342 002e 3A       		.uleb128 0x3a
 7343 002f 0B       		.uleb128 0xb
 7344 0030 3B       		.uleb128 0x3b
 7345 0031 0B       		.uleb128 0xb
 7346 0032 49       		.uleb128 0x49
 7347 0033 13       		.uleb128 0x13
 7348 0034 00       		.byte	0
 7349 0035 00       		.byte	0
 7350 0036 05       		.uleb128 0x5
 7351 0037 0F       		.uleb128 0xf
 7352 0038 00       		.byte	0
 7353 0039 0B       		.uleb128 0xb
 7354 003a 0B       		.uleb128 0xb
 7355 003b 00       		.byte	0
 7356 003c 00       		.byte	0
 7357 003d 06       		.uleb128 0x6
 7358 003e 35       		.uleb128 0x35
 7359 003f 00       		.byte	0
 7360 0040 49       		.uleb128 0x49
 7361 0041 13       		.uleb128 0x13
 7362 0042 00       		.byte	0
 7363 0043 00       		.byte	0
 7364 0044 07       		.uleb128 0x7
 7365 0045 26       		.uleb128 0x26
 7366 0046 00       		.byte	0
 7367 0047 49       		.uleb128 0x49
 7368 0048 13       		.uleb128 0x13
 7369 0049 00       		.byte	0
 7370 004a 00       		.byte	0
 7371 004b 08       		.uleb128 0x8
 7372 004c 01       		.uleb128 0x1
ARM GAS  C:\Users\hkmnt\AppData\Local\Temp\ccBdSSuH.s 			page 165


 7373 004d 01       		.byte	0x1
 7374 004e 49       		.uleb128 0x49
 7375 004f 13       		.uleb128 0x13
 7376 0050 01       		.uleb128 0x1
 7377 0051 13       		.uleb128 0x13
 7378 0052 00       		.byte	0
 7379 0053 00       		.byte	0
 7380 0054 09       		.uleb128 0x9
 7381 0055 21       		.uleb128 0x21
 7382 0056 00       		.byte	0
 7383 0057 49       		.uleb128 0x49
 7384 0058 13       		.uleb128 0x13
 7385 0059 2F       		.uleb128 0x2f
 7386 005a 0B       		.uleb128 0xb
 7387 005b 00       		.byte	0
 7388 005c 00       		.byte	0
 7389 005d 0A       		.uleb128 0xa
 7390 005e 13       		.uleb128 0x13
 7391 005f 01       		.byte	0x1
 7392 0060 0B       		.uleb128 0xb
 7393 0061 05       		.uleb128 0x5
 7394 0062 3A       		.uleb128 0x3a
 7395 0063 0B       		.uleb128 0xb
 7396 0064 3B       		.uleb128 0x3b
 7397 0065 0B       		.uleb128 0xb
 7398 0066 01       		.uleb128 0x1
 7399 0067 13       		.uleb128 0x13
 7400 0068 00       		.byte	0
 7401 0069 00       		.byte	0
 7402 006a 0B       		.uleb128 0xb
 7403 006b 0D       		.uleb128 0xd
 7404 006c 00       		.byte	0
 7405 006d 03       		.uleb128 0x3
 7406 006e 0E       		.uleb128 0xe
 7407 006f 3A       		.uleb128 0x3a
 7408 0070 0B       		.uleb128 0xb
 7409 0071 3B       		.uleb128 0x3b
 7410 0072 0B       		.uleb128 0xb
 7411 0073 49       		.uleb128 0x49
 7412 0074 13       		.uleb128 0x13
 7413 0075 38       		.uleb128 0x38
 7414 0076 0B       		.uleb128 0xb
 7415 0077 00       		.byte	0
 7416 0078 00       		.byte	0
 7417 0079 0C       		.uleb128 0xc
 7418 007a 0D       		.uleb128 0xd
 7419 007b 00       		.byte	0
 7420 007c 03       		.uleb128 0x3
 7421 007d 0E       		.uleb128 0xe
 7422 007e 3A       		.uleb128 0x3a
 7423 007f 0B       		.uleb128 0xb
 7424 0080 3B       		.uleb128 0x3b
 7425 0081 0B       		.uleb128 0xb
 7426 0082 49       		.uleb128 0x49
 7427 0083 13       		.uleb128 0x13
 7428 0084 38       		.uleb128 0x38
 7429 0085 05       		.uleb128 0x5
ARM GAS  C:\Users\hkmnt\AppData\Local\Temp\ccBdSSuH.s 			page 166


 7430 0086 00       		.byte	0
 7431 0087 00       		.byte	0
 7432 0088 0D       		.uleb128 0xd
 7433 0089 21       		.uleb128 0x21
 7434 008a 00       		.byte	0
 7435 008b 49       		.uleb128 0x49
 7436 008c 13       		.uleb128 0x13
 7437 008d 2F       		.uleb128 0x2f
 7438 008e 05       		.uleb128 0x5
 7439 008f 00       		.byte	0
 7440 0090 00       		.byte	0
 7441 0091 0E       		.uleb128 0xe
 7442 0092 13       		.uleb128 0x13
 7443 0093 01       		.byte	0x1
 7444 0094 0B       		.uleb128 0xb
 7445 0095 0B       		.uleb128 0xb
 7446 0096 3A       		.uleb128 0x3a
 7447 0097 0B       		.uleb128 0xb
 7448 0098 3B       		.uleb128 0x3b
 7449 0099 0B       		.uleb128 0xb
 7450 009a 01       		.uleb128 0x1
 7451 009b 13       		.uleb128 0x13
 7452 009c 00       		.byte	0
 7453 009d 00       		.byte	0
 7454 009e 0F       		.uleb128 0xf
 7455 009f 04       		.uleb128 0x4
 7456 00a0 01       		.byte	0x1
 7457 00a1 0B       		.uleb128 0xb
 7458 00a2 0B       		.uleb128 0xb
 7459 00a3 49       		.uleb128 0x49
 7460 00a4 13       		.uleb128 0x13
 7461 00a5 3A       		.uleb128 0x3a
 7462 00a6 0B       		.uleb128 0xb
 7463 00a7 3B       		.uleb128 0x3b
 7464 00a8 0B       		.uleb128 0xb
 7465 00a9 01       		.uleb128 0x1
 7466 00aa 13       		.uleb128 0x13
 7467 00ab 00       		.byte	0
 7468 00ac 00       		.byte	0
 7469 00ad 10       		.uleb128 0x10
 7470 00ae 28       		.uleb128 0x28
 7471 00af 00       		.byte	0
 7472 00b0 03       		.uleb128 0x3
 7473 00b1 0E       		.uleb128 0xe
 7474 00b2 1C       		.uleb128 0x1c
 7475 00b3 0D       		.uleb128 0xd
 7476 00b4 00       		.byte	0
 7477 00b5 00       		.byte	0
 7478 00b6 11       		.uleb128 0x11
 7479 00b7 28       		.uleb128 0x28
 7480 00b8 00       		.byte	0
 7481 00b9 03       		.uleb128 0x3
 7482 00ba 0E       		.uleb128 0xe
 7483 00bb 1C       		.uleb128 0x1c
 7484 00bc 0B       		.uleb128 0xb
 7485 00bd 00       		.byte	0
 7486 00be 00       		.byte	0
ARM GAS  C:\Users\hkmnt\AppData\Local\Temp\ccBdSSuH.s 			page 167


 7487 00bf 12       		.uleb128 0x12
 7488 00c0 16       		.uleb128 0x16
 7489 00c1 00       		.byte	0
 7490 00c2 03       		.uleb128 0x3
 7491 00c3 0E       		.uleb128 0xe
 7492 00c4 3A       		.uleb128 0x3a
 7493 00c5 0B       		.uleb128 0xb
 7494 00c6 3B       		.uleb128 0x3b
 7495 00c7 05       		.uleb128 0x5
 7496 00c8 49       		.uleb128 0x49
 7497 00c9 13       		.uleb128 0x13
 7498 00ca 00       		.byte	0
 7499 00cb 00       		.byte	0
 7500 00cc 13       		.uleb128 0x13
 7501 00cd 13       		.uleb128 0x13
 7502 00ce 01       		.byte	0x1
 7503 00cf 0B       		.uleb128 0xb
 7504 00d0 0B       		.uleb128 0xb
 7505 00d1 3A       		.uleb128 0x3a
 7506 00d2 0B       		.uleb128 0xb
 7507 00d3 3B       		.uleb128 0x3b
 7508 00d4 05       		.uleb128 0x5
 7509 00d5 01       		.uleb128 0x1
 7510 00d6 13       		.uleb128 0x13
 7511 00d7 00       		.byte	0
 7512 00d8 00       		.byte	0
 7513 00d9 14       		.uleb128 0x14
 7514 00da 0D       		.uleb128 0xd
 7515 00db 00       		.byte	0
 7516 00dc 03       		.uleb128 0x3
 7517 00dd 0E       		.uleb128 0xe
 7518 00de 3A       		.uleb128 0x3a
 7519 00df 0B       		.uleb128 0xb
 7520 00e0 3B       		.uleb128 0x3b
 7521 00e1 05       		.uleb128 0x5
 7522 00e2 49       		.uleb128 0x49
 7523 00e3 13       		.uleb128 0x13
 7524 00e4 38       		.uleb128 0x38
 7525 00e5 0B       		.uleb128 0xb
 7526 00e6 00       		.byte	0
 7527 00e7 00       		.byte	0
 7528 00e8 15       		.uleb128 0x15
 7529 00e9 04       		.uleb128 0x4
 7530 00ea 01       		.byte	0x1
 7531 00eb 0B       		.uleb128 0xb
 7532 00ec 0B       		.uleb128 0xb
 7533 00ed 49       		.uleb128 0x49
 7534 00ee 13       		.uleb128 0x13
 7535 00ef 3A       		.uleb128 0x3a
 7536 00f0 0B       		.uleb128 0xb
 7537 00f1 3B       		.uleb128 0x3b
 7538 00f2 05       		.uleb128 0x5
 7539 00f3 01       		.uleb128 0x1
 7540 00f4 13       		.uleb128 0x13
 7541 00f5 00       		.byte	0
 7542 00f6 00       		.byte	0
 7543 00f7 16       		.uleb128 0x16
ARM GAS  C:\Users\hkmnt\AppData\Local\Temp\ccBdSSuH.s 			page 168


 7544 00f8 28       		.uleb128 0x28
 7545 00f9 00       		.byte	0
 7546 00fa 03       		.uleb128 0x3
 7547 00fb 0E       		.uleb128 0xe
 7548 00fc 1C       		.uleb128 0x1c
 7549 00fd 05       		.uleb128 0x5
 7550 00fe 00       		.byte	0
 7551 00ff 00       		.byte	0
 7552 0100 17       		.uleb128 0x17
 7553 0101 28       		.uleb128 0x28
 7554 0102 00       		.byte	0
 7555 0103 03       		.uleb128 0x3
 7556 0104 0E       		.uleb128 0xe
 7557 0105 1C       		.uleb128 0x1c
 7558 0106 06       		.uleb128 0x6
 7559 0107 00       		.byte	0
 7560 0108 00       		.byte	0
 7561 0109 18       		.uleb128 0x18
 7562 010a 0F       		.uleb128 0xf
 7563 010b 00       		.byte	0
 7564 010c 0B       		.uleb128 0xb
 7565 010d 0B       		.uleb128 0xb
 7566 010e 49       		.uleb128 0x49
 7567 010f 13       		.uleb128 0x13
 7568 0110 00       		.byte	0
 7569 0111 00       		.byte	0
 7570 0112 19       		.uleb128 0x19
 7571 0113 17       		.uleb128 0x17
 7572 0114 01       		.byte	0x1
 7573 0115 0B       		.uleb128 0xb
 7574 0116 0B       		.uleb128 0xb
 7575 0117 3A       		.uleb128 0x3a
 7576 0118 0B       		.uleb128 0xb
 7577 0119 3B       		.uleb128 0x3b
 7578 011a 05       		.uleb128 0x5
 7579 011b 01       		.uleb128 0x1
 7580 011c 13       		.uleb128 0x13
 7581 011d 00       		.byte	0
 7582 011e 00       		.byte	0
 7583 011f 1A       		.uleb128 0x1a
 7584 0120 0D       		.uleb128 0xd
 7585 0121 00       		.byte	0
 7586 0122 03       		.uleb128 0x3
 7587 0123 0E       		.uleb128 0xe
 7588 0124 3A       		.uleb128 0x3a
 7589 0125 0B       		.uleb128 0xb
 7590 0126 3B       		.uleb128 0x3b
 7591 0127 05       		.uleb128 0x5
 7592 0128 49       		.uleb128 0x49
 7593 0129 13       		.uleb128 0x13
 7594 012a 00       		.byte	0
 7595 012b 00       		.byte	0
 7596 012c 1B       		.uleb128 0x1b
 7597 012d 0D       		.uleb128 0xd
 7598 012e 00       		.byte	0
 7599 012f 03       		.uleb128 0x3
 7600 0130 08       		.uleb128 0x8
ARM GAS  C:\Users\hkmnt\AppData\Local\Temp\ccBdSSuH.s 			page 169


 7601 0131 3A       		.uleb128 0x3a
 7602 0132 0B       		.uleb128 0xb
 7603 0133 3B       		.uleb128 0x3b
 7604 0134 05       		.uleb128 0x5
 7605 0135 49       		.uleb128 0x49
 7606 0136 13       		.uleb128 0x13
 7607 0137 38       		.uleb128 0x38
 7608 0138 0B       		.uleb128 0xb
 7609 0139 00       		.byte	0
 7610 013a 00       		.byte	0
 7611 013b 1C       		.uleb128 0x1c
 7612 013c 17       		.uleb128 0x17
 7613 013d 01       		.byte	0x1
 7614 013e 0B       		.uleb128 0xb
 7615 013f 0B       		.uleb128 0xb
 7616 0140 3A       		.uleb128 0x3a
 7617 0141 0B       		.uleb128 0xb
 7618 0142 3B       		.uleb128 0x3b
 7619 0143 0B       		.uleb128 0xb
 7620 0144 01       		.uleb128 0x1
 7621 0145 13       		.uleb128 0x13
 7622 0146 00       		.byte	0
 7623 0147 00       		.byte	0
 7624 0148 1D       		.uleb128 0x1d
 7625 0149 0D       		.uleb128 0xd
 7626 014a 00       		.byte	0
 7627 014b 03       		.uleb128 0x3
 7628 014c 0E       		.uleb128 0xe
 7629 014d 3A       		.uleb128 0x3a
 7630 014e 0B       		.uleb128 0xb
 7631 014f 3B       		.uleb128 0x3b
 7632 0150 0B       		.uleb128 0xb
 7633 0151 49       		.uleb128 0x49
 7634 0152 13       		.uleb128 0x13
 7635 0153 00       		.byte	0
 7636 0154 00       		.byte	0
 7637 0155 1E       		.uleb128 0x1e
 7638 0156 15       		.uleb128 0x15
 7639 0157 01       		.byte	0x1
 7640 0158 27       		.uleb128 0x27
 7641 0159 19       		.uleb128 0x19
 7642 015a 01       		.uleb128 0x1
 7643 015b 13       		.uleb128 0x13
 7644 015c 00       		.byte	0
 7645 015d 00       		.byte	0
 7646 015e 1F       		.uleb128 0x1f
 7647 015f 05       		.uleb128 0x5
 7648 0160 00       		.byte	0
 7649 0161 49       		.uleb128 0x49
 7650 0162 13       		.uleb128 0x13
 7651 0163 00       		.byte	0
 7652 0164 00       		.byte	0
 7653 0165 20       		.uleb128 0x20
 7654 0166 13       		.uleb128 0x13
 7655 0167 01       		.byte	0x1
 7656 0168 0B       		.uleb128 0xb
 7657 0169 05       		.uleb128 0x5
ARM GAS  C:\Users\hkmnt\AppData\Local\Temp\ccBdSSuH.s 			page 170


 7658 016a 3A       		.uleb128 0x3a
 7659 016b 0B       		.uleb128 0xb
 7660 016c 3B       		.uleb128 0x3b
 7661 016d 05       		.uleb128 0x5
 7662 016e 01       		.uleb128 0x1
 7663 016f 13       		.uleb128 0x13
 7664 0170 00       		.byte	0
 7665 0171 00       		.byte	0
 7666 0172 21       		.uleb128 0x21
 7667 0173 0D       		.uleb128 0xd
 7668 0174 00       		.byte	0
 7669 0175 03       		.uleb128 0x3
 7670 0176 0E       		.uleb128 0xe
 7671 0177 3A       		.uleb128 0x3a
 7672 0178 0B       		.uleb128 0xb
 7673 0179 3B       		.uleb128 0x3b
 7674 017a 05       		.uleb128 0x5
 7675 017b 49       		.uleb128 0x49
 7676 017c 13       		.uleb128 0x13
 7677 017d 38       		.uleb128 0x38
 7678 017e 05       		.uleb128 0x5
 7679 017f 00       		.byte	0
 7680 0180 00       		.byte	0
 7681 0181 22       		.uleb128 0x22
 7682 0182 15       		.uleb128 0x15
 7683 0183 01       		.byte	0x1
 7684 0184 27       		.uleb128 0x27
 7685 0185 19       		.uleb128 0x19
 7686 0186 49       		.uleb128 0x49
 7687 0187 13       		.uleb128 0x13
 7688 0188 01       		.uleb128 0x1
 7689 0189 13       		.uleb128 0x13
 7690 018a 00       		.byte	0
 7691 018b 00       		.byte	0
 7692 018c 23       		.uleb128 0x23
 7693 018d 2E       		.uleb128 0x2e
 7694 018e 01       		.byte	0x1
 7695 018f 03       		.uleb128 0x3
 7696 0190 0E       		.uleb128 0xe
 7697 0191 3A       		.uleb128 0x3a
 7698 0192 0B       		.uleb128 0xb
 7699 0193 3B       		.uleb128 0x3b
 7700 0194 05       		.uleb128 0x5
 7701 0195 27       		.uleb128 0x27
 7702 0196 19       		.uleb128 0x19
 7703 0197 49       		.uleb128 0x49
 7704 0198 13       		.uleb128 0x13
 7705 0199 20       		.uleb128 0x20
 7706 019a 0B       		.uleb128 0xb
 7707 019b 01       		.uleb128 0x1
 7708 019c 13       		.uleb128 0x13
 7709 019d 00       		.byte	0
 7710 019e 00       		.byte	0
 7711 019f 24       		.uleb128 0x24
 7712 01a0 05       		.uleb128 0x5
 7713 01a1 00       		.byte	0
 7714 01a2 03       		.uleb128 0x3
ARM GAS  C:\Users\hkmnt\AppData\Local\Temp\ccBdSSuH.s 			page 171


 7715 01a3 0E       		.uleb128 0xe
 7716 01a4 3A       		.uleb128 0x3a
 7717 01a5 0B       		.uleb128 0xb
 7718 01a6 3B       		.uleb128 0x3b
 7719 01a7 05       		.uleb128 0x5
 7720 01a8 49       		.uleb128 0x49
 7721 01a9 13       		.uleb128 0x13
 7722 01aa 00       		.byte	0
 7723 01ab 00       		.byte	0
 7724 01ac 25       		.uleb128 0x25
 7725 01ad 2E       		.uleb128 0x2e
 7726 01ae 01       		.byte	0x1
 7727 01af 03       		.uleb128 0x3
 7728 01b0 0E       		.uleb128 0xe
 7729 01b1 3A       		.uleb128 0x3a
 7730 01b2 0B       		.uleb128 0xb
 7731 01b3 3B       		.uleb128 0x3b
 7732 01b4 05       		.uleb128 0x5
 7733 01b5 27       		.uleb128 0x27
 7734 01b6 19       		.uleb128 0x19
 7735 01b7 20       		.uleb128 0x20
 7736 01b8 0B       		.uleb128 0xb
 7737 01b9 01       		.uleb128 0x1
 7738 01ba 13       		.uleb128 0x13
 7739 01bb 00       		.byte	0
 7740 01bc 00       		.byte	0
 7741 01bd 26       		.uleb128 0x26
 7742 01be 2E       		.uleb128 0x2e
 7743 01bf 00       		.byte	0
 7744 01c0 03       		.uleb128 0x3
 7745 01c1 0E       		.uleb128 0xe
 7746 01c2 3A       		.uleb128 0x3a
 7747 01c3 0B       		.uleb128 0xb
 7748 01c4 3B       		.uleb128 0x3b
 7749 01c5 05       		.uleb128 0x5
 7750 01c6 27       		.uleb128 0x27
 7751 01c7 19       		.uleb128 0x19
 7752 01c8 49       		.uleb128 0x49
 7753 01c9 13       		.uleb128 0x13
 7754 01ca 20       		.uleb128 0x20
 7755 01cb 0B       		.uleb128 0xb
 7756 01cc 00       		.byte	0
 7757 01cd 00       		.byte	0
 7758 01ce 27       		.uleb128 0x27
 7759 01cf 2E       		.uleb128 0x2e
 7760 01d0 01       		.byte	0x1
 7761 01d1 03       		.uleb128 0x3
 7762 01d2 0E       		.uleb128 0xe
 7763 01d3 3A       		.uleb128 0x3a
 7764 01d4 0B       		.uleb128 0xb
 7765 01d5 3B       		.uleb128 0x3b
 7766 01d6 0B       		.uleb128 0xb
 7767 01d7 27       		.uleb128 0x27
 7768 01d8 19       		.uleb128 0x19
 7769 01d9 11       		.uleb128 0x11
 7770 01da 01       		.uleb128 0x1
 7771 01db 12       		.uleb128 0x12
ARM GAS  C:\Users\hkmnt\AppData\Local\Temp\ccBdSSuH.s 			page 172


 7772 01dc 06       		.uleb128 0x6
 7773 01dd 40       		.uleb128 0x40
 7774 01de 18       		.uleb128 0x18
 7775 01df 9742     		.uleb128 0x2117
 7776 01e1 19       		.uleb128 0x19
 7777 01e2 01       		.uleb128 0x1
 7778 01e3 13       		.uleb128 0x13
 7779 01e4 00       		.byte	0
 7780 01e5 00       		.byte	0
 7781 01e6 28       		.uleb128 0x28
 7782 01e7 05       		.uleb128 0x5
 7783 01e8 00       		.byte	0
 7784 01e9 03       		.uleb128 0x3
 7785 01ea 0E       		.uleb128 0xe
 7786 01eb 3A       		.uleb128 0x3a
 7787 01ec 0B       		.uleb128 0xb
 7788 01ed 3B       		.uleb128 0x3b
 7789 01ee 0B       		.uleb128 0xb
 7790 01ef 49       		.uleb128 0x49
 7791 01f0 13       		.uleb128 0x13
 7792 01f1 02       		.uleb128 0x2
 7793 01f2 17       		.uleb128 0x17
 7794 01f3 00       		.byte	0
 7795 01f4 00       		.byte	0
 7796 01f5 29       		.uleb128 0x29
 7797 01f6 34       		.uleb128 0x34
 7798 01f7 00       		.byte	0
 7799 01f8 03       		.uleb128 0x3
 7800 01f9 0E       		.uleb128 0xe
 7801 01fa 3A       		.uleb128 0x3a
 7802 01fb 0B       		.uleb128 0xb
 7803 01fc 3B       		.uleb128 0x3b
 7804 01fd 0B       		.uleb128 0xb
 7805 01fe 49       		.uleb128 0x49
 7806 01ff 13       		.uleb128 0x13
 7807 0200 02       		.uleb128 0x2
 7808 0201 18       		.uleb128 0x18
 7809 0202 00       		.byte	0
 7810 0203 00       		.byte	0
 7811 0204 2A       		.uleb128 0x2a
 7812 0205 898201   		.uleb128 0x4109
 7813 0208 01       		.byte	0x1
 7814 0209 11       		.uleb128 0x11
 7815 020a 01       		.uleb128 0x1
 7816 020b 31       		.uleb128 0x31
 7817 020c 13       		.uleb128 0x13
 7818 020d 01       		.uleb128 0x1
 7819 020e 13       		.uleb128 0x13
 7820 020f 00       		.byte	0
 7821 0210 00       		.byte	0
 7822 0211 2B       		.uleb128 0x2b
 7823 0212 8A8201   		.uleb128 0x410a
 7824 0215 00       		.byte	0
 7825 0216 02       		.uleb128 0x2
 7826 0217 18       		.uleb128 0x18
 7827 0218 9142     		.uleb128 0x2111
 7828 021a 18       		.uleb128 0x18
ARM GAS  C:\Users\hkmnt\AppData\Local\Temp\ccBdSSuH.s 			page 173


 7829 021b 00       		.byte	0
 7830 021c 00       		.byte	0
 7831 021d 2C       		.uleb128 0x2c
 7832 021e 898201   		.uleb128 0x4109
 7833 0221 00       		.byte	0
 7834 0222 11       		.uleb128 0x11
 7835 0223 01       		.uleb128 0x1
 7836 0224 31       		.uleb128 0x31
 7837 0225 13       		.uleb128 0x13
 7838 0226 00       		.byte	0
 7839 0227 00       		.byte	0
 7840 0228 2D       		.uleb128 0x2d
 7841 0229 2E       		.uleb128 0x2e
 7842 022a 01       		.byte	0x1
 7843 022b 3F       		.uleb128 0x3f
 7844 022c 19       		.uleb128 0x19
 7845 022d 03       		.uleb128 0x3
 7846 022e 0E       		.uleb128 0xe
 7847 022f 3A       		.uleb128 0x3a
 7848 0230 0B       		.uleb128 0xb
 7849 0231 3B       		.uleb128 0x3b
 7850 0232 0B       		.uleb128 0xb
 7851 0233 27       		.uleb128 0x27
 7852 0234 19       		.uleb128 0x19
 7853 0235 49       		.uleb128 0x49
 7854 0236 13       		.uleb128 0x13
 7855 0237 11       		.uleb128 0x11
 7856 0238 01       		.uleb128 0x1
 7857 0239 12       		.uleb128 0x12
 7858 023a 06       		.uleb128 0x6
 7859 023b 40       		.uleb128 0x40
 7860 023c 18       		.uleb128 0x18
 7861 023d 9742     		.uleb128 0x2117
 7862 023f 19       		.uleb128 0x19
 7863 0240 01       		.uleb128 0x1
 7864 0241 13       		.uleb128 0x13
 7865 0242 00       		.byte	0
 7866 0243 00       		.byte	0
 7867 0244 2E       		.uleb128 0x2e
 7868 0245 34       		.uleb128 0x34
 7869 0246 00       		.byte	0
 7870 0247 03       		.uleb128 0x3
 7871 0248 0E       		.uleb128 0xe
 7872 0249 3A       		.uleb128 0x3a
 7873 024a 0B       		.uleb128 0xb
 7874 024b 3B       		.uleb128 0x3b
 7875 024c 0B       		.uleb128 0xb
 7876 024d 49       		.uleb128 0x49
 7877 024e 13       		.uleb128 0x13
 7878 024f 02       		.uleb128 0x2
 7879 0250 17       		.uleb128 0x17
 7880 0251 00       		.byte	0
 7881 0252 00       		.byte	0
 7882 0253 2F       		.uleb128 0x2f
 7883 0254 0B       		.uleb128 0xb
 7884 0255 01       		.byte	0x1
 7885 0256 55       		.uleb128 0x55
ARM GAS  C:\Users\hkmnt\AppData\Local\Temp\ccBdSSuH.s 			page 174


 7886 0257 17       		.uleb128 0x17
 7887 0258 00       		.byte	0
 7888 0259 00       		.byte	0
 7889 025a 30       		.uleb128 0x30
 7890 025b 34       		.uleb128 0x34
 7891 025c 00       		.byte	0
 7892 025d 03       		.uleb128 0x3
 7893 025e 08       		.uleb128 0x8
 7894 025f 3A       		.uleb128 0x3a
 7895 0260 0B       		.uleb128 0xb
 7896 0261 3B       		.uleb128 0x3b
 7897 0262 0B       		.uleb128 0xb
 7898 0263 49       		.uleb128 0x49
 7899 0264 13       		.uleb128 0x13
 7900 0265 02       		.uleb128 0x2
 7901 0266 17       		.uleb128 0x17
 7902 0267 00       		.byte	0
 7903 0268 00       		.byte	0
 7904 0269 31       		.uleb128 0x31
 7905 026a 898201   		.uleb128 0x4109
 7906 026d 01       		.byte	0x1
 7907 026e 11       		.uleb128 0x11
 7908 026f 01       		.uleb128 0x1
 7909 0270 00       		.byte	0
 7910 0271 00       		.byte	0
 7911 0272 32       		.uleb128 0x32
 7912 0273 2E       		.uleb128 0x2e
 7913 0274 01       		.byte	0x1
 7914 0275 3F       		.uleb128 0x3f
 7915 0276 19       		.uleb128 0x19
 7916 0277 03       		.uleb128 0x3
 7917 0278 0E       		.uleb128 0xe
 7918 0279 3A       		.uleb128 0x3a
 7919 027a 0B       		.uleb128 0xb
 7920 027b 3B       		.uleb128 0x3b
 7921 027c 05       		.uleb128 0x5
 7922 027d 27       		.uleb128 0x27
 7923 027e 19       		.uleb128 0x19
 7924 027f 49       		.uleb128 0x49
 7925 0280 13       		.uleb128 0x13
 7926 0281 11       		.uleb128 0x11
 7927 0282 01       		.uleb128 0x1
 7928 0283 12       		.uleb128 0x12
 7929 0284 06       		.uleb128 0x6
 7930 0285 40       		.uleb128 0x40
 7931 0286 18       		.uleb128 0x18
 7932 0287 9742     		.uleb128 0x2117
 7933 0289 19       		.uleb128 0x19
 7934 028a 01       		.uleb128 0x1
 7935 028b 13       		.uleb128 0x13
 7936 028c 00       		.byte	0
 7937 028d 00       		.byte	0
 7938 028e 33       		.uleb128 0x33
 7939 028f 05       		.uleb128 0x5
 7940 0290 00       		.byte	0
 7941 0291 03       		.uleb128 0x3
 7942 0292 0E       		.uleb128 0xe
ARM GAS  C:\Users\hkmnt\AppData\Local\Temp\ccBdSSuH.s 			page 175


 7943 0293 3A       		.uleb128 0x3a
 7944 0294 0B       		.uleb128 0xb
 7945 0295 3B       		.uleb128 0x3b
 7946 0296 05       		.uleb128 0x5
 7947 0297 49       		.uleb128 0x49
 7948 0298 13       		.uleb128 0x13
 7949 0299 02       		.uleb128 0x2
 7950 029a 17       		.uleb128 0x17
 7951 029b 00       		.byte	0
 7952 029c 00       		.byte	0
 7953 029d 34       		.uleb128 0x34
 7954 029e 34       		.uleb128 0x34
 7955 029f 00       		.byte	0
 7956 02a0 03       		.uleb128 0x3
 7957 02a1 0E       		.uleb128 0xe
 7958 02a2 3A       		.uleb128 0x3a
 7959 02a3 0B       		.uleb128 0xb
 7960 02a4 3B       		.uleb128 0x3b
 7961 02a5 05       		.uleb128 0x5
 7962 02a6 49       		.uleb128 0x49
 7963 02a7 13       		.uleb128 0x13
 7964 02a8 02       		.uleb128 0x2
 7965 02a9 17       		.uleb128 0x17
 7966 02aa 00       		.byte	0
 7967 02ab 00       		.byte	0
 7968 02ac 35       		.uleb128 0x35
 7969 02ad 34       		.uleb128 0x34
 7970 02ae 00       		.byte	0
 7971 02af 03       		.uleb128 0x3
 7972 02b0 08       		.uleb128 0x8
 7973 02b1 3A       		.uleb128 0x3a
 7974 02b2 0B       		.uleb128 0xb
 7975 02b3 3B       		.uleb128 0x3b
 7976 02b4 05       		.uleb128 0x5
 7977 02b5 49       		.uleb128 0x49
 7978 02b6 13       		.uleb128 0x13
 7979 02b7 02       		.uleb128 0x2
 7980 02b8 17       		.uleb128 0x17
 7981 02b9 00       		.byte	0
 7982 02ba 00       		.byte	0
 7983 02bb 36       		.uleb128 0x36
 7984 02bc 34       		.uleb128 0x34
 7985 02bd 00       		.byte	0
 7986 02be 03       		.uleb128 0x3
 7987 02bf 08       		.uleb128 0x8
 7988 02c0 3A       		.uleb128 0x3a
 7989 02c1 0B       		.uleb128 0xb
 7990 02c2 3B       		.uleb128 0x3b
 7991 02c3 05       		.uleb128 0x5
 7992 02c4 49       		.uleb128 0x49
 7993 02c5 13       		.uleb128 0x13
 7994 02c6 00       		.byte	0
 7995 02c7 00       		.byte	0
 7996 02c8 37       		.uleb128 0x37
 7997 02c9 34       		.uleb128 0x34
 7998 02ca 00       		.byte	0
 7999 02cb 03       		.uleb128 0x3
ARM GAS  C:\Users\hkmnt\AppData\Local\Temp\ccBdSSuH.s 			page 176


 8000 02cc 0E       		.uleb128 0xe
 8001 02cd 3A       		.uleb128 0x3a
 8002 02ce 0B       		.uleb128 0xb
 8003 02cf 3B       		.uleb128 0x3b
 8004 02d0 05       		.uleb128 0x5
 8005 02d1 49       		.uleb128 0x49
 8006 02d2 13       		.uleb128 0x13
 8007 02d3 00       		.byte	0
 8008 02d4 00       		.byte	0
 8009 02d5 38       		.uleb128 0x38
 8010 02d6 2E       		.uleb128 0x2e
 8011 02d7 01       		.byte	0x1
 8012 02d8 3F       		.uleb128 0x3f
 8013 02d9 19       		.uleb128 0x19
 8014 02da 03       		.uleb128 0x3
 8015 02db 0E       		.uleb128 0xe
 8016 02dc 3A       		.uleb128 0x3a
 8017 02dd 0B       		.uleb128 0xb
 8018 02de 3B       		.uleb128 0x3b
 8019 02df 05       		.uleb128 0x5
 8020 02e0 27       		.uleb128 0x27
 8021 02e1 19       		.uleb128 0x19
 8022 02e2 11       		.uleb128 0x11
 8023 02e3 01       		.uleb128 0x1
 8024 02e4 12       		.uleb128 0x12
 8025 02e5 06       		.uleb128 0x6
 8026 02e6 40       		.uleb128 0x40
 8027 02e7 18       		.uleb128 0x18
 8028 02e8 9742     		.uleb128 0x2117
 8029 02ea 19       		.uleb128 0x19
 8030 02eb 01       		.uleb128 0x1
 8031 02ec 13       		.uleb128 0x13
 8032 02ed 00       		.byte	0
 8033 02ee 00       		.byte	0
 8034 02ef 39       		.uleb128 0x39
 8035 02f0 0B       		.uleb128 0xb
 8036 02f1 01       		.byte	0x1
 8037 02f2 11       		.uleb128 0x11
 8038 02f3 01       		.uleb128 0x1
 8039 02f4 12       		.uleb128 0x12
 8040 02f5 06       		.uleb128 0x6
 8041 02f6 01       		.uleb128 0x1
 8042 02f7 13       		.uleb128 0x13
 8043 02f8 00       		.byte	0
 8044 02f9 00       		.byte	0
 8045 02fa 3A       		.uleb128 0x3a
 8046 02fb 34       		.uleb128 0x34
 8047 02fc 00       		.byte	0
 8048 02fd 03       		.uleb128 0x3
 8049 02fe 0E       		.uleb128 0xe
 8050 02ff 3A       		.uleb128 0x3a
 8051 0300 0B       		.uleb128 0xb
 8052 0301 3B       		.uleb128 0x3b
 8053 0302 05       		.uleb128 0x5
 8054 0303 49       		.uleb128 0x49
 8055 0304 13       		.uleb128 0x13
 8056 0305 02       		.uleb128 0x2
ARM GAS  C:\Users\hkmnt\AppData\Local\Temp\ccBdSSuH.s 			page 177


 8057 0306 18       		.uleb128 0x18
 8058 0307 00       		.byte	0
 8059 0308 00       		.byte	0
 8060 0309 3B       		.uleb128 0x3b
 8061 030a 898201   		.uleb128 0x4109
 8062 030d 01       		.byte	0x1
 8063 030e 11       		.uleb128 0x11
 8064 030f 01       		.uleb128 0x1
 8065 0310 31       		.uleb128 0x31
 8066 0311 13       		.uleb128 0x13
 8067 0312 00       		.byte	0
 8068 0313 00       		.byte	0
 8069 0314 3C       		.uleb128 0x3c
 8070 0315 1D       		.uleb128 0x1d
 8071 0316 01       		.byte	0x1
 8072 0317 31       		.uleb128 0x31
 8073 0318 13       		.uleb128 0x13
 8074 0319 11       		.uleb128 0x11
 8075 031a 01       		.uleb128 0x1
 8076 031b 12       		.uleb128 0x12
 8077 031c 06       		.uleb128 0x6
 8078 031d 58       		.uleb128 0x58
 8079 031e 0B       		.uleb128 0xb
 8080 031f 59       		.uleb128 0x59
 8081 0320 05       		.uleb128 0x5
 8082 0321 01       		.uleb128 0x1
 8083 0322 13       		.uleb128 0x13
 8084 0323 00       		.byte	0
 8085 0324 00       		.byte	0
 8086 0325 3D       		.uleb128 0x3d
 8087 0326 05       		.uleb128 0x5
 8088 0327 00       		.byte	0
 8089 0328 31       		.uleb128 0x31
 8090 0329 13       		.uleb128 0x13
 8091 032a 02       		.uleb128 0x2
 8092 032b 17       		.uleb128 0x17
 8093 032c 00       		.byte	0
 8094 032d 00       		.byte	0
 8095 032e 3E       		.uleb128 0x3e
 8096 032f 0B       		.uleb128 0xb
 8097 0330 01       		.byte	0x1
 8098 0331 11       		.uleb128 0x11
 8099 0332 01       		.uleb128 0x1
 8100 0333 12       		.uleb128 0x12
 8101 0334 06       		.uleb128 0x6
 8102 0335 00       		.byte	0
 8103 0336 00       		.byte	0
 8104 0337 3F       		.uleb128 0x3f
 8105 0338 34       		.uleb128 0x34
 8106 0339 00       		.byte	0
 8107 033a 31       		.uleb128 0x31
 8108 033b 13       		.uleb128 0x13
 8109 033c 02       		.uleb128 0x2
 8110 033d 17       		.uleb128 0x17
 8111 033e 00       		.byte	0
 8112 033f 00       		.byte	0
 8113 0340 40       		.uleb128 0x40
ARM GAS  C:\Users\hkmnt\AppData\Local\Temp\ccBdSSuH.s 			page 178


 8114 0341 34       		.uleb128 0x34
 8115 0342 00       		.byte	0
 8116 0343 31       		.uleb128 0x31
 8117 0344 13       		.uleb128 0x13
 8118 0345 02       		.uleb128 0x2
 8119 0346 18       		.uleb128 0x18
 8120 0347 00       		.byte	0
 8121 0348 00       		.byte	0
 8122 0349 41       		.uleb128 0x41
 8123 034a 05       		.uleb128 0x5
 8124 034b 00       		.byte	0
 8125 034c 31       		.uleb128 0x31
 8126 034d 13       		.uleb128 0x13
 8127 034e 02       		.uleb128 0x2
 8128 034f 18       		.uleb128 0x18
 8129 0350 00       		.byte	0
 8130 0351 00       		.byte	0
 8131 0352 42       		.uleb128 0x42
 8132 0353 1D       		.uleb128 0x1d
 8133 0354 01       		.byte	0x1
 8134 0355 31       		.uleb128 0x31
 8135 0356 13       		.uleb128 0x13
 8136 0357 11       		.uleb128 0x11
 8137 0358 01       		.uleb128 0x1
 8138 0359 12       		.uleb128 0x12
 8139 035a 06       		.uleb128 0x6
 8140 035b 58       		.uleb128 0x58
 8141 035c 0B       		.uleb128 0xb
 8142 035d 59       		.uleb128 0x59
 8143 035e 05       		.uleb128 0x5
 8144 035f 00       		.byte	0
 8145 0360 00       		.byte	0
 8146 0361 43       		.uleb128 0x43
 8147 0362 1D       		.uleb128 0x1d
 8148 0363 00       		.byte	0
 8149 0364 31       		.uleb128 0x31
 8150 0365 13       		.uleb128 0x13
 8151 0366 11       		.uleb128 0x11
 8152 0367 01       		.uleb128 0x1
 8153 0368 12       		.uleb128 0x12
 8154 0369 06       		.uleb128 0x6
 8155 036a 58       		.uleb128 0x58
 8156 036b 0B       		.uleb128 0xb
 8157 036c 59       		.uleb128 0x59
 8158 036d 05       		.uleb128 0x5
 8159 036e 00       		.byte	0
 8160 036f 00       		.byte	0
 8161 0370 44       		.uleb128 0x44
 8162 0371 34       		.uleb128 0x34
 8163 0372 00       		.byte	0
 8164 0373 03       		.uleb128 0x3
 8165 0374 0E       		.uleb128 0xe
 8166 0375 3A       		.uleb128 0x3a
 8167 0376 0B       		.uleb128 0xb
 8168 0377 3B       		.uleb128 0x3b
 8169 0378 0B       		.uleb128 0xb
 8170 0379 49       		.uleb128 0x49
ARM GAS  C:\Users\hkmnt\AppData\Local\Temp\ccBdSSuH.s 			page 179


 8171 037a 13       		.uleb128 0x13
 8172 037b 3F       		.uleb128 0x3f
 8173 037c 19       		.uleb128 0x19
 8174 037d 3C       		.uleb128 0x3c
 8175 037e 19       		.uleb128 0x19
 8176 037f 00       		.byte	0
 8177 0380 00       		.byte	0
 8178 0381 45       		.uleb128 0x45
 8179 0382 34       		.uleb128 0x34
 8180 0383 00       		.byte	0
 8181 0384 03       		.uleb128 0x3
 8182 0385 0E       		.uleb128 0xe
 8183 0386 3A       		.uleb128 0x3a
 8184 0387 0B       		.uleb128 0xb
 8185 0388 3B       		.uleb128 0x3b
 8186 0389 05       		.uleb128 0x5
 8187 038a 49       		.uleb128 0x49
 8188 038b 13       		.uleb128 0x13
 8189 038c 3F       		.uleb128 0x3f
 8190 038d 19       		.uleb128 0x19
 8191 038e 3C       		.uleb128 0x3c
 8192 038f 19       		.uleb128 0x19
 8193 0390 00       		.byte	0
 8194 0391 00       		.byte	0
 8195 0392 46       		.uleb128 0x46
 8196 0393 34       		.uleb128 0x34
 8197 0394 00       		.byte	0
 8198 0395 03       		.uleb128 0x3
 8199 0396 0E       		.uleb128 0xe
 8200 0397 3A       		.uleb128 0x3a
 8201 0398 0B       		.uleb128 0xb
 8202 0399 3B       		.uleb128 0x3b
 8203 039a 0B       		.uleb128 0xb
 8204 039b 49       		.uleb128 0x49
 8205 039c 13       		.uleb128 0x13
 8206 039d 3F       		.uleb128 0x3f
 8207 039e 19       		.uleb128 0x19
 8208 039f 02       		.uleb128 0x2
 8209 03a0 18       		.uleb128 0x18
 8210 03a1 00       		.byte	0
 8211 03a2 00       		.byte	0
 8212 03a3 47       		.uleb128 0x47
 8213 03a4 2E       		.uleb128 0x2e
 8214 03a5 00       		.byte	0
 8215 03a6 3F       		.uleb128 0x3f
 8216 03a7 19       		.uleb128 0x19
 8217 03a8 3C       		.uleb128 0x3c
 8218 03a9 19       		.uleb128 0x19
 8219 03aa 6E       		.uleb128 0x6e
 8220 03ab 0E       		.uleb128 0xe
 8221 03ac 03       		.uleb128 0x3
 8222 03ad 0E       		.uleb128 0xe
 8223 03ae 3A       		.uleb128 0x3a
 8224 03af 0B       		.uleb128 0xb
 8225 03b0 3B       		.uleb128 0x3b
 8226 03b1 05       		.uleb128 0x5
 8227 03b2 00       		.byte	0
ARM GAS  C:\Users\hkmnt\AppData\Local\Temp\ccBdSSuH.s 			page 180


 8228 03b3 00       		.byte	0
 8229 03b4 48       		.uleb128 0x48
 8230 03b5 2E       		.uleb128 0x2e
 8231 03b6 00       		.byte	0
 8232 03b7 3F       		.uleb128 0x3f
 8233 03b8 19       		.uleb128 0x19
 8234 03b9 3C       		.uleb128 0x3c
 8235 03ba 19       		.uleb128 0x19
 8236 03bb 6E       		.uleb128 0x6e
 8237 03bc 0E       		.uleb128 0xe
 8238 03bd 03       		.uleb128 0x3
 8239 03be 0E       		.uleb128 0xe
 8240 03bf 3A       		.uleb128 0x3a
 8241 03c0 0B       		.uleb128 0xb
 8242 03c1 3B       		.uleb128 0x3b
 8243 03c2 0B       		.uleb128 0xb
 8244 03c3 00       		.byte	0
 8245 03c4 00       		.byte	0
 8246 03c5 00       		.byte	0
 8247              		.section	.debug_loc,"",%progbits
 8248              	.Ldebug_loc0:
 8249              	.LLST0:
 8250 0000 00000000 		.4byte	.LVL0
 8251 0004 2E000000 		.4byte	.LVL1
 8252 0008 0100     		.2byte	0x1
 8253 000a 50       		.byte	0x50
 8254 000b 2E000000 		.4byte	.LVL1
 8255 000f 34000000 		.4byte	.LVL3
 8256 0013 0400     		.2byte	0x4
 8257 0015 F3       		.byte	0xf3
 8258 0016 01       		.uleb128 0x1
 8259 0017 50       		.byte	0x50
 8260 0018 9F       		.byte	0x9f
 8261 0019 34000000 		.4byte	.LVL3
 8262 001d 36000000 		.4byte	.LVL4
 8263 0021 0100     		.2byte	0x1
 8264 0023 50       		.byte	0x50
 8265 0024 36000000 		.4byte	.LVL4
 8266 0028 44000000 		.4byte	.LFE257
 8267 002c 0400     		.2byte	0x4
 8268 002e F3       		.byte	0xf3
 8269 002f 01       		.uleb128 0x1
 8270 0030 50       		.byte	0x50
 8271 0031 9F       		.byte	0x9f
 8272 0032 00000000 		.4byte	0
 8273 0036 00000000 		.4byte	0
 8274              	.LLST1:
 8275 003a 00000000 		.4byte	.LVL0
 8276 003e 31000000 		.4byte	.LVL2-1
 8277 0042 0100     		.2byte	0x1
 8278 0044 51       		.byte	0x51
 8279 0045 31000000 		.4byte	.LVL2-1
 8280 0049 34000000 		.4byte	.LVL3
 8281 004d 0400     		.2byte	0x4
 8282 004f F3       		.byte	0xf3
 8283 0050 01       		.uleb128 0x1
 8284 0051 51       		.byte	0x51
ARM GAS  C:\Users\hkmnt\AppData\Local\Temp\ccBdSSuH.s 			page 181


 8285 0052 9F       		.byte	0x9f
 8286 0053 34000000 		.4byte	.LVL3
 8287 0057 39000000 		.4byte	.LVL5-1
 8288 005b 0100     		.2byte	0x1
 8289 005d 51       		.byte	0x51
 8290 005e 39000000 		.4byte	.LVL5-1
 8291 0062 44000000 		.4byte	.LFE257
 8292 0066 0400     		.2byte	0x4
 8293 0068 F3       		.byte	0xf3
 8294 0069 01       		.uleb128 0x1
 8295 006a 51       		.byte	0x51
 8296 006b 9F       		.byte	0x9f
 8297 006c 00000000 		.4byte	0
 8298 0070 00000000 		.4byte	0
 8299              	.LLST2:
 8300 0074 00000000 		.4byte	.LVL6
 8301 0078 28000000 		.4byte	.LVL11
 8302 007c 0100     		.2byte	0x1
 8303 007e 50       		.byte	0x50
 8304 007f 28000000 		.4byte	.LVL11
 8305 0083 2A000000 		.4byte	.LVL12
 8306 0087 0100     		.2byte	0x1
 8307 0089 54       		.byte	0x54
 8308 008a 2A000000 		.4byte	.LVL12
 8309 008e 2E000000 		.4byte	.LVL13
 8310 0092 0100     		.2byte	0x1
 8311 0094 50       		.byte	0x50
 8312 0095 2E000000 		.4byte	.LVL13
 8313 0099 30000000 		.4byte	.LVL14
 8314 009d 0100     		.2byte	0x1
 8315 009f 54       		.byte	0x54
 8316 00a0 30000000 		.4byte	.LVL14
 8317 00a4 32000000 		.4byte	.LVL15
 8318 00a8 0100     		.2byte	0x1
 8319 00aa 50       		.byte	0x50
 8320 00ab 32000000 		.4byte	.LVL15
 8321 00af 50000000 		.4byte	.LVL17
 8322 00b3 0100     		.2byte	0x1
 8323 00b5 54       		.byte	0x54
 8324 00b6 50000000 		.4byte	.LVL17
 8325 00ba 60000000 		.4byte	.LFE255
 8326 00be 0400     		.2byte	0x4
 8327 00c0 F3       		.byte	0xf3
 8328 00c1 01       		.uleb128 0x1
 8329 00c2 50       		.byte	0x50
 8330 00c3 9F       		.byte	0x9f
 8331 00c4 00000000 		.4byte	0
 8332 00c8 00000000 		.4byte	0
 8333              	.LLST3:
 8334 00cc 02000000 		.4byte	.LVL7
 8335 00d0 32000000 		.4byte	.LVL15
 8336 00d4 0200     		.2byte	0x2
 8337 00d6 30       		.byte	0x30
 8338 00d7 9F       		.byte	0x9f
 8339 00d8 32000000 		.4byte	.LVL15
 8340 00dc 60000000 		.4byte	.LFE255
 8341 00e0 0100     		.2byte	0x1
ARM GAS  C:\Users\hkmnt\AppData\Local\Temp\ccBdSSuH.s 			page 182


 8342 00e2 50       		.byte	0x50
 8343 00e3 00000000 		.4byte	0
 8344 00e7 00000000 		.4byte	0
 8345              	.LLST4:
 8346 00eb 02000000 		.4byte	.LVL7
 8347 00ef 0C000000 		.4byte	.LVL8
 8348 00f3 0200     		.2byte	0x2
 8349 00f5 30       		.byte	0x30
 8350 00f6 9F       		.byte	0x9f
 8351 00f7 0C000000 		.4byte	.LVL8
 8352 00fb 2A000000 		.4byte	.LVL12
 8353 00ff 0100     		.2byte	0x1
 8354 0101 51       		.byte	0x51
 8355 0102 2A000000 		.4byte	.LVL12
 8356 0106 30000000 		.4byte	.LVL14
 8357 010a 0200     		.2byte	0x2
 8358 010c 30       		.byte	0x30
 8359 010d 9F       		.byte	0x9f
 8360 010e 30000000 		.4byte	.LVL14
 8361 0112 60000000 		.4byte	.LFE255
 8362 0116 0100     		.2byte	0x1
 8363 0118 51       		.byte	0x51
 8364 0119 00000000 		.4byte	0
 8365 011d 00000000 		.4byte	0
 8366              	.LLST5:
 8367 0121 0C000000 		.4byte	.LVL8
 8368 0125 2A000000 		.4byte	.LVL12
 8369 0129 0100     		.2byte	0x1
 8370 012b 53       		.byte	0x53
 8371 012c 30000000 		.4byte	.LVL14
 8372 0130 32000000 		.4byte	.LVL15
 8373 0134 0100     		.2byte	0x1
 8374 0136 53       		.byte	0x53
 8375 0137 00000000 		.4byte	0
 8376 013b 00000000 		.4byte	0
 8377              	.LLST6:
 8378 013f 00000000 		.4byte	.LVL18
 8379 0143 08000000 		.4byte	.LVL20
 8380 0147 0100     		.2byte	0x1
 8381 0149 50       		.byte	0x50
 8382 014a 08000000 		.4byte	.LVL20
 8383 014e 2E000000 		.4byte	.LVL25
 8384 0152 0100     		.2byte	0x1
 8385 0154 56       		.byte	0x56
 8386 0155 2E000000 		.4byte	.LVL25
 8387 0159 38000000 		.4byte	.LFE256
 8388 015d 0400     		.2byte	0x4
 8389 015f F3       		.byte	0xf3
 8390 0160 01       		.uleb128 0x1
 8391 0161 50       		.byte	0x50
 8392 0162 9F       		.byte	0x9f
 8393 0163 00000000 		.4byte	0
 8394 0167 00000000 		.4byte	0
 8395              	.LLST7:
 8396 016b 00000000 		.4byte	.LVL18
 8397 016f 0C000000 		.4byte	.LVL21
 8398 0173 0100     		.2byte	0x1
ARM GAS  C:\Users\hkmnt\AppData\Local\Temp\ccBdSSuH.s 			page 183


 8399 0175 51       		.byte	0x51
 8400 0176 0C000000 		.4byte	.LVL21
 8401 017a 2E000000 		.4byte	.LVL25
 8402 017e 0100     		.2byte	0x1
 8403 0180 55       		.byte	0x55
 8404 0181 2E000000 		.4byte	.LVL25
 8405 0185 38000000 		.4byte	.LFE256
 8406 0189 0400     		.2byte	0x4
 8407 018b F3       		.byte	0xf3
 8408 018c 01       		.uleb128 0x1
 8409 018d 51       		.byte	0x51
 8410 018e 9F       		.byte	0x9f
 8411 018f 00000000 		.4byte	0
 8412 0193 00000000 		.4byte	0
 8413              	.LLST8:
 8414 0197 06000000 		.4byte	.LVL19
 8415 019b 0C000000 		.4byte	.LVL21
 8416 019f 0200     		.2byte	0x2
 8417 01a1 30       		.byte	0x30
 8418 01a2 9F       		.byte	0x9f
 8419 01a3 0C000000 		.4byte	.LVL21
 8420 01a7 2E000000 		.4byte	.LVL25
 8421 01ab 0100     		.2byte	0x1
 8422 01ad 54       		.byte	0x54
 8423 01ae 00000000 		.4byte	0
 8424 01b2 00000000 		.4byte	0
 8425              	.LLST9:
 8426 01b6 06000000 		.4byte	.LVL19
 8427 01ba 0C000000 		.4byte	.LVL21
 8428 01be 0200     		.2byte	0x2
 8429 01c0 30       		.byte	0x30
 8430 01c1 9F       		.byte	0x9f
 8431 01c2 0C000000 		.4byte	.LVL21
 8432 01c6 16000000 		.4byte	.LVL22
 8433 01ca 0100     		.2byte	0x1
 8434 01cc 50       		.byte	0x50
 8435 01cd 18000000 		.4byte	.LVL23
 8436 01d1 38000000 		.4byte	.LFE256
 8437 01d5 0100     		.2byte	0x1
 8438 01d7 50       		.byte	0x50
 8439 01d8 00000000 		.4byte	0
 8440 01dc 00000000 		.4byte	0
 8441              	.LLST10:
 8442 01e0 00000000 		.4byte	.LVL26
 8443 01e4 06000000 		.4byte	.LVL27
 8444 01e8 0100     		.2byte	0x1
 8445 01ea 50       		.byte	0x50
 8446 01eb 06000000 		.4byte	.LVL27
 8447 01ef 08000000 		.4byte	.LVL28
 8448 01f3 0400     		.2byte	0x4
 8449 01f5 F3       		.byte	0xf3
 8450 01f6 01       		.uleb128 0x1
 8451 01f7 50       		.byte	0x50
 8452 01f8 9F       		.byte	0x9f
 8453 01f9 08000000 		.4byte	.LVL28
 8454 01fd 18000000 		.4byte	.LVL32
 8455 0201 0100     		.2byte	0x1
ARM GAS  C:\Users\hkmnt\AppData\Local\Temp\ccBdSSuH.s 			page 184


 8456 0203 50       		.byte	0x50
 8457 0204 18000000 		.4byte	.LVL32
 8458 0208 1A000000 		.4byte	.LVL33
 8459 020c 0400     		.2byte	0x4
 8460 020e F3       		.byte	0xf3
 8461 020f 01       		.uleb128 0x1
 8462 0210 50       		.byte	0x50
 8463 0211 9F       		.byte	0x9f
 8464 0212 1A000000 		.4byte	.LVL33
 8465 0216 1C000000 		.4byte	.LVL34
 8466 021a 0100     		.2byte	0x1
 8467 021c 50       		.byte	0x50
 8468 021d 1C000000 		.4byte	.LVL34
 8469 0221 1E000000 		.4byte	.LFE259
 8470 0225 0400     		.2byte	0x4
 8471 0227 F3       		.byte	0xf3
 8472 0228 01       		.uleb128 0x1
 8473 0229 50       		.byte	0x50
 8474 022a 9F       		.byte	0x9f
 8475 022b 00000000 		.4byte	0
 8476 022f 00000000 		.4byte	0
 8477              	.LLST11:
 8478 0233 00000000 		.4byte	.LVL26
 8479 0237 1C000000 		.4byte	.LVL34
 8480 023b 0200     		.2byte	0x2
 8481 023d 30       		.byte	0x30
 8482 023e 9F       		.byte	0x9f
 8483 023f 1C000000 		.4byte	.LVL34
 8484 0243 1E000000 		.4byte	.LFE259
 8485 0247 0100     		.2byte	0x1
 8486 0249 50       		.byte	0x50
 8487 024a 00000000 		.4byte	0
 8488 024e 00000000 		.4byte	0
 8489              	.LLST12:
 8490 0252 08000000 		.4byte	.LVL28
 8491 0256 10000000 		.4byte	.LVL30
 8492 025a 0100     		.2byte	0x1
 8493 025c 53       		.byte	0x53
 8494 025d 12000000 		.4byte	.LVL31
 8495 0261 1E000000 		.4byte	.LFE259
 8496 0265 0100     		.2byte	0x1
 8497 0267 53       		.byte	0x53
 8498 0268 00000000 		.4byte	0
 8499 026c 00000000 		.4byte	0
 8500              	.LLST13:
 8501 0270 00000000 		.4byte	.LVL35
 8502 0274 2C010000 		.4byte	.LVL36
 8503 0278 0100     		.2byte	0x1
 8504 027a 50       		.byte	0x50
 8505 027b 2C010000 		.4byte	.LVL36
 8506 027f E0010000 		.4byte	.LVL48
 8507 0283 0400     		.2byte	0x4
 8508 0285 F3       		.byte	0xf3
 8509 0286 01       		.uleb128 0x1
 8510 0287 50       		.byte	0x50
 8511 0288 9F       		.byte	0x9f
 8512 0289 E0010000 		.4byte	.LVL48
ARM GAS  C:\Users\hkmnt\AppData\Local\Temp\ccBdSSuH.s 			page 185


 8513 028d F0010000 		.4byte	.LVL51
 8514 0291 0100     		.2byte	0x1
 8515 0293 50       		.byte	0x50
 8516 0294 F0010000 		.4byte	.LVL51
 8517 0298 04020000 		.4byte	.LVL54
 8518 029c 0400     		.2byte	0x4
 8519 029e F3       		.byte	0xf3
 8520 029f 01       		.uleb128 0x1
 8521 02a0 50       		.byte	0x50
 8522 02a1 9F       		.byte	0x9f
 8523 02a2 04020000 		.4byte	.LVL54
 8524 02a6 2A020000 		.4byte	.LVL55
 8525 02aa 0100     		.2byte	0x1
 8526 02ac 50       		.byte	0x50
 8527 02ad 2A020000 		.4byte	.LVL55
 8528 02b1 58020000 		.4byte	.LVL58
 8529 02b5 0400     		.2byte	0x4
 8530 02b7 F3       		.byte	0xf3
 8531 02b8 01       		.uleb128 0x1
 8532 02b9 50       		.byte	0x50
 8533 02ba 9F       		.byte	0x9f
 8534 02bb 58020000 		.4byte	.LVL58
 8535 02bf 5B020000 		.4byte	.LVL59-1
 8536 02c3 0100     		.2byte	0x1
 8537 02c5 50       		.byte	0x50
 8538 02c6 5B020000 		.4byte	.LVL59-1
 8539 02ca 5E020000 		.4byte	.LVL60
 8540 02ce 0400     		.2byte	0x4
 8541 02d0 F3       		.byte	0xf3
 8542 02d1 01       		.uleb128 0x1
 8543 02d2 50       		.byte	0x50
 8544 02d3 9F       		.byte	0x9f
 8545 02d4 5E020000 		.4byte	.LVL60
 8546 02d8 6C020000 		.4byte	.LVL63
 8547 02dc 0100     		.2byte	0x1
 8548 02de 50       		.byte	0x50
 8549 02df 6C020000 		.4byte	.LVL63
 8550 02e3 D0020000 		.4byte	.LVL70
 8551 02e7 0400     		.2byte	0x4
 8552 02e9 F3       		.byte	0xf3
 8553 02ea 01       		.uleb128 0x1
 8554 02eb 50       		.byte	0x50
 8555 02ec 9F       		.byte	0x9f
 8556 02ed D0020000 		.4byte	.LVL70
 8557 02f1 4C030000 		.4byte	.LVL74
 8558 02f5 0100     		.2byte	0x1
 8559 02f7 50       		.byte	0x50
 8560 02f8 4C030000 		.4byte	.LVL74
 8561 02fc B0030000 		.4byte	.LVL81
 8562 0300 0400     		.2byte	0x4
 8563 0302 F3       		.byte	0xf3
 8564 0303 01       		.uleb128 0x1
 8565 0304 50       		.byte	0x50
 8566 0305 9F       		.byte	0x9f
 8567 0306 B0030000 		.4byte	.LVL81
 8568 030a B3030000 		.4byte	.LVL82-1
 8569 030e 0100     		.2byte	0x1
ARM GAS  C:\Users\hkmnt\AppData\Local\Temp\ccBdSSuH.s 			page 186


 8570 0310 50       		.byte	0x50
 8571 0311 B3030000 		.4byte	.LVL82-1
 8572 0315 B6030000 		.4byte	.LVL83
 8573 0319 0400     		.2byte	0x4
 8574 031b F3       		.byte	0xf3
 8575 031c 01       		.uleb128 0x1
 8576 031d 50       		.byte	0x50
 8577 031e 9F       		.byte	0x9f
 8578 031f B6030000 		.4byte	.LVL83
 8579 0323 D6030000 		.4byte	.LVL88
 8580 0327 0100     		.2byte	0x1
 8581 0329 50       		.byte	0x50
 8582 032a D6030000 		.4byte	.LVL88
 8583 032e 44040000 		.4byte	.LVL95
 8584 0332 0400     		.2byte	0x4
 8585 0334 F3       		.byte	0xf3
 8586 0335 01       		.uleb128 0x1
 8587 0336 50       		.byte	0x50
 8588 0337 9F       		.byte	0x9f
 8589 0338 44040000 		.4byte	.LVL95
 8590 033c 4F040000 		.4byte	.LVL96-1
 8591 0340 0100     		.2byte	0x1
 8592 0342 50       		.byte	0x50
 8593 0343 4F040000 		.4byte	.LVL96-1
 8594 0347 C4040000 		.4byte	.LVL105
 8595 034b 0400     		.2byte	0x4
 8596 034d F3       		.byte	0xf3
 8597 034e 01       		.uleb128 0x1
 8598 034f 50       		.byte	0x50
 8599 0350 9F       		.byte	0x9f
 8600 0351 C4040000 		.4byte	.LVL105
 8601 0355 C7040000 		.4byte	.LVL106-1
 8602 0359 0100     		.2byte	0x1
 8603 035b 50       		.byte	0x50
 8604 035c C7040000 		.4byte	.LVL106-1
 8605 0360 CA040000 		.4byte	.LVL107
 8606 0364 0400     		.2byte	0x4
 8607 0366 F3       		.byte	0xf3
 8608 0367 01       		.uleb128 0x1
 8609 0368 50       		.byte	0x50
 8610 0369 9F       		.byte	0x9f
 8611 036a CA040000 		.4byte	.LVL107
 8612 036e E6040000 		.4byte	.LVL112
 8613 0372 0100     		.2byte	0x1
 8614 0374 50       		.byte	0x50
 8615 0375 E6040000 		.4byte	.LVL112
 8616 0379 06050000 		.4byte	.LVL115
 8617 037d 0400     		.2byte	0x4
 8618 037f F3       		.byte	0xf3
 8619 0380 01       		.uleb128 0x1
 8620 0381 50       		.byte	0x50
 8621 0382 9F       		.byte	0x9f
 8622 0383 06050000 		.4byte	.LVL115
 8623 0387 22050000 		.4byte	.LVL120
 8624 038b 0100     		.2byte	0x1
 8625 038d 50       		.byte	0x50
 8626 038e 22050000 		.4byte	.LVL120
ARM GAS  C:\Users\hkmnt\AppData\Local\Temp\ccBdSSuH.s 			page 187


 8627 0392 38050000 		.4byte	.LVL123
 8628 0396 0400     		.2byte	0x4
 8629 0398 F3       		.byte	0xf3
 8630 0399 01       		.uleb128 0x1
 8631 039a 50       		.byte	0x50
 8632 039b 9F       		.byte	0x9f
 8633 039c 38050000 		.4byte	.LVL123
 8634 03a0 46050000 		.4byte	.LVL124
 8635 03a4 0100     		.2byte	0x1
 8636 03a6 50       		.byte	0x50
 8637 03a7 46050000 		.4byte	.LVL124
 8638 03ab 4C050000 		.4byte	.LVL126
 8639 03af 0400     		.2byte	0x4
 8640 03b1 F3       		.byte	0xf3
 8641 03b2 01       		.uleb128 0x1
 8642 03b3 50       		.byte	0x50
 8643 03b4 9F       		.byte	0x9f
 8644 03b5 4C050000 		.4byte	.LVL126
 8645 03b9 4E050000 		.4byte	.LVL127
 8646 03bd 0100     		.2byte	0x1
 8647 03bf 50       		.byte	0x50
 8648 03c0 4E050000 		.4byte	.LVL127
 8649 03c4 B6050000 		.4byte	.LVL136
 8650 03c8 0400     		.2byte	0x4
 8651 03ca F3       		.byte	0xf3
 8652 03cb 01       		.uleb128 0x1
 8653 03cc 50       		.byte	0x50
 8654 03cd 9F       		.byte	0x9f
 8655 03ce B6050000 		.4byte	.LVL136
 8656 03d2 B9050000 		.4byte	.LVL137-1
 8657 03d6 0100     		.2byte	0x1
 8658 03d8 50       		.byte	0x50
 8659 03d9 B9050000 		.4byte	.LVL137-1
 8660 03dd BC050000 		.4byte	.LVL138
 8661 03e1 0400     		.2byte	0x4
 8662 03e3 F3       		.byte	0xf3
 8663 03e4 01       		.uleb128 0x1
 8664 03e5 50       		.byte	0x50
 8665 03e6 9F       		.byte	0x9f
 8666 03e7 BC050000 		.4byte	.LVL138
 8667 03eb BF050000 		.4byte	.LVL139-1
 8668 03ef 0100     		.2byte	0x1
 8669 03f1 50       		.byte	0x50
 8670 03f2 BF050000 		.4byte	.LVL139-1
 8671 03f6 C2050000 		.4byte	.LVL140
 8672 03fa 0400     		.2byte	0x4
 8673 03fc F3       		.byte	0xf3
 8674 03fd 01       		.uleb128 0x1
 8675 03fe 50       		.byte	0x50
 8676 03ff 9F       		.byte	0x9f
 8677 0400 C2050000 		.4byte	.LVL140
 8678 0404 C5050000 		.4byte	.LVL141-1
 8679 0408 0100     		.2byte	0x1
 8680 040a 50       		.byte	0x50
 8681 040b C5050000 		.4byte	.LVL141-1
 8682 040f C8050000 		.4byte	.LVL142
 8683 0413 0400     		.2byte	0x4
ARM GAS  C:\Users\hkmnt\AppData\Local\Temp\ccBdSSuH.s 			page 188


 8684 0415 F3       		.byte	0xf3
 8685 0416 01       		.uleb128 0x1
 8686 0417 50       		.byte	0x50
 8687 0418 9F       		.byte	0x9f
 8688 0419 C8050000 		.4byte	.LVL142
 8689 041d CB050000 		.4byte	.LVL143-1
 8690 0421 0100     		.2byte	0x1
 8691 0423 50       		.byte	0x50
 8692 0424 CB050000 		.4byte	.LVL143-1
 8693 0428 CE050000 		.4byte	.LVL144
 8694 042c 0400     		.2byte	0x4
 8695 042e F3       		.byte	0xf3
 8696 042f 01       		.uleb128 0x1
 8697 0430 50       		.byte	0x50
 8698 0431 9F       		.byte	0x9f
 8699 0432 CE050000 		.4byte	.LVL144
 8700 0436 D0050000 		.4byte	.LVL145
 8701 043a 0100     		.2byte	0x1
 8702 043c 50       		.byte	0x50
 8703 043d D0050000 		.4byte	.LVL145
 8704 0441 38060000 		.4byte	.LFE260
 8705 0445 0400     		.2byte	0x4
 8706 0447 F3       		.byte	0xf3
 8707 0448 01       		.uleb128 0x1
 8708 0449 50       		.byte	0x50
 8709 044a 9F       		.byte	0x9f
 8710 044b 00000000 		.4byte	0
 8711 044f 00000000 		.4byte	0
 8712              	.LLST14:
 8713 0453 00000000 		.4byte	.LVL35
 8714 0457 2F010000 		.4byte	.LVL37-1
 8715 045b 0100     		.2byte	0x1
 8716 045d 51       		.byte	0x51
 8717 045e 2F010000 		.4byte	.LVL37-1
 8718 0462 E0010000 		.4byte	.LVL48
 8719 0466 0100     		.2byte	0x1
 8720 0468 55       		.byte	0x55
 8721 0469 E0010000 		.4byte	.LVL48
 8722 046d F3010000 		.4byte	.LVL52-1
 8723 0471 0100     		.2byte	0x1
 8724 0473 51       		.byte	0x51
 8725 0474 F3010000 		.4byte	.LVL52-1
 8726 0478 04020000 		.4byte	.LVL54
 8727 047c 0100     		.2byte	0x1
 8728 047e 55       		.byte	0x55
 8729 047f 04020000 		.4byte	.LVL54
 8730 0483 2D020000 		.4byte	.LVL56-1
 8731 0487 0100     		.2byte	0x1
 8732 0489 51       		.byte	0x51
 8733 048a 2D020000 		.4byte	.LVL56-1
 8734 048e 58020000 		.4byte	.LVL58
 8735 0492 0100     		.2byte	0x1
 8736 0494 55       		.byte	0x55
 8737 0495 58020000 		.4byte	.LVL58
 8738 0499 5B020000 		.4byte	.LVL59-1
 8739 049d 0100     		.2byte	0x1
 8740 049f 51       		.byte	0x51
ARM GAS  C:\Users\hkmnt\AppData\Local\Temp\ccBdSSuH.s 			page 189


 8741 04a0 5B020000 		.4byte	.LVL59-1
 8742 04a4 5E020000 		.4byte	.LVL60
 8743 04a8 0100     		.2byte	0x1
 8744 04aa 55       		.byte	0x55
 8745 04ab 5E020000 		.4byte	.LVL60
 8746 04af 60020000 		.4byte	.LVL61
 8747 04b3 0100     		.2byte	0x1
 8748 04b5 51       		.byte	0x51
 8749 04b6 60020000 		.4byte	.LVL61
 8750 04ba D0020000 		.4byte	.LVL70
 8751 04be 0100     		.2byte	0x1
 8752 04c0 55       		.byte	0x55
 8753 04c1 D0020000 		.4byte	.LVL70
 8754 04c5 02030000 		.4byte	.LVL72
 8755 04c9 0100     		.2byte	0x1
 8756 04cb 51       		.byte	0x51
 8757 04cc 02030000 		.4byte	.LVL72
 8758 04d0 B0030000 		.4byte	.LVL81
 8759 04d4 0100     		.2byte	0x1
 8760 04d6 55       		.byte	0x55
 8761 04d7 B0030000 		.4byte	.LVL81
 8762 04db B3030000 		.4byte	.LVL82-1
 8763 04df 0100     		.2byte	0x1
 8764 04e1 51       		.byte	0x51
 8765 04e2 B3030000 		.4byte	.LVL82-1
 8766 04e6 B6030000 		.4byte	.LVL83
 8767 04ea 0100     		.2byte	0x1
 8768 04ec 55       		.byte	0x55
 8769 04ed B6030000 		.4byte	.LVL83
 8770 04f1 CA030000 		.4byte	.LVL86
 8771 04f5 0100     		.2byte	0x1
 8772 04f7 51       		.byte	0x51
 8773 04f8 CA030000 		.4byte	.LVL86
 8774 04fc 44040000 		.4byte	.LVL95
 8775 0500 0100     		.2byte	0x1
 8776 0502 55       		.byte	0x55
 8777 0503 44040000 		.4byte	.LVL95
 8778 0507 4F040000 		.4byte	.LVL96-1
 8779 050b 0100     		.2byte	0x1
 8780 050d 51       		.byte	0x51
 8781 050e 4F040000 		.4byte	.LVL96-1
 8782 0512 C4040000 		.4byte	.LVL105
 8783 0516 0100     		.2byte	0x1
 8784 0518 55       		.byte	0x55
 8785 0519 C4040000 		.4byte	.LVL105
 8786 051d C7040000 		.4byte	.LVL106-1
 8787 0521 0100     		.2byte	0x1
 8788 0523 51       		.byte	0x51
 8789 0524 C7040000 		.4byte	.LVL106-1
 8790 0528 CA040000 		.4byte	.LVL107
 8791 052c 0100     		.2byte	0x1
 8792 052e 55       		.byte	0x55
 8793 052f CA040000 		.4byte	.LVL107
 8794 0533 D8040000 		.4byte	.LVL109
 8795 0537 0100     		.2byte	0x1
 8796 0539 51       		.byte	0x51
 8797 053a D8040000 		.4byte	.LVL109
ARM GAS  C:\Users\hkmnt\AppData\Local\Temp\ccBdSSuH.s 			page 190


 8798 053e DE040000 		.4byte	.LVL110
 8799 0542 0100     		.2byte	0x1
 8800 0544 55       		.byte	0x55
 8801 0545 DE040000 		.4byte	.LVL110
 8802 0549 E4040000 		.4byte	.LVL111
 8803 054d 0100     		.2byte	0x1
 8804 054f 51       		.byte	0x51
 8805 0550 E4040000 		.4byte	.LVL111
 8806 0554 06050000 		.4byte	.LVL115
 8807 0558 0100     		.2byte	0x1
 8808 055a 55       		.byte	0x55
 8809 055b 06050000 		.4byte	.LVL115
 8810 055f 14050000 		.4byte	.LVL117
 8811 0563 0100     		.2byte	0x1
 8812 0565 51       		.byte	0x51
 8813 0566 14050000 		.4byte	.LVL117
 8814 056a 1A050000 		.4byte	.LVL118
 8815 056e 0100     		.2byte	0x1
 8816 0570 55       		.byte	0x55
 8817 0571 1A050000 		.4byte	.LVL118
 8818 0575 20050000 		.4byte	.LVL119
 8819 0579 0100     		.2byte	0x1
 8820 057b 51       		.byte	0x51
 8821 057c 20050000 		.4byte	.LVL119
 8822 0580 38050000 		.4byte	.LVL123
 8823 0584 0100     		.2byte	0x1
 8824 0586 55       		.byte	0x55
 8825 0587 38050000 		.4byte	.LVL123
 8826 058b 49050000 		.4byte	.LVL125-1
 8827 058f 0100     		.2byte	0x1
 8828 0591 51       		.byte	0x51
 8829 0592 49050000 		.4byte	.LVL125-1
 8830 0596 4C050000 		.4byte	.LVL126
 8831 059a 0100     		.2byte	0x1
 8832 059c 55       		.byte	0x55
 8833 059d 4C050000 		.4byte	.LVL126
 8834 05a1 51050000 		.4byte	.LVL128-1
 8835 05a5 0100     		.2byte	0x1
 8836 05a7 51       		.byte	0x51
 8837 05a8 51050000 		.4byte	.LVL128-1
 8838 05ac B6050000 		.4byte	.LVL136
 8839 05b0 0100     		.2byte	0x1
 8840 05b2 55       		.byte	0x55
 8841 05b3 B6050000 		.4byte	.LVL136
 8842 05b7 B9050000 		.4byte	.LVL137-1
 8843 05bb 0100     		.2byte	0x1
 8844 05bd 51       		.byte	0x51
 8845 05be B9050000 		.4byte	.LVL137-1
 8846 05c2 BC050000 		.4byte	.LVL138
 8847 05c6 0100     		.2byte	0x1
 8848 05c8 55       		.byte	0x55
 8849 05c9 BC050000 		.4byte	.LVL138
 8850 05cd BF050000 		.4byte	.LVL139-1
 8851 05d1 0100     		.2byte	0x1
 8852 05d3 51       		.byte	0x51
 8853 05d4 BF050000 		.4byte	.LVL139-1
 8854 05d8 C2050000 		.4byte	.LVL140
ARM GAS  C:\Users\hkmnt\AppData\Local\Temp\ccBdSSuH.s 			page 191


 8855 05dc 0100     		.2byte	0x1
 8856 05de 55       		.byte	0x55
 8857 05df C2050000 		.4byte	.LVL140
 8858 05e3 C5050000 		.4byte	.LVL141-1
 8859 05e7 0100     		.2byte	0x1
 8860 05e9 51       		.byte	0x51
 8861 05ea C5050000 		.4byte	.LVL141-1
 8862 05ee C8050000 		.4byte	.LVL142
 8863 05f2 0100     		.2byte	0x1
 8864 05f4 55       		.byte	0x55
 8865 05f5 C8050000 		.4byte	.LVL142
 8866 05f9 CB050000 		.4byte	.LVL143-1
 8867 05fd 0100     		.2byte	0x1
 8868 05ff 51       		.byte	0x51
 8869 0600 CB050000 		.4byte	.LVL143-1
 8870 0604 CE050000 		.4byte	.LVL144
 8871 0608 0100     		.2byte	0x1
 8872 060a 55       		.byte	0x55
 8873 060b CE050000 		.4byte	.LVL144
 8874 060f D3050000 		.4byte	.LVL146-1
 8875 0613 0100     		.2byte	0x1
 8876 0615 51       		.byte	0x51
 8877 0616 D3050000 		.4byte	.LVL146-1
 8878 061a FE050000 		.4byte	.LVL149
 8879 061e 0100     		.2byte	0x1
 8880 0620 55       		.byte	0x55
 8881 0621 FE050000 		.4byte	.LVL149
 8882 0625 38060000 		.4byte	.LFE260
 8883 0629 0400     		.2byte	0x4
 8884 062b F3       		.byte	0xf3
 8885 062c 01       		.uleb128 0x1
 8886 062d 51       		.byte	0x51
 8887 062e 9F       		.byte	0x9f
 8888 062f 00000000 		.4byte	0
 8889 0633 00000000 		.4byte	0
 8890              	.LLST15:
 8891 0637 86010000 		.4byte	.LVL41
 8892 063b 9C010000 		.4byte	.LVL42
 8893 063f 0100     		.2byte	0x1
 8894 0641 53       		.byte	0x53
 8895 0642 00000000 		.4byte	0
 8896 0646 00000000 		.4byte	0
 8897              	.LLST16:
 8898 064a E6010000 		.4byte	.LVL49
 8899 064e EA010000 		.4byte	.LVL50
 8900 0652 0200     		.2byte	0x2
 8901 0654 30       		.byte	0x30
 8902 0655 9F       		.byte	0x9f
 8903 0656 00000000 		.4byte	0
 8904 065a 00000000 		.4byte	0
 8905              	.LLST17:
 8906 065e 60020000 		.4byte	.LVL61
 8907 0662 B2020000 		.4byte	.LVL68
 8908 0666 0100     		.2byte	0x1
 8909 0668 51       		.byte	0x51
 8910 0669 00000000 		.4byte	0
 8911 066d 00000000 		.4byte	0
ARM GAS  C:\Users\hkmnt\AppData\Local\Temp\ccBdSSuH.s 			page 192


 8912              	.LLST18:
 8913 0671 68020000 		.4byte	.LVL62
 8914 0675 6C020000 		.4byte	.LVL63
 8915 0679 0200     		.2byte	0x2
 8916 067b 30       		.byte	0x30
 8917 067c 9F       		.byte	0x9f
 8918 067d 6C020000 		.4byte	.LVL63
 8919 0681 98020000 		.4byte	.LVL64
 8920 0685 0100     		.2byte	0x1
 8921 0687 53       		.byte	0x53
 8922 0688 9E020000 		.4byte	.LVL65
 8923 068c A4020000 		.4byte	.LVL67
 8924 0690 0100     		.2byte	0x1
 8925 0692 53       		.byte	0x53
 8926 0693 00000000 		.4byte	0
 8927 0697 00000000 		.4byte	0
 8928              	.LLST19:
 8929 069b D0020000 		.4byte	.LVL70
 8930 069f F8020000 		.4byte	.LVL71
 8931 06a3 0100     		.2byte	0x1
 8932 06a5 51       		.byte	0x51
 8933 06a6 00000000 		.4byte	0
 8934 06aa 00000000 		.4byte	0
 8935              	.LLST20:
 8936 06ae 02030000 		.4byte	.LVL72
 8937 06b2 92030000 		.4byte	.LVL79
 8938 06b6 0100     		.2byte	0x1
 8939 06b8 51       		.byte	0x51
 8940 06b9 00000000 		.4byte	0
 8941 06bd 00000000 		.4byte	0
 8942              	.LLST21:
 8943 06c1 0A030000 		.4byte	.LVL73
 8944 06c5 4C030000 		.4byte	.LVL74
 8945 06c9 0200     		.2byte	0x2
 8946 06cb 30       		.byte	0x30
 8947 06cc 9F       		.byte	0x9f
 8948 06cd 4C030000 		.4byte	.LVL74
 8949 06d1 78030000 		.4byte	.LVL75
 8950 06d5 0100     		.2byte	0x1
 8951 06d7 53       		.byte	0x53
 8952 06d8 7E030000 		.4byte	.LVL76
 8953 06dc 84030000 		.4byte	.LVL78
 8954 06e0 0100     		.2byte	0x1
 8955 06e2 53       		.byte	0x53
 8956 06e3 00000000 		.4byte	0
 8957 06e7 00000000 		.4byte	0
 8958              	.LLST22:
 8959 06eb B6030000 		.4byte	.LVL83
 8960 06ef CA030000 		.4byte	.LVL86
 8961 06f3 0100     		.2byte	0x1
 8962 06f5 51       		.byte	0x51
 8963 06f6 CA030000 		.4byte	.LVL86
 8964 06fa 44040000 		.4byte	.LVL95
 8965 06fe 0100     		.2byte	0x1
 8966 0700 55       		.byte	0x55
 8967 0701 00000000 		.4byte	0
 8968 0705 00000000 		.4byte	0
ARM GAS  C:\Users\hkmnt\AppData\Local\Temp\ccBdSSuH.s 			page 193


 8969              	.LLST23:
 8970 0709 C2030000 		.4byte	.LVL84
 8971 070d C8030000 		.4byte	.LVL85
 8972 0711 0200     		.2byte	0x2
 8973 0713 30       		.byte	0x30
 8974 0714 9F       		.byte	0x9f
 8975 0715 00000000 		.4byte	0
 8976 0719 00000000 		.4byte	0
 8977              	.LLST24:
 8978 071d CA030000 		.4byte	.LVL86
 8979 0721 1C040000 		.4byte	.LVL93
 8980 0725 0100     		.2byte	0x1
 8981 0727 51       		.byte	0x51
 8982 0728 00000000 		.4byte	0
 8983 072c 00000000 		.4byte	0
 8984              	.LLST25:
 8985 0730 D2030000 		.4byte	.LVL87
 8986 0734 D6030000 		.4byte	.LVL88
 8987 0738 0200     		.2byte	0x2
 8988 073a 30       		.byte	0x30
 8989 073b 9F       		.byte	0x9f
 8990 073c D6030000 		.4byte	.LVL88
 8991 0740 02040000 		.4byte	.LVL89
 8992 0744 0100     		.2byte	0x1
 8993 0746 53       		.byte	0x53
 8994 0747 08040000 		.4byte	.LVL90
 8995 074b 0E040000 		.4byte	.LVL92
 8996 074f 0100     		.2byte	0x1
 8997 0751 53       		.byte	0x53
 8998 0752 00000000 		.4byte	0
 8999 0756 00000000 		.4byte	0
 9000              	.LLST26:
 9001 075a 64040000 		.4byte	.LVL97
 9002 075e 6C040000 		.4byte	.LVL98
 9003 0762 0200     		.2byte	0x2
 9004 0764 32       		.byte	0x32
 9005 0765 9F       		.byte	0x9f
 9006 0766 00000000 		.4byte	0
 9007 076a 00000000 		.4byte	0
 9008              	.LLST27:
 9009 076e 70040000 		.4byte	.LVL99
 9010 0772 78040000 		.4byte	.LVL100
 9011 0776 0200     		.2byte	0x2
 9012 0778 30       		.byte	0x30
 9013 0779 9F       		.byte	0x9f
 9014 077a 00000000 		.4byte	0
 9015 077e 00000000 		.4byte	0
 9016              	.LLST28:
 9017 0782 7E040000 		.4byte	.LVL101
 9018 0786 84040000 		.4byte	.LVL102
 9019 078a 0200     		.2byte	0x2
 9020 078c 30       		.byte	0x30
 9021 078d 9F       		.byte	0x9f
 9022 078e 00000000 		.4byte	0
 9023 0792 00000000 		.4byte	0
 9024              	.LLST29:
 9025 0796 BC040000 		.4byte	.LVL104
ARM GAS  C:\Users\hkmnt\AppData\Local\Temp\ccBdSSuH.s 			page 194


 9026 079a C4040000 		.4byte	.LVL105
 9027 079e 0200     		.2byte	0x2
 9028 07a0 31       		.byte	0x31
 9029 07a1 9F       		.byte	0x9f
 9030 07a2 00000000 		.4byte	0
 9031 07a6 00000000 		.4byte	0
 9032              	.LLST30:
 9033 07aa D0040000 		.4byte	.LVL108
 9034 07ae EA040000 		.4byte	.LVL113
 9035 07b2 0200     		.2byte	0x2
 9036 07b4 32       		.byte	0x32
 9037 07b5 9F       		.byte	0x9f
 9038 07b6 00000000 		.4byte	0
 9039 07ba 00000000 		.4byte	0
 9040              	.LLST31:
 9041 07be 0C050000 		.4byte	.LVL116
 9042 07c2 26050000 		.4byte	.LVL121
 9043 07c6 0200     		.2byte	0x2
 9044 07c8 30       		.byte	0x30
 9045 07c9 9F       		.byte	0x9f
 9046 07ca 00000000 		.4byte	0
 9047 07ce 00000000 		.4byte	0
 9048              	.LLST32:
 9049 07d2 52050000 		.4byte	.LVL128
 9050 07d6 5A050000 		.4byte	.LVL129
 9051 07da 0100     		.2byte	0x1
 9052 07dc 50       		.byte	0x50
 9053 07dd 60050000 		.4byte	.LVL131
 9054 07e1 65050000 		.4byte	.LVL132-1
 9055 07e5 0100     		.2byte	0x1
 9056 07e7 51       		.byte	0x51
 9057 07e8 00000000 		.4byte	0
 9058 07ec 00000000 		.4byte	0
 9059              	.LLST33:
 9060 07f0 7C050000 		.4byte	.LVL134
 9061 07f4 A9050000 		.4byte	.LVL135-1
 9062 07f8 0100     		.2byte	0x1
 9063 07fa 52       		.byte	0x52
 9064 07fb 00000000 		.4byte	0
 9065 07ff 00000000 		.4byte	0
 9066              		.section	.debug_aranges,"",%progbits
 9067 0000 3C000000 		.4byte	0x3c
 9068 0004 0200     		.2byte	0x2
 9069 0006 00000000 		.4byte	.Ldebug_info0
 9070 000a 04       		.byte	0x4
 9071 000b 00       		.byte	0
 9072 000c 0000     		.2byte	0
 9073 000e 0000     		.2byte	0
 9074 0010 00000000 		.4byte	.LFB257
 9075 0014 44000000 		.4byte	.LFE257-.LFB257
 9076 0018 00000000 		.4byte	.LFB255
 9077 001c 60000000 		.4byte	.LFE255-.LFB255
 9078 0020 00000000 		.4byte	.LFB256
 9079 0024 38000000 		.4byte	.LFE256-.LFB256
 9080 0028 00000000 		.4byte	.LFB259
 9081 002c 1E000000 		.4byte	.LFE259-.LFB259
 9082 0030 00000000 		.4byte	.LFB260
ARM GAS  C:\Users\hkmnt\AppData\Local\Temp\ccBdSSuH.s 			page 195


 9083 0034 38060000 		.4byte	.LFE260-.LFB260
 9084 0038 00000000 		.4byte	0
 9085 003c 00000000 		.4byte	0
 9086              		.section	.debug_ranges,"",%progbits
 9087              	.Ldebug_ranges0:
 9088 0000 0C000000 		.4byte	.LBB37
 9089 0004 26000000 		.4byte	.LBE37
 9090 0008 28000000 		.4byte	.LBB38
 9091 000c 2A000000 		.4byte	.LBE38
 9092 0010 00000000 		.4byte	0
 9093 0014 00000000 		.4byte	0
 9094 0018 00000000 		.4byte	.LFB257
 9095 001c 44000000 		.4byte	.LFE257
 9096 0020 00000000 		.4byte	.LFB255
 9097 0024 60000000 		.4byte	.LFE255
 9098 0028 00000000 		.4byte	.LFB256
 9099 002c 38000000 		.4byte	.LFE256
 9100 0030 00000000 		.4byte	.LFB259
 9101 0034 1E000000 		.4byte	.LFE259
 9102 0038 00000000 		.4byte	.LFB260
 9103 003c 38060000 		.4byte	.LFE260
 9104 0040 00000000 		.4byte	0
 9105 0044 00000000 		.4byte	0
 9106              		.section	.debug_line,"",%progbits
 9107              	.Ldebug_line0:
 9108 0000 4C060000 		.section	.debug_str,"MS",%progbits,1
 9108      02003804 
 9108      00000201 
 9108      FB0E0D00 
 9108      01010101 
 9109              	.LASF290:
 9110 0000 63707573 		.ascii	"cpuss_interrupts_dw0_4_IRQn\000"
 9110      735F696E 
 9110      74657272 
 9110      75707473 
 9110      5F647730 
 9111              	.LASF397:
 9112 001c 43595F42 		.ascii	"CY_BLE_EVT_PENDING_FLASH_WRITE\000"
 9112      4C455F45 
 9112      56545F50 
 9112      454E4449 
 9112      4E475F46 
 9113              	.LASF361:
 9114 003b 7564625F 		.ascii	"udb_interrupts_3_IRQn\000"
 9114      696E7465 
 9114      72727570 
 9114      74735F33 
 9114      5F495251 
 9115              	.LASF64:
 9116 0051 43534456 		.ascii	"CSDV2_CSD0_ADC_VREF1\000"
 9116      325F4353 
 9116      44305F41 
 9116      44435F56 
 9116      52454631 
 9117              	.LASF148:
 9118 0066 63727970 		.ascii	"cryptoBase\000"
 9118      746F4261 
ARM GAS  C:\Users\hkmnt\AppData\Local\Temp\ccBdSSuH.s 			page 196


 9118      736500
 9119              	.LASF4:
 9120 0071 756E7369 		.ascii	"unsigned char\000"
 9120      676E6564 
 9120      20636861 
 9120      7200
 9121              	.LASF891:
 9122 007f 74636F6E 		.ascii	"tconnHandle\000"
 9122      6E48616E 
 9122      646C6500 
 9123              	.LASF212:
 9124 008b 63707573 		.ascii	"cpussCm0StatusOffset\000"
 9124      73436D30 
 9124      53746174 
 9124      75734F66 
 9124      66736574 
 9125              	.LASF860:
 9126 00a0 43595F42 		.ascii	"CY_BLE_DIS_CHAR_COUNT\000"
 9126      4C455F44 
 9126      49535F43 
 9126      4841525F 
 9126      434F554E 
 9127              	.LASF179:
 9128 00b6 666C6173 		.ascii	"flashProgramDelay\000"
 9128      6850726F 
 9128      6772616D 
 9128      44656C61 
 9128      7900
 9129              	.LASF15:
 9130 00c8 73697A65 		.ascii	"sizetype\000"
 9130      74797065 
 9130      00
 9131              	.LASF829:
 9132 00d1 7478506F 		.ascii	"txPowerLevelConn\000"
 9132      7765724C 
 9132      6576656C 
 9132      436F6E6E 
 9132      00
 9133              	.LASF123:
 9134 00e2 544F4332 		.ascii	"TOC2_CRC_ADDR\000"
 9134      5F435243 
 9134      5F414444 
 9134      5200
 9135              	.LASF771:
 9136 00f0 73657276 		.ascii	"serviceHandle\000"
 9136      69636548 
 9136      616E646C 
 9136      6500
 9137              	.LASF520:
 9138 00fe 43595F42 		.ascii	"CY_BLE_ERROR_REPEATED_ATTEMPTS\000"
 9138      4C455F45 
 9138      52524F52 
 9138      5F524550 
 9138      45415445 
 9139              	.LASF684:
 9140 011d 43595F42 		.ascii	"CY_BLE_GAP_AUTH_ERROR_PAIRING_NOT_SUPPORTED\000"
 9140      4C455F47 
ARM GAS  C:\Users\hkmnt\AppData\Local\Temp\ccBdSSuH.s 			page 197


 9140      41505F41 
 9140      5554485F 
 9140      4552524F 
 9141              	.LASF425:
 9142 0149 43595F42 		.ascii	"CY_BLE_EVT_SET_DEVICE_ADDR_COMPLETE\000"
 9142      4C455F45 
 9142      56545F53 
 9142      45545F44 
 9142      45564943 
 9143              	.LASF705:
 9144 016d 656B6579 		.ascii	"ekeySize\000"
 9144      53697A65 
 9144      00
 9145              	.LASF506:
 9146 0176 43595F42 		.ascii	"CY_BLE_EVT_L2CAP_CBFC_TX_CREDIT_IND\000"
 9146      4C455F45 
 9146      56545F4C 
 9146      32434150 
 9146      5F434246 
 9147              	.LASF680:
 9148 019a 43595F42 		.ascii	"CY_BLE_GAP_AUTH_ERROR_PASSKEY_ENTRY_FAILED\000"
 9148      4C455F47 
 9148      41505F41 
 9148      5554485F 
 9148      4552524F 
 9149              	.LASF904:
 9150 01c5 43795F42 		.ascii	"Cy_BLE_ApplCallback\000"
 9150      4C455F41 
 9150      70706C43 
 9150      616C6C62 
 9150      61636B00 
 9151              	.LASF912:
 9152 01d9 43795F42 		.ascii	"Cy_BLE_GATTS_WriteRsp\000"
 9152      4C455F47 
 9152      41545453 
 9152      5F577269 
 9152      74655273 
 9153              	.LASF249:
 9154 01ef 696F7373 		.ascii	"ioss_interrupts_gpio_13_IRQn\000"
 9154      5F696E74 
 9154      65727275 
 9154      7074735F 
 9154      6770696F 
 9155              	.LASF635:
 9156 020c 43595F42 		.ascii	"CY_BLE_GATT_ERR_USER_DATA_ACCESS_NOT_PERMITTED\000"
 9156      4C455F47 
 9156      4154545F 
 9156      4552525F 
 9156      55534552 
 9157              	.LASF746:
 9158 023b 7363616E 		.ascii	"scanRspData\000"
 9158      52737044 
 9158      61746100 
 9159              	.LASF699:
 9160 0247 43595F42 		.ascii	"CY_BLE_GAP_PUBLIC_IDENTITY_ADDR_TYPE\000"
 9160      4C455F47 
 9160      41505F50 
ARM GAS  C:\Users\hkmnt\AppData\Local\Temp\ccBdSSuH.s 			page 198


 9160      55424C49 
 9160      435F4944 
 9161              	.LASF530:
 9162 026c 43595F42 		.ascii	"CY_BLE_ERROR_FLASH_WRITE\000"
 9162      4C455F45 
 9162      52524F52 
 9162      5F464C41 
 9162      53485F57 
 9163              	.LASF63:
 9164 0285 43534456 		.ascii	"CSDV2_CSD0_ADC_VREF0\000"
 9164      325F4353 
 9164      44305F41 
 9164      44435F56 
 9164      52454630 
 9165              	.LASF255:
 9166 029a 73727373 		.ascii	"srss_interrupt_mcwdt_0_IRQn\000"
 9166      5F696E74 
 9166      65727275 
 9166      70745F6D 
 9166      63776474 
 9167              	.LASF65:
 9168 02b6 43534456 		.ascii	"CSDV2_CSD0_ADC_VREF2\000"
 9168      325F4353 
 9168      44305F41 
 9168      44435F56 
 9168      52454632 
 9169              	.LASF424:
 9170 02cb 43595F42 		.ascii	"CY_BLE_EVT_SOFT_RESET_COMPLETE\000"
 9170      4C455F45 
 9170      56545F53 
 9170      4F46545F 
 9170      52455345 
 9171              	.LASF175:
 9172 02ea 63727970 		.ascii	"cryptoMemSize\000"
 9172      746F4D65 
 9172      6D53697A 
 9172      6500
 9173              	.LASF577:
 9174 02f8 72657175 		.ascii	"request\000"
 9174      65737400 
 9175              	.LASF683:
 9176 0300 43595F42 		.ascii	"CY_BLE_GAP_AUTH_ERROR_CONFIRM_VALUE_NOT_MATCH\000"
 9176      4C455F47 
 9176      41505F41 
 9176      5554485F 
 9176      4552524F 
 9177              	.LASF868:
 9178 032e 6576656E 		.ascii	"eventParam\000"
 9178      74506172 
 9178      616D00
 9179              	.LASF598:
 9180 0339 43595F42 		.ascii	"CY_BLE_GATT_READ_BLOB_RSP\000"
 9180      4C455F47 
 9180      4154545F 
 9180      52454144 
 9180      5F424C4F 
 9181              	.LASF487:
ARM GAS  C:\Users\hkmnt\AppData\Local\Temp\ccBdSSuH.s 			page 199


 9182 0353 43595F42 		.ascii	"CY_BLE_EVT_GATTS_PREP_WRITE_REQ\000"
 9182      4C455F45 
 9182      56545F47 
 9182      41545453 
 9182      5F505245 
 9183              	.LASF556:
 9184 0373 63795F65 		.ascii	"cy_en_ble_bless_pwr_lvl_t\000"
 9184      6E5F626C 
 9184      655F626C 
 9184      6573735F 
 9184      7077725F 
 9185              	.LASF144:
 9186 038d 6873696F 		.ascii	"hsiomBase\000"
 9186      6D426173 
 9186      6500
 9187              	.LASF327:
 9188 0397 74637077 		.ascii	"tcpwm_0_interrupts_1_IRQn\000"
 9188      6D5F305F 
 9188      696E7465 
 9188      72727570 
 9188      74735F31 
 9189              	.LASF511:
 9190 03b1 43595F42 		.ascii	"CY_BLE_INFO_FLASH_WRITE_IN_PROGRESS\000"
 9190      4C455F49 
 9190      4E464F5F 
 9190      464C4153 
 9190      485F5752 
 9191              	.LASF165:
 9192 03d5 73727373 		.ascii	"srssNumClkpath\000"
 9192      4E756D43 
 9192      6C6B7061 
 9192      746800
 9193              	.LASF430:
 9194 03e4 43595F42 		.ascii	"CY_BLE_EVT_GET_CLK_CONFIG_COMPLETE\000"
 9194      4C455F45 
 9194      56545F47 
 9194      45545F43 
 9194      4C4B5F43 
 9195              	.LASF768:
 9196 0407 43595F42 		.ascii	"CY_BLE_CONN_STATE_CLIENT_DESCR_DISCOVERING\000"
 9196      4C455F43 
 9196      4F4E4E5F 
 9196      53544154 
 9196      455F434C 
 9197              	.LASF605:
 9198 0432 43595F42 		.ascii	"CY_BLE_GATT_WRITE_CMD\000"
 9198      4C455F47 
 9198      4154545F 
 9198      57524954 
 9198      455F434D 
 9199              	.LASF622:
 9200 0448 43595F42 		.ascii	"CY_BLE_GATT_ERR_REQUEST_NOT_SUPPORTED\000"
 9200      4C455F47 
 9200      4154545F 
 9200      4552525F 
 9200      52455155 
 9201              	.LASF759:
ARM GAS  C:\Users\hkmnt\AppData\Local\Temp\ccBdSSuH.s 			page 200


 9202 046e 43595F42 		.ascii	"CY_BLE_ADV_STATE_ADVERTISING\000"
 9202      4C455F41 
 9202      44565F53 
 9202      54415445 
 9202      5F414456 
 9203              	.LASF403:
 9204 048b 43595F42 		.ascii	"CY_BLE_EVT_LE_SET_EVENT_MASK_COMPLETE\000"
 9204      4C455F45 
 9204      56545F4C 
 9204      455F5345 
 9204      545F4556 
 9205              	.LASF94:
 9206 04b1 544F4331 		.ascii	"TOC1_UNIQUE_ID_ADDR\000"
 9206      5F554E49 
 9206      5155455F 
 9206      49445F41 
 9206      44445200 
 9207              	.LASF333:
 9208 04c5 74637077 		.ascii	"tcpwm_0_interrupts_7_IRQn\000"
 9208      6D5F305F 
 9208      696E7465 
 9208      72727570 
 9208      74735F37 
 9209              	.LASF241:
 9210 04df 696F7373 		.ascii	"ioss_interrupts_gpio_5_IRQn\000"
 9210      5F696E74 
 9210      65727275 
 9210      7074735F 
 9210      6770696F 
 9211              	.LASF360:
 9212 04fb 7564625F 		.ascii	"udb_interrupts_2_IRQn\000"
 9212      696E7465 
 9212      72727570 
 9212      74735F32 
 9212      5F495251 
 9213              	.LASF756:
 9214 0511 63795F65 		.ascii	"cy_en_ble_state_t\000"
 9214      6E5F626C 
 9214      655F7374 
 9214      6174655F 
 9214      7400
 9215              	.LASF546:
 9216 0523 6C6F6275 		.ascii	"lobuffLimit\000"
 9216      66664C69 
 9216      6D697400 
 9217              	.LASF399:
 9218 052f 43595F42 		.ascii	"CY_BLE_EVT_HARDWARE_ERROR\000"
 9218      4C455F45 
 9218      56545F48 
 9218      41524457 
 9218      4152455F 
 9219              	.LASF282:
 9220 0549 7363625F 		.ascii	"scb_5_interrupt_IRQn\000"
 9220      355F696E 
 9220      74657272 
 9220      7570745F 
 9220      4952516E 
ARM GAS  C:\Users\hkmnt\AppData\Local\Temp\ccBdSSuH.s 			page 201


 9221              	.LASF400:
 9222 055e 43595F42 		.ascii	"CY_BLE_EVT_WRITE_AUTH_PAYLOAD_TO_COMPLETE\000"
 9222      4C455F45 
 9222      56545F57 
 9222      52495445 
 9222      5F415554 
 9223              	.LASF749:
 9224 0588 64697363 		.ascii	"discMode\000"
 9224      4D6F6465 
 9224      00
 9225              	.LASF748:
 9226 0591 63795F73 		.ascii	"cy_stc_ble_gapp_scan_rsp_data_t\000"
 9226      74635F62 
 9226      6C655F67 
 9226      6170705F 
 9226      7363616E 
 9227              	.LASF258:
 9228 05b1 73727373 		.ascii	"srss_interrupt_IRQn\000"
 9228      5F696E74 
 9228      65727275 
 9228      70745F49 
 9228      52516E00 
 9229              	.LASF592:
 9230 05c5 43595F42 		.ascii	"CY_BLE_GATT_FIND_BY_TYPE_VALUE_RSP\000"
 9230      4C455F47 
 9230      4154545F 
 9230      46494E44 
 9230      5F42595F 
 9231              	.LASF616:
 9232 05e8 43595F42 		.ascii	"CY_BLE_GATT_ERR_NONE\000"
 9232      4C455F47 
 9232      4154545F 
 9232      4552525F 
 9232      4E4F4E45 
 9233              	.LASF619:
 9234 05fd 43595F42 		.ascii	"CY_BLE_GATT_ERR_WRITE_NOT_PERMITTED\000"
 9234      4C455F47 
 9234      4154545F 
 9234      4552525F 
 9234      57524954 
 9235              	.LASF878:
 9236 0621 61646472 		.ascii	"addressValid\000"
 9236      65737356 
 9236      616C6964 
 9236      00
 9237              	.LASF340:
 9238 062e 74637077 		.ascii	"tcpwm_1_interrupts_6_IRQn\000"
 9238      6D5F315F 
 9238      696E7465 
 9238      72727570 
 9238      74735F36 
 9239              	.LASF112:
 9240 0648 544F4332 		.ascii	"TOC2_KEY_BLOCK_ADDR\000"
 9240      5F4B4559 
 9240      5F424C4F 
 9240      434B5F41 
 9240      44445200 
ARM GAS  C:\Users\hkmnt\AppData\Local\Temp\ccBdSSuH.s 			page 202


 9241              	.LASF321:
 9242 065c 63707573 		.ascii	"cpuss_interrupt_fm_IRQn\000"
 9242      735F696E 
 9242      74657272 
 9242      7570745F 
 9242      666D5F49 
 9243              	.LASF865:
 9244 0674 73746174 		.ascii	"state\000"
 9244      6500
 9245              	.LASF77:
 9246 067a 43505553 		.ascii	"CPUSS_TRIM_RAM_CTL_HALF_LP\000"
 9246      535F5452 
 9246      494D5F52 
 9246      414D5F43 
 9246      544C5F48 
 9247              	.LASF677:
 9248 0695 43595F42 		.ascii	"CY_BLE_GAP_IOCAP_KEYBOARD_DISPLAY\000"
 9248      4C455F47 
 9248      41505F49 
 9248      4F434150 
 9248      5F4B4559 
 9249              	.LASF234:
 9250 06b7 50656E64 		.ascii	"PendSV_IRQn\000"
 9250      53565F49 
 9250      52516E00 
 9251              	.LASF716:
 9252 06c3 726F6C65 		.ascii	"role\000"
 9252      00
 9253              	.LASF46:
 9254 06c8 4C444F5F 		.ascii	"LDO_1P1V_TRIM\000"
 9254      31503156 
 9254      5F545249 
 9254      4D00
 9255              	.LASF205:
 9256 06d6 6770696F 		.ascii	"gpioPrtCfgOffset\000"
 9256      50727443 
 9256      66674F66 
 9256      66736574 
 9256      00
 9257              	.LASF787:
 9258 06e7 66617374 		.ascii	"fastScanWindow\000"
 9258      5363616E 
 9258      57696E64 
 9258      6F7700
 9259              	.LASF780:
 9260 06f6 66617374 		.ascii	"fastAdvTimeOut\000"
 9260      41647654 
 9260      696D654F 
 9260      757400
 9261              	.LASF700:
 9262 0705 43595F42 		.ascii	"CY_BLE_GAP_RANDOM_IDENTITY_ADDR_TYPE\000"
 9262      4C455F47 
 9262      41505F52 
 9262      414E444F 
 9262      4D5F4944 
 9263              	.LASF625:
 9264 072a 43595F42 		.ascii	"CY_BLE_GATT_ERR_PREPARE_WRITE_QUEUE_FULL\000"
ARM GAS  C:\Users\hkmnt\AppData\Local\Temp\ccBdSSuH.s 			page 203


 9264      4C455F47 
 9264      4154545F 
 9264      4552525F 
 9264      50524550 
 9265              	.LASF334:
 9266 0753 74637077 		.ascii	"tcpwm_1_interrupts_0_IRQn\000"
 9266      6D5F315F 
 9266      696E7465 
 9266      72727570 
 9266      74735F30 
 9267              	.LASF498:
 9268 076d 43595F42 		.ascii	"CY_BLE_EVT_L2CAP_CONN_PARAM_UPDATE_RSP\000"
 9268      4C455F45 
 9268      56545F4C 
 9268      32434150 
 9268      5F434F4E 
 9269              	.LASF69:
 9270 0794 43505553 		.ascii	"CPUSS_TRIM_ROM_CTL_ULP\000"
 9270      535F5452 
 9270      494D5F52 
 9270      4F4D5F43 
 9270      544C5F55 
 9271              	.LASF167:
 9272 07ab 73727373 		.ascii	"srssNumHfroot\000"
 9272      4E756D48 
 9272      66726F6F 
 9272      7400
 9273              	.LASF687:
 9274 07b9 43595F42 		.ascii	"CY_BLE_GAP_AUTH_ERROR_UNSPECIFIED_REASON\000"
 9274      4C455F47 
 9274      41505F41 
 9274      5554485F 
 9274      4552524F 
 9275              	.LASF30:
 9276 07e2 4449455F 		.ascii	"DIE_LOT\000"
 9276      4C4F5400 
 9277              	.LASF812:
 9278 07ea 7065726D 		.ascii	"permission\000"
 9278      69737369 
 9278      6F6E00
 9279              	.LASF248:
 9280 07f5 696F7373 		.ascii	"ioss_interrupts_gpio_12_IRQn\000"
 9280      5F696E74 
 9280      65727275 
 9280      7074735F 
 9280      6770696F 
 9281              	.LASF542:
 9282 0812 74797065 		.ascii	"type\000"
 9282      00
 9283              	.LASF297:
 9284 0817 63707573 		.ascii	"cpuss_interrupts_dw0_11_IRQn\000"
 9284      735F696E 
 9284      74657272 
 9284      75707473 
 9284      5F647730 
 9285              	.LASF732:
 9286 0834 43595F42 		.ascii	"CY_BLE_GAPP_NON_CONNECTABLE_UNDIRECTED_ADV\000"
ARM GAS  C:\Users\hkmnt\AppData\Local\Temp\ccBdSSuH.s 			page 204


 9286      4C455F47 
 9286      4150505F 
 9286      4E4F4E5F 
 9286      434F4E4E 
 9287              	.LASF378:
 9288 085f 736D6966 		.ascii	"smif_interrupt_IRQn\000"
 9288      5F696E74 
 9288      65727275 
 9288      70745F49 
 9288      52516E00 
 9289              	.LASF348:
 9290 0873 74637077 		.ascii	"tcpwm_1_interrupts_14_IRQn\000"
 9290      6D5F315F 
 9290      696E7465 
 9290      72727570 
 9290      74735F31 
 9291              	.LASF423:
 9292 088e 43595F42 		.ascii	"CY_BLE_EVT_LL_CNTRL_PROC_PENDING_COMPLETE\000"
 9292      4C455F45 
 9292      56545F4C 
 9292      4C5F434E 
 9292      54524C5F 
 9293              	.LASF317:
 9294 08b8 63707573 		.ascii	"cpuss_interrupts_dw1_15_IRQn\000"
 9294      735F696E 
 9294      74657272 
 9294      75707473 
 9294      5F647731 
 9295              	.LASF130:
 9296 08d5 52544F43 		.ascii	"RTOC2_SECOND_USER_APP_ADDR\000"
 9296      325F5345 
 9296      434F4E44 
 9296      5F555345 
 9296      525F4150 
 9297              	.LASF190:
 9298 08f0 64775374 		.ascii	"dwStatusChIdxPos\000"
 9298      61747573 
 9298      43684964 
 9298      78506F73 
 9298      00
 9299              	.LASF489:
 9300 0901 43595F42 		.ascii	"CY_BLE_EVT_GATTC_EXEC_WRITE_RSP\000"
 9300      4C455F45 
 9300      56545F47 
 9300      41545443 
 9300      5F455845 
 9301              	.LASF846:
 9302 0921 63616C6C 		.ascii	"callbackFunc\000"
 9302      6261636B 
 9302      46756E63 
 9302      00
 9303              	.LASF835:
 9304 092e 64697363 		.ascii	"discoveryModeInfo\000"
 9304      6F766572 
 9304      794D6F64 
 9304      65496E66 
 9304      6F00
ARM GAS  C:\Users\hkmnt\AppData\Local\Temp\ccBdSSuH.s 			page 205


 9305              	.LASF849:
 9306 0940 70614361 		.ascii	"paCalConfig\000"
 9306      6C436F6E 
 9306      66696700 
 9307              	.LASF755:
 9308 094c 43595F42 		.ascii	"CY_BLE_STATE_ON\000"
 9308      4C455F53 
 9308      54415445 
 9308      5F4F4E00 
 9309              	.LASF467:
 9310 095c 43595F42 		.ascii	"CY_BLE_EVT_GAP_GEN_SET_LOCAL_P256_KEYS_COMPLETE\000"
 9310      4C455F45 
 9310      56545F47 
 9310      41505F47 
 9310      454E5F53 
 9311              	.LASF264:
 9312 098c 63707573 		.ascii	"cpuss_interrupts_ipc_3_IRQn\000"
 9312      735F696E 
 9312      74657272 
 9312      75707473 
 9312      5F697063 
 9313              	.LASF332:
 9314 09a8 74637077 		.ascii	"tcpwm_0_interrupts_6_IRQn\000"
 9314      6D5F305F 
 9314      696E7465 
 9314      72727570 
 9314      74735F36 
 9315              	.LASF365:
 9316 09c2 7564625F 		.ascii	"udb_interrupts_7_IRQn\000"
 9316      696E7465 
 9316      72727570 
 9316      74735F37 
 9316      5F495251 
 9317              	.LASF240:
 9318 09d8 696F7373 		.ascii	"ioss_interrupts_gpio_4_IRQn\000"
 9318      5F696E74 
 9318      65727275 
 9318      7074735F 
 9318      6770696F 
 9319              	.LASF496:
 9320 09f4 43595F42 		.ascii	"CY_BLE_EVT_GATTC_LONG_PROCEDURE_END\000"
 9320      4C455F45 
 9320      56545F47 
 9320      41545443 
 9320      5F4C4F4E 
 9321              	.LASF58:
 9322 0a18 5354414E 		.ascii	"STANDARD_MPU_STRUCT\000"
 9322      44415244 
 9322      5F4D5055 
 9322      5F535452 
 9322      55435400 
 9323              	.LASF623:
 9324 0a2c 43595F42 		.ascii	"CY_BLE_GATT_ERR_INVALID_OFFSET\000"
 9324      4C455F47 
 9324      4154545F 
 9324      4552525F 
 9324      494E5641 
ARM GAS  C:\Users\hkmnt\AppData\Local\Temp\ccBdSSuH.s 			page 206


 9325              	.LASF501:
 9326 0a4b 43595F42 		.ascii	"CY_BLE_EVT_L2CAP_CBFC_CONN_CNF\000"
 9326      4C455F45 
 9326      56545F4C 
 9326      32434150 
 9326      5F434246 
 9327              	.LASF109:
 9328 0a6a 52544F43 		.ascii	"RTOC1_CRC_ADDR\000"
 9328      315F4352 
 9328      435F4144 
 9328      445200
 9329              	.LASF898:
 9330 0a79 63795F62 		.ascii	"cy_ble_advState\000"
 9330      6C655F61 
 9330      64765374 
 9330      61746500 
 9331              	.LASF152:
 9332 0a89 666C6173 		.ascii	"flashcVersion\000"
 9332      68635665 
 9332      7273696F 
 9332      6E00
 9333              	.LASF5:
 9334 0a97 5F5F7569 		.ascii	"__uint8_t\000"
 9334      6E74385F 
 9334      7400
 9335              	.LASF587:
 9336 0aa1 43595F42 		.ascii	"CY_BLE_GATT_XCNHG_MTU_REQ\000"
 9336      4C455F47 
 9336      4154545F 
 9336      58434E48 
 9336      475F4D54 
 9337              	.LASF305:
 9338 0abb 63707573 		.ascii	"cpuss_interrupts_dw1_3_IRQn\000"
 9338      735F696E 
 9338      74657272 
 9338      75707473 
 9338      5F647731 
 9339              	.LASF389:
 9340 0ad7 696E7472 		.ascii	"intrSrc\000"
 9340      53726300 
 9341              	.LASF53:
 9342 0adf 44455649 		.ascii	"DEVICE_UID\000"
 9342      43455F55 
 9342      494400
 9343              	.LASF575:
 9344 0aea 70777243 		.ascii	"pwrConfigParam\000"
 9344      6F6E6669 
 9344      67506172 
 9344      616D00
 9345              	.LASF742:
 9346 0af9 63795F73 		.ascii	"cy_stc_ble_gapp_disc_param_t\000"
 9346      74635F62 
 9346      6C655F67 
 9346      6170705F 
 9346      64697363 
 9347              	.LASF714:
 9348 0b16 6C6F6361 		.ascii	"localResolvablePvtAddr\000"
ARM GAS  C:\Users\hkmnt\AppData\Local\Temp\ccBdSSuH.s 			page 207


 9348      6C526573 
 9348      6F6C7661 
 9348      626C6550 
 9348      76744164 
 9349              	.LASF691:
 9350 0b2d 43595F42 		.ascii	"CY_BLE_GAP_AUTH_ERROR_NUMERIC_COMPARISON_FAILED\000"
 9350      4C455F47 
 9350      41505F41 
 9350      5554485F 
 9350      4552524F 
 9351              	.LASF563:
 9352 0b5d 43595F42 		.ascii	"CY_BLE_GATT_RSP_TO\000"
 9352      4C455F47 
 9352      4154545F 
 9352      5253505F 
 9352      544F00
 9353              	.LASF491:
 9354 0b70 43595F42 		.ascii	"CY_BLE_EVT_GATTC_HANDLE_VALUE_IND\000"
 9354      4C455F45 
 9354      56545F47 
 9354      41545443 
 9354      5F48414E 
 9355              	.LASF696:
 9356 0b92 63795F65 		.ascii	"cy_en_ble_gap_auth_failed_reason_t\000"
 9356      6E5F626C 
 9356      655F6761 
 9356      705F6175 
 9356      74685F66 
 9357              	.LASF631:
 9358 0bb5 43595F42 		.ascii	"CY_BLE_GATT_ERR_INSUFFICIENT_ENCRYPTION\000"
 9358      4C455F47 
 9358      4154545F 
 9358      4552525F 
 9358      494E5355 
 9359              	.LASF395:
 9360 0bdd 43595F42 		.ascii	"CY_BLE_EVT_STACK_BUSY_STATUS\000"
 9360      4C455F45 
 9360      56545F53 
 9360      5441434B 
 9360      5F425553 
 9361              	.LASF599:
 9362 0bfa 43595F42 		.ascii	"CY_BLE_GATT_READ_MULTIPLE_REQ\000"
 9362      4C455F47 
 9362      4154545F 
 9362      52454144 
 9362      5F4D554C 
 9363              	.LASF11:
 9364 0c18 6C6F6E67 		.ascii	"long int\000"
 9364      20696E74 
 9364      00
 9365              	.LASF475:
 9366 0c21 43595F42 		.ascii	"CY_BLE_EVT_GATTS_XCNHG_MTU_REQ\000"
 9366      4C455F45 
 9366      56545F47 
 9366      41545453 
 9366      5F58434E 
 9367              	.LASF596:
ARM GAS  C:\Users\hkmnt\AppData\Local\Temp\ccBdSSuH.s 			page 208


 9368 0c40 43595F42 		.ascii	"CY_BLE_GATT_READ_RSP\000"
 9368      4C455F47 
 9368      4154545F 
 9368      52454144 
 9368      5F525350 
 9369              	.LASF441:
 9370 0c55 43595F42 		.ascii	"CY_BLE_EVT_SET_EVENT_MASK_COMPLETE\000"
 9370      4C455F45 
 9370      56545F53 
 9370      45545F45 
 9370      56454E54 
 9371              	.LASF769:
 9372 0c78 43595F42 		.ascii	"CY_BLE_CONN_STATE_CLIENT_DISCOVERED\000"
 9372      4C455F43 
 9372      4F4E4E5F 
 9372      53544154 
 9372      455F434C 
 9373              	.LASF783:
 9374 0c9c 736C6F77 		.ascii	"slowAdvIntervalMax\000"
 9374      41647649 
 9374      6E746572 
 9374      76616C4D 
 9374      617800
 9375              	.LASF621:
 9376 0caf 43595F42 		.ascii	"CY_BLE_GATT_ERR_INSUFFICIENT_AUTHENTICATION\000"
 9376      4C455F47 
 9376      4154545F 
 9376      4552525F 
 9376      494E5355 
 9377              	.LASF358:
 9378 0cdb 7564625F 		.ascii	"udb_interrupts_0_IRQn\000"
 9378      696E7465 
 9378      72727570 
 9378      74735F30 
 9378      5F495251 
 9379              	.LASF157:
 9380 0cf1 70726F74 		.ascii	"protVersion\000"
 9380      56657273 
 9380      696F6E00 
 9381              	.LASF347:
 9382 0cfd 74637077 		.ascii	"tcpwm_1_interrupts_13_IRQn\000"
 9382      6D5F315F 
 9382      696E7465 
 9382      72727570 
 9382      74735F31 
 9383              	.LASF484:
 9384 0d18 43595F42 		.ascii	"CY_BLE_EVT_GATTS_WRITE_REQ\000"
 9384      4C455F45 
 9384      56545F47 
 9384      41545453 
 9384      5F575249 
 9385              	.LASF658:
 9386 0d33 76616C75 		.ascii	"value\000"
 9386      6500
 9387              	.LASF172:
 9388 0d39 75646250 		.ascii	"udbPresent\000"
 9388      72657365 
ARM GAS  C:\Users\hkmnt\AppData\Local\Temp\ccBdSSuH.s 			page 209


 9388      6E7400
 9389              	.LASF110:
 9390 0d44 544F4332 		.ascii	"TOC2_OBJECT_SIZE\000"
 9390      5F4F424A 
 9390      4543545F 
 9390      53495A45 
 9390      00
 9391              	.LASF870:
 9392 0d55 6576656E 		.ascii	"eventHandlerFunc\000"
 9392      7448616E 
 9392      646C6572 
 9392      46756E63 
 9392      00
 9393              	.LASF37:
 9394 0d66 4449455F 		.ascii	"DIE_MONTH\000"
 9394      4D4F4E54 
 9394      4800
 9395              	.LASF574:
 9396 0d70 626C6550 		.ascii	"blePwrLevel\000"
 9396      77724C65 
 9396      76656C00 
 9397              	.LASF646:
 9398 0d7c 43595F42 		.ascii	"CY_BLE_GATT_ERR_ANS_COMMAND_NOT_SUPPORTED\000"
 9398      4C455F47 
 9398      4154545F 
 9398      4552525F 
 9398      414E535F 
 9399              	.LASF657:
 9400 0da6 63795F73 		.ascii	"cy_stc_ble_gatt_value_t\000"
 9400      74635F62 
 9400      6C655F67 
 9400      6174745F 
 9400      76616C75 
 9401              	.LASF200:
 9402 0dbe 70657269 		.ascii	"periDiv8CtlOffset\000"
 9402      44697638 
 9402      43746C4F 
 9402      66667365 
 9402      7400
 9403              	.LASF827:
 9404 0dd0 63795F73 		.ascii	"cy_stc_ble_flash_storage_t\000"
 9404      74635F62 
 9404      6C655F66 
 9404      6C617368 
 9404      5F73746F 
 9405              	.LASF930:
 9406 0deb 43795F42 		.ascii	"Cy_BLE_EventHandler\000"
 9406      4C455F45 
 9406      76656E74 
 9406      48616E64 
 9406      6C657200 
 9407              	.LASF721:
 9408 0dff 7363616E 		.ascii	"scanType\000"
 9408      54797065 
 9408      00
 9409              	.LASF9:
 9410 0e08 73686F72 		.ascii	"short unsigned int\000"
ARM GAS  C:\Users\hkmnt\AppData\Local\Temp\ccBdSSuH.s 			page 210


 9410      7420756E 
 9410      7369676E 
 9410      65642069 
 9410      6E7400
 9411              	.LASF617:
 9412 0e1b 43595F42 		.ascii	"CY_BLE_GATT_ERR_INVALID_HANDLE\000"
 9412      4C455F47 
 9412      4154545F 
 9412      4552525F 
 9412      494E5641 
 9413              	.LASF364:
 9414 0e3a 7564625F 		.ascii	"udb_interrupts_6_IRQn\000"
 9414      696E7465 
 9414      72727570 
 9414      74735F36 
 9414      5F495251 
 9415              	.LASF890:
 9416 0e50 74457650 		.ascii	"tEvParam\000"
 9416      6172616D 
 9416      00
 9417              	.LASF422:
 9418 0e59 43595F42 		.ascii	"CY_BLE_EVT_SET_PRIVACY_MODE_COMPLETE\000"
 9418      4C455F45 
 9418      56545F53 
 9418      45545F50 
 9418      52495641 
 9419              	.LASF753:
 9420 0e7e 43595F42 		.ascii	"CY_BLE_STATE_STOPPED\000"
 9420      4C455F53 
 9420      54415445 
 9420      5F53544F 
 9420      50504544 
 9421              	.LASF272:
 9422 0e93 63707573 		.ascii	"cpuss_interrupts_ipc_11_IRQn\000"
 9422      735F696E 
 9422      74657272 
 9422      75707473 
 9422      5F697063 
 9423              	.LASF694:
 9424 0eb0 43595F42 		.ascii	"CY_BLE_GAP_AUTH_ERROR_AUTHENTICATION_TIMEOUT\000"
 9424      4C455F47 
 9424      41505F41 
 9424      5554485F 
 9424      4552524F 
 9425              	.LASF454:
 9426 0edd 43595F42 		.ascii	"CY_BLE_EVT_GAP_ENCRYPT_CHANGE\000"
 9426      4C455F45 
 9426      56545F47 
 9426      41505F45 
 9426      4E435259 
 9427              	.LASF875:
 9428 0efb 43795F42 		.ascii	"Cy_BLE_InvokeServiceEventHandler\000"
 9428      4C455F49 
 9428      6E766F6B 
 9428      65536572 
 9428      76696365 
 9429              	.LASF413:
ARM GAS  C:\Users\hkmnt\AppData\Local\Temp\ccBdSSuH.s 			page 211


 9430 0f1c 43595F42 		.ascii	"CY_BLE_EVT_SET_HOST_CHANNEL_COMPLETE\000"
 9430      4C455F45 
 9430      56545F53 
 9430      45545F48 
 9430      4F53545F 
 9431              	.LASF777:
 9432 0f41 63795F73 		.ascii	"cy_stc_ble_gaps_t\000"
 9432      74635F62 
 9432      6C655F67 
 9432      6170735F 
 9432      7400
 9433              	.LASF223:
 9434 0f53 69706353 		.ascii	"ipcStructSize\000"
 9434      74727563 
 9434      7453697A 
 9434      6500
 9435              	.LASF758:
 9436 0f61 43595F42 		.ascii	"CY_BLE_ADV_STATE_ADV_INITIATED\000"
 9436      4C455F41 
 9436      44565F53 
 9436      54415445 
 9436      5F414456 
 9437              	.LASF811:
 9438 0f80 61747454 		.ascii	"attType\000"
 9438      79706500 
 9439              	.LASF883:
 9440 0f88 65765061 		.ascii	"evParam\000"
 9440      72616D00 
 9441              	.LASF304:
 9442 0f90 63707573 		.ascii	"cpuss_interrupts_dw1_2_IRQn\000"
 9442      735F696E 
 9442      74657272 
 9442      75707473 
 9442      5F647731 
 9443              	.LASF572:
 9444 0fac 626C6553 		.ascii	"bleSsChId\000"
 9444      73436849 
 9444      6400
 9445              	.LASF446:
 9446 0fb6 43595F42 		.ascii	"CY_BLE_EVT_GAP_AUTH_REQ\000"
 9446      4C455F45 
 9446      56545F47 
 9446      41505F41 
 9446      5554485F 
 9447              	.LASF99:
 9448 0fce 544F4331 		.ascii	"TOC1_CRC_ADDR\000"
 9448      5F435243 
 9448      5F414444 
 9448      5200
 9449              	.LASF235:
 9450 0fdc 53797354 		.ascii	"SysTick_IRQn\000"
 9450      69636B5F 
 9450      4952516E 
 9450      00
 9451              	.LASF104:
 9452 0fe9 52544F43 		.ascii	"RTOC1_UNIQUE_ID_ADDR\000"
 9452      315F554E 
ARM GAS  C:\Users\hkmnt\AppData\Local\Temp\ccBdSSuH.s 			page 212


 9452      49515545 
 9452      5F49445F 
 9452      41444452 
 9453              	.LASF415:
 9454 0ffe 43595F42 		.ascii	"CY_BLE_EVT_REMOVE_DEVICE_FROM_RPA_LIST_COMPLETE\000"
 9454      4C455F45 
 9454      56545F52 
 9454      454D4F56 
 9454      455F4445 
 9455              	.LASF79:
 9456 102e 464C4153 		.ascii	"FLASH_BOOT_OBJECT_SIZE\000"
 9456      485F424F 
 9456      4F545F4F 
 9456      424A4543 
 9456      545F5349 
 9457              	.LASF285:
 9458 1045 6373645F 		.ascii	"csd_interrupt_IRQn\000"
 9458      696E7465 
 9458      72727570 
 9458      745F4952 
 9458      516E00
 9459              	.LASF566:
 9460 1058 43595F42 		.ascii	"CY_BLE_PREPARED_WRITE_REQUEST\000"
 9460      4C455F50 
 9460      52455041 
 9460      5245445F 
 9460      57524954 
 9461              	.LASF553:
 9462 1076 43595F42 		.ascii	"CY_BLE_LL_PWR_LVL_NEG_6_DBM\000"
 9462      4C455F4C 
 9462      4C5F5057 
 9462      525F4C56 
 9462      4C5F4E45 
 9463              	.LASF679:
 9464 1092 43595F42 		.ascii	"CY_BLE_GAP_AUTH_ERROR_NONE\000"
 9464      4C455F47 
 9464      41505F41 
 9464      5554485F 
 9464      4552524F 
 9465              	.LASF536:
 9466 10ad 43595F42 		.ascii	"CY_BLE_ERROR_CHAR_IS_NOT_DISCOVERED\000"
 9466      4C455F45 
 9466      52524F52 
 9466      5F434841 
 9466      525F4953 
 9467              	.LASF168:
 9468 10d1 70657269 		.ascii	"periClockNr\000"
 9468      436C6F63 
 9468      6B4E7200 
 9469              	.LASF895:
 9470 10dd 63795F62 		.ascii	"cy_ble_eventHandlerFlag\000"
 9470      6C655F65 
 9470      76656E74 
 9470      48616E64 
 9470      6C657246 
 9471              	.LASF462:
 9472 10f5 43595F42 		.ascii	"CY_BLE_EVT_GAPC_DIRECT_ADV_REPORT\000"
ARM GAS  C:\Users\hkmnt\AppData\Local\Temp\ccBdSSuH.s 			page 213


 9472      4C455F45 
 9472      56545F47 
 9472      4150435F 
 9472      44495245 
 9473              	.LASF17:
 9474 1117 75696E74 		.ascii	"uint8_t\000"
 9474      385F7400 
 9475              	.LASF444:
 9476 111f 43595F42 		.ascii	"CY_BLE_EVT_HCI_PKT_RCVD\000"
 9476      4C455F45 
 9476      56545F48 
 9476      43495F50 
 9476      4B545F52 
 9477              	.LASF118:
 9478 1137 544F4332 		.ascii	"TOC2_SHASH_OBJECTS\000"
 9478      5F534841 
 9478      53485F4F 
 9478      424A4543 
 9478      545300
 9479              	.LASF789:
 9480 114a 736C6F77 		.ascii	"slowScanEnabled\000"
 9480      5363616E 
 9480      456E6162 
 9480      6C656400 
 9481              	.LASF103:
 9482 115a 52544F43 		.ascii	"RTOC1_GENERAL_TRIM_ADDR_UNUSED\000"
 9482      315F4745 
 9482      4E455241 
 9482      4C5F5452 
 9482      494D5F41 
 9483              	.LASF436:
 9484 1179 43595F42 		.ascii	"CY_BLE_EVT_SET_SLAVE_LATENCY_MODE_COMPLETE\000"
 9484      4C455F45 
 9484      56545F53 
 9484      45545F53 
 9484      4C415645 
 9485              	.LASF396:
 9486 11a4 43595F42 		.ascii	"CY_BLE_EVT_MEMORY_REQUEST\000"
 9486      4C455F45 
 9486      56545F4D 
 9486      454D4F52 
 9486      595F5245 
 9487              	.LASF627:
 9488 11be 43595F42 		.ascii	"CY_BLE_GATT_ERR_ATTRIBUTE_NOT_LONG\000"
 9488      4C455F47 
 9488      4154545F 
 9488      4552525F 
 9488      41545452 
 9489              	.LASF655:
 9490 11e1 63795F62 		.ascii	"cy_ble_gatt_db_attr_handle_t\000"
 9490      6C655F67 
 9490      6174745F 
 9490      64625F61 
 9490      7474725F 
 9491              	.LASF198:
 9492 11fe 70657269 		.ascii	"periDivCmdPaDivSelPos\000"
 9492      44697643 
ARM GAS  C:\Users\hkmnt\AppData\Local\Temp\ccBdSSuH.s 			page 214


 9492      6D645061 
 9492      44697653 
 9492      656C506F 
 9493              	.LASF71:
 9494 1214 43505553 		.ascii	"CPUSS_TRIM_ROM_CTL_LP\000"
 9494      535F5452 
 9494      494D5F52 
 9494      4F4D5F43 
 9494      544C5F4C 
 9495              	.LASF219:
 9496 122a 63707573 		.ascii	"cpussRomCtl\000"
 9496      73526F6D 
 9496      43746C00 
 9497              	.LASF268:
 9498 1236 63707573 		.ascii	"cpuss_interrupts_ipc_7_IRQn\000"
 9498      735F696E 
 9498      74657272 
 9498      75707473 
 9498      5F697063 
 9499              	.LASF505:
 9500 1252 43595F42 		.ascii	"CY_BLE_EVT_L2CAP_CBFC_RX_CREDIT_IND\000"
 9500      4C455F45 
 9500      56545F4C 
 9500      32434150 
 9500      5F434246 
 9501              	.LASF492:
 9502 1276 43595F42 		.ascii	"CY_BLE_EVT_GATTS_HANDLE_VALUE_CNF\000"
 9502      4C455F45 
 9502      56545F47 
 9502      41545453 
 9502      5F48414E 
 9503              	.LASF244:
 9504 1298 696F7373 		.ascii	"ioss_interrupts_gpio_8_IRQn\000"
 9504      5F696E74 
 9504      65727275 
 9504      7074735F 
 9504      6770696F 
 9505              	.LASF712:
 9506 12b4 70656572 		.ascii	"peerBdAddr\000"
 9506      42644164 
 9506      647200
 9507              	.LASF140:
 9508 12bf 666C6173 		.ascii	"flashcBase\000"
 9508      68634261 
 9508      736500
 9509              	.LASF774:
 9510 12ca 70726566 		.ascii	"prefConnParamCharHandle\000"
 9510      436F6E6E 
 9510      50617261 
 9510      6D436861 
 9510      7248616E 
 9511              	.LASF324:
 9512 12e2 63707573 		.ascii	"cpuss_interrupts_cm4_cti_0_IRQn\000"
 9512      735F696E 
 9512      74657272 
 9512      75707473 
 9512      5F636D34 
ARM GAS  C:\Users\hkmnt\AppData\Local\Temp\ccBdSSuH.s 			page 215


 9513              	.LASF25:
 9514 1302 52455345 		.ascii	"RESERVED1\000"
 9514      52564544 
 9514      3100
 9515              	.LASF115:
 9516 130c 544F4332 		.ascii	"TOC2_FIRST_USER_APP_FORMAT\000"
 9516      5F464952 
 9516      53545F55 
 9516      5345525F 
 9516      4150505F 
 9517              	.LASF29:
 9518 1327 52455345 		.ascii	"RESERVED3\000"
 9518      52564544 
 9518      3300
 9519              	.LASF39:
 9520 1331 52455345 		.ascii	"RESERVED4\000"
 9520      52564544 
 9520      3400
 9521              	.LASF42:
 9522 133b 52455345 		.ascii	"RESERVED5\000"
 9522      52564544 
 9522      3500
 9523              	.LASF44:
 9524 1345 52455345 		.ascii	"RESERVED6\000"
 9524      52564544 
 9524      3600
 9525              	.LASF47:
 9526 134f 52455345 		.ascii	"RESERVED7\000"
 9526      52564544 
 9526      3700
 9527              	.LASF52:
 9528 1359 52455345 		.ascii	"RESERVED8\000"
 9528      52564544 
 9528      3800
 9529              	.LASF60:
 9530 1363 52455345 		.ascii	"RESERVED9\000"
 9530      52564544 
 9530      3900
 9531              	.LASF815:
 9532 136d 63795F73 		.ascii	"cy_stc_ble_gatts_db_t\000"
 9532      74635F62 
 9532      6C655F67 
 9532      61747473 
 9532      5F64625F 
 9533              	.LASF585:
 9534 1383 63795F73 		.ascii	"cy_stc_ble_timeout_param_t\000"
 9534      74635F62 
 9534      6C655F74 
 9534      696D656F 
 9534      75745F70 
 9535              	.LASF924:
 9536 139e 43795F42 		.ascii	"Cy_BLE_GATTS_ReadAttributeValueCCCDReqHandler\000"
 9536      4C455F47 
 9536      41545453 
 9536      5F526561 
 9536      64417474 
 9537              	.LASF464:
ARM GAS  C:\Users\hkmnt\AppData\Local\Temp\ccBdSSuH.s 			page 216


 9538 13cc 43595F42 		.ascii	"CY_BLE_EVT_GAP_DEVICE_ADDR_GEN_COMPLETE\000"
 9538      4C455F45 
 9538      56545F47 
 9538      41505F44 
 9538      45564943 
 9539              	.LASF767:
 9540 13f4 43595F42 		.ascii	"CY_BLE_CONN_STATE_CLIENT_CHAR_DISCOVERING\000"
 9540      4C455F43 
 9540      4F4E4E5F 
 9540      53544154 
 9540      455F434C 
 9541              	.LASF381:
 9542 141e 7573625F 		.ascii	"usb_interrupt_lo_IRQn\000"
 9542      696E7465 
 9542      72727570 
 9542      745F6C6F 
 9542      5F495251 
 9543              	.LASF735:
 9544 1434 61647649 		.ascii	"advIntvMin\000"
 9544      6E74764D 
 9544      696E00
 9545              	.LASF810:
 9546 143f 61747448 		.ascii	"attHandle\000"
 9546      616E646C 
 9546      6500
 9547              	.LASF479:
 9548 1449 43595F42 		.ascii	"CY_BLE_EVT_GATTC_FIND_INFO_RSP\000"
 9548      4C455F45 
 9548      56545F47 
 9548      41545443 
 9548      5F46494E 
 9549              	.LASF576:
 9550 1468 63795F73 		.ascii	"cy_stc_ble_tx_pwr_lvl_info_t\000"
 9550      74635F62 
 9550      6C655F74 
 9550      785F7077 
 9550      725F6C76 
 9551              	.LASF447:
 9552 1485 43595F42 		.ascii	"CY_BLE_EVT_GAP_PASSKEY_ENTRY_REQUEST\000"
 9552      4C455F45 
 9552      56545F47 
 9552      41505F50 
 9552      4153534B 
 9553              	.LASF124:
 9554 14aa 52544F43 		.ascii	"RTOC2_OBJECT_SIZE\000"
 9554      325F4F42 
 9554      4A454354 
 9554      5F53495A 
 9554      4500
 9555              	.LASF902:
 9556 14bc 63795F62 		.ascii	"cy_ble_devConnRole\000"
 9556      6C655F64 
 9556      6576436F 
 9556      6E6E526F 
 9556      6C6500
 9557              	.LASF689:
 9558 14cf 43595F42 		.ascii	"CY_BLE_GAP_AUTH_ERROR_INVALID_PARAMETERS\000"
ARM GAS  C:\Users\hkmnt\AppData\Local\Temp\ccBdSSuH.s 			page 217


 9558      4C455F47 
 9558      41505F41 
 9558      5554485F 
 9558      4552524F 
 9559              	.LASF106:
 9560 14f8 52544F43 		.ascii	"RTOC1_SYSCALL_TABLE_ADDR_UNUSED\000"
 9560      315F5359 
 9560      5343414C 
 9560      4C5F5441 
 9560      424C455F 
 9561              	.LASF538:
 9562 1518 43595F42 		.ascii	"CY_BLE_ERROR_INVALID_STATE\000"
 9562      4C455F45 
 9562      52524F52 
 9562      5F494E56 
 9562      414C4944 
 9563              	.LASF214:
 9564 1533 63707573 		.ascii	"cpussTrimRamCtlOffset\000"
 9564      73547269 
 9564      6D52616D 
 9564      43746C4F 
 9564      66667365 
 9565              	.LASF900:
 9566 1549 63795F62 		.ascii	"cy_ble_connHandle\000"
 9566      6C655F63 
 9566      6F6E6E48 
 9566      616E646C 
 9566      6500
 9567              	.LASF383:
 9568 155b 756E636F 		.ascii	"unconnected_IRQn\000"
 9568      6E6E6563 
 9568      7465645F 
 9568      4952516E 
 9568      00
 9569              	.LASF490:
 9570 156c 43595F42 		.ascii	"CY_BLE_EVT_GATTC_HANDLE_VALUE_NTF\000"
 9570      4C455F45 
 9570      56545F47 
 9570      41545443 
 9570      5F48414E 
 9571              	.LASF614:
 9572 158e 43595F42 		.ascii	"CY_BLE_GATT_UNKNOWN_PDU_IND\000"
 9572      4C455F47 
 9572      4154545F 
 9572      554E4B4E 
 9572      4F574E5F 
 9573              	.LASF832:
 9574 15aa 73696C69 		.ascii	"siliconDeviceAddressEnabled\000"
 9574      636F6E44 
 9574      65766963 
 9574      65416464 
 9574      72657373 
 9575              	.LASF822:
 9576 15c6 5F426F6F 		.ascii	"_Bool\000"
 9576      6C00
 9577              	.LASF146:
 9578 15cc 70617373 		.ascii	"passBase\000"
ARM GAS  C:\Users\hkmnt\AppData\Local\Temp\ccBdSSuH.s 			page 218


 9578      42617365 
 9578      00
 9579              	.LASF578:
 9580 15d5 636F6E66 		.ascii	"configMemory\000"
 9580      69674D65 
 9580      6D6F7279 
 9580      00
 9581              	.LASF215:
 9582 15e2 63707573 		.ascii	"cpussTrimRomCtlOffset\000"
 9582      73547269 
 9582      6D526F6D 
 9582      43746C4F 
 9582      66667365 
 9583              	.LASF300:
 9584 15f8 63707573 		.ascii	"cpuss_interrupts_dw0_14_IRQn\000"
 9584      735F696E 
 9584      74657272 
 9584      75707473 
 9584      5F647730 
 9585              	.LASF612:
 9586 1615 43595F42 		.ascii	"CY_BLE_GATT_HANDLE_VALUE_CNF\000"
 9586      4C455F47 
 9586      4154545F 
 9586      48414E44 
 9586      4C455F56 
 9587              	.LASF547:
 9588 1632 63616C56 		.ascii	"calValLimit\000"
 9588      616C4C69 
 9588      6D697400 
 9589              	.LASF806:
 9590 163e 63795F73 		.ascii	"cy_stc_ble_gatts_att_pack_val_len_t\000"
 9590      74635F62 
 9590      6C655F67 
 9590      61747473 
 9590      5F617474 
 9591              	.LASF903:
 9592 1662 63795F62 		.ascii	"cy_ble_pairStatus\000"
 9592      6C655F70 
 9592      61697253 
 9592      74617475 
 9592      7300
 9593              	.LASF96:
 9594 1674 544F4331 		.ascii	"TOC1_SYSCALL_TABLE_ADDR_UNUSED\000"
 9594      5F535953 
 9594      43414C4C 
 9594      5F544142 
 9594      4C455F41 
 9595              	.LASF87:
 9596 1693 5055424C 		.ascii	"PUBLIC_KEY\000"
 9596      49435F4B 
 9596      455900
 9597              	.LASF16:
 9598 169e 63686172 		.ascii	"char\000"
 9598      00
 9599              	.LASF494:
 9600 16a3 43595F42 		.ascii	"CY_BLE_EVT_GATTC_STOP_CMD_COMPLETE\000"
 9600      4C455F45 
ARM GAS  C:\Users\hkmnt\AppData\Local\Temp\ccBdSSuH.s 			page 219


 9600      56545F47 
 9600      41545443 
 9600      5F53544F 
 9601              	.LASF133:
 9602 16c6 52544F43 		.ascii	"RTOC2_SIGNATURE_VERIF_KEY\000"
 9602      325F5349 
 9602      474E4154 
 9602      5552455F 
 9602      56455249 
 9603              	.LASF504:
 9604 16e0 43595F42 		.ascii	"CY_BLE_EVT_L2CAP_CBFC_DATA_READ\000"
 9604      4C455F45 
 9604      56545F4C 
 9604      32434150 
 9604      5F434246 
 9605              	.LASF162:
 9606 1700 63707573 		.ascii	"cpussIpc0Irq\000"
 9606      73497063 
 9606      30497271 
 9606      00
 9607              	.LASF604:
 9608 170d 43595F42 		.ascii	"CY_BLE_GATT_WRITE_RSP\000"
 9608      4C455F47 
 9608      4154545F 
 9608      57524954 
 9608      455F5253 
 9609              	.LASF650:
 9610 1723 43595F42 		.ascii	"CY_BLE_GATT_ERR_ANCS_ACTION_FAILED\000"
 9610      4C455F47 
 9610      4154545F 
 9610      4552525F 
 9610      414E4353 
 9611              	.LASF540:
 9612 1746 63795F65 		.ascii	"cy_en_ble_api_result_t\000"
 9612      6E5F626C 
 9612      655F6170 
 9612      695F7265 
 9612      73756C74 
 9613              	.LASF293:
 9614 175d 63707573 		.ascii	"cpuss_interrupts_dw0_7_IRQn\000"
 9614      735F696E 
 9614      74657272 
 9614      75707473 
 9614      5F647730 
 9615              	.LASF418:
 9616 1779 43595F42 		.ascii	"CY_BLE_EVT_GET_PHY_COMPLETE\000"
 9616      4C455F45 
 9616      56545F47 
 9616      45545F50 
 9616      48595F43 
 9617              	.LASF915:
 9618 1795 43795F53 		.ascii	"Cy_SysLib_AssertFailed\000"
 9618      79734C69 
 9618      625F4173 
 9618      73657274 
 9618      4661696C 
 9619              	.LASF435:
ARM GAS  C:\Users\hkmnt\AppData\Local\Temp\ccBdSSuH.s 			page 220


 9620 17ac 43595F42 		.ascii	"CY_BLE_EVT_AES_CCM_DECRYPT_COMPLETE\000"
 9620      4C455F45 
 9620      56545F41 
 9620      45535F43 
 9620      434D5F44 
 9621              	.LASF336:
 9622 17d0 74637077 		.ascii	"tcpwm_1_interrupts_2_IRQn\000"
 9622      6D5F315F 
 9622      696E7465 
 9622      72727570 
 9622      74735F32 
 9623              	.LASF633:
 9624 17ea 43595F42 		.ascii	"CY_BLE_GATT_ERR_INSUFFICIENT_RESOURCE\000"
 9624      4C455F47 
 9624      4154545F 
 9624      4552525F 
 9624      494E5355 
 9625              	.LASF529:
 9626 1810 43595F42 		.ascii	"CY_BLE_ERROR_FLASH_WRITE_NOT_PERMITED\000"
 9626      4C455F45 
 9626      52524F52 
 9626      5F464C41 
 9626      53485F57 
 9627              	.LASF733:
 9628 1836 43595F42 		.ascii	"CY_BLE_GAPP_CONNECTABLE_LOW_DC_DIRECTED_ADV\000"
 9628      4C455F47 
 9628      4150505F 
 9628      434F4E4E 
 9628      45435441 
 9629              	.LASF8:
 9630 1862 5F5F7569 		.ascii	"__uint16_t\000"
 9630      6E743136 
 9630      5F7400
 9631              	.LASF693:
 9632 186d 43595F42 		.ascii	"CY_BLE_GAP_AUTH_ERROR_CROSS_TRANSPORT_KEY_GEN_DER_N"
 9632      4C455F47 
 9632      41505F41 
 9632      5554485F 
 9632      4552524F 
 9633 18a0 4F545F41 		.ascii	"OT_ALLOWED\000"
 9633      4C4C4F57 
 9633      454400
 9634              	.LASF731:
 9635 18ab 43595F42 		.ascii	"CY_BLE_GAPP_SCANNABLE_UNDIRECTED_ADV\000"
 9635      4C455F47 
 9635      4150505F 
 9635      5343414E 
 9635      4E41424C 
 9636              	.LASF74:
 9637 18d0 43505553 		.ascii	"CPUSS_TRIM_ROM_CTL_HALF_ULP\000"
 9637      535F5452 
 9637      494D5F52 
 9637      4F4D5F43 
 9637      544C5F48 
 9638              	.LASF445:
 9639 18ec 43595F42 		.ascii	"CY_BLE_EVT_GAPC_SCAN_PROGRESS_RESULT\000"
 9639      4C455F45 
ARM GAS  C:\Users\hkmnt\AppData\Local\Temp\ccBdSSuH.s 			page 221


 9639      56545F47 
 9639      4150435F 
 9639      5343414E 
 9640              	.LASF27:
 9641 1911 52455345 		.ascii	"RESERVED2\000"
 9641      52564544 
 9641      3200
 9642              	.LASF308:
 9643 191b 63707573 		.ascii	"cpuss_interrupts_dw1_6_IRQn\000"
 9643      735F696E 
 9643      74657272 
 9643      75707473 
 9643      5F647731 
 9644              	.LASF461:
 9645 1937 43595F42 		.ascii	"CY_BLE_EVT_GAP_ENHANCE_CONN_COMPLETE\000"
 9645      4C455F45 
 9645      56545F47 
 9645      41505F45 
 9645      4E48414E 
 9646              	.LASF277:
 9647 195c 7363625F 		.ascii	"scb_0_interrupt_IRQn\000"
 9647      305F696E 
 9647      74657272 
 9647      7570745F 
 9647      4952516E 
 9648              	.LASF497:
 9649 1971 43595F42 		.ascii	"CY_BLE_EVT_L2CAP_CONN_PARAM_UPDATE_REQ\000"
 9649      4C455F45 
 9649      56545F4C 
 9649      32434150 
 9649      5F434F4E 
 9650              	.LASF651:
 9651 1998 43595F42 		.ascii	"CY_BLE_GATT_ERR_CCCD_IMPROPERLY_CONFIGURED\000"
 9651      4C455F47 
 9651      4154545F 
 9651      4552525F 
 9651      43434344 
 9652              	.LASF615:
 9653 19c3 63795F65 		.ascii	"cy_en_ble_gatt_pdu_t\000"
 9653      6E5F626C 
 9653      655F6761 
 9653      74745F70 
 9653      64755F74 
 9654              	.LASF136:
 9655 19d8 52544F43 		.ascii	"RTOC2_FLAGS\000"
 9655      325F464C 
 9655      41475300 
 9656              	.LASF344:
 9657 19e4 74637077 		.ascii	"tcpwm_1_interrupts_10_IRQn\000"
 9657      6D5F315F 
 9657      696E7465 
 9657      72727570 
 9657      74735F31 
 9658              	.LASF193:
 9659 19ff 70657269 		.ascii	"periTrCmdGrSelMsk\000"
 9659      5472436D 
 9659      64477253 
ARM GAS  C:\Users\hkmnt\AppData\Local\Temp\ccBdSSuH.s 			page 222


 9659      656C4D73 
 9659      6B00
 9660              	.LASF750:
 9661 1a11 61647650 		.ascii	"advParam\000"
 9661      6172616D 
 9661      00
 9662              	.LASF702:
 9663 1a1a 63795F73 		.ascii	"cy_stc_ble_gap_bd_addr_t\000"
 9663      74635F62 
 9663      6C655F67 
 9663      61705F62 
 9663      645F6164 
 9664              	.LASF313:
 9665 1a33 63707573 		.ascii	"cpuss_interrupts_dw1_11_IRQn\000"
 9665      735F696E 
 9665      74657272 
 9665      75707473 
 9665      5F647731 
 9666              	.LASF751:
 9667 1a50 61647654 		.ascii	"advTo\000"
 9667      6F00
 9668              	.LASF928:
 9669 1a56 43795F42 		.ascii	"Cy_BLE_GetAdvertisementState\000"
 9669      4C455F47 
 9669      65744164 
 9669      76657274 
 9669      6973656D 
 9670              	.LASF265:
 9671 1a73 63707573 		.ascii	"cpuss_interrupts_ipc_4_IRQn\000"
 9671      735F696E 
 9671      74657272 
 9671      75707473 
 9671      5F697063 
 9672              	.LASF142:
 9673 1a8f 75646242 		.ascii	"udbBase\000"
 9673      61736500 
 9674              	.LASF286:
 9675 1a97 63707573 		.ascii	"cpuss_interrupts_dw0_0_IRQn\000"
 9675      735F696E 
 9675      74657272 
 9675      75707473 
 9675      5F647730 
 9676              	.LASF788:
 9677 1ab3 66617374 		.ascii	"fastScanTimeOut\000"
 9677      5363616E 
 9677      54696D65 
 9677      4F757400 
 9678              	.LASF586:
 9679 1ac3 43595F42 		.ascii	"CY_BLE_GATT_ERROR_RSP\000"
 9679      4C455F47 
 9679      4154545F 
 9679      4552524F 
 9679      525F5253 
 9680              	.LASF554:
 9681 1ad9 43595F42 		.ascii	"CY_BLE_LL_PWR_LVL_0_DBM\000"
 9681      4C455F4C 
 9681      4C5F5057 
ARM GAS  C:\Users\hkmnt\AppData\Local\Temp\ccBdSSuH.s 			page 223


 9681      525F4C56 
 9681      4C5F305F 
 9682              	.LASF485:
 9683 1af1 43595F42 		.ascii	"CY_BLE_EVT_GATTC_WRITE_RSP\000"
 9683      4C455F45 
 9683      56545F47 
 9683      41545443 
 9683      5F575249 
 9684              	.LASF236:
 9685 1b0c 696F7373 		.ascii	"ioss_interrupts_gpio_0_IRQn\000"
 9685      5F696E74 
 9685      65727275 
 9685      7074735F 
 9685      6770696F 
 9686              	.LASF349:
 9687 1b28 74637077 		.ascii	"tcpwm_1_interrupts_15_IRQn\000"
 9687      6D5F315F 
 9687      696E7465 
 9687      72727570 
 9687      74735F31 
 9688              	.LASF350:
 9689 1b43 74637077 		.ascii	"tcpwm_1_interrupts_16_IRQn\000"
 9689      6D5F315F 
 9689      696E7465 
 9689      72727570 
 9689      74735F31 
 9690              	.LASF652:
 9691 1b5e 43595F42 		.ascii	"CY_BLE_GATT_ERR_PROCEDURE_ALREADY_IN_PROGRESS\000"
 9691      4C455F47 
 9691      4154545F 
 9691      4552525F 
 9691      50524F43 
 9692              	.LASF209:
 9693 1b8c 63707573 		.ascii	"cpussCm0ClockCtlOffset\000"
 9693      73436D30 
 9693      436C6F63 
 9693      6B43746C 
 9693      4F666673 
 9694              	.LASF48:
 9695 1ba3 424C455F 		.ascii	"BLE_DEVICE_ADDRESS\000"
 9695      44455649 
 9695      43455F41 
 9695      44445245 
 9695      535300
 9696              	.LASF818:
 9697 1bb6 63795F73 		.ascii	"cy_stc_ble_gatts_t\000"
 9697      74635F62 
 9697      6C655F67 
 9697      61747473 
 9697      5F7400
 9698              	.LASF194:
 9699 1bc9 70657269 		.ascii	"periTrGrOffset\000"
 9699      54724772 
 9699      4F666673 
 9699      657400
 9700              	.LASF259:
 9701 1bd8 70617373 		.ascii	"pass_interrupt_ctbs_IRQn\000"
ARM GAS  C:\Users\hkmnt\AppData\Local\Temp\ccBdSSuH.s 			page 224


 9701      5F696E74 
 9701      65727275 
 9701      70745F63 
 9701      7462735F 
 9702              	.LASF917:
 9703 1bf1 43795F42 		.ascii	"Cy_BLE_GATTS_WriteEventHandler\000"
 9703      4C455F47 
 9703      41545453 
 9703      5F577269 
 9703      74654576 
 9704              	.LASF706:
 9705 1c10 61757468 		.ascii	"authErr\000"
 9705      45727200 
 9706              	.LASF819:
 9707 1c18 666C6F77 		.ascii	"flowState\000"
 9707      53746174 
 9707      6500
 9708              	.LASF594:
 9709 1c22 43595F42 		.ascii	"CY_BLE_GATT_READ_BY_TYPE_RSP\000"
 9709      4C455F47 
 9709      4154545F 
 9709      52454144 
 9709      5F42595F 
 9710              	.LASF826:
 9711 1c3f 626F756E 		.ascii	"boundedDevCount\000"
 9711      64656444 
 9711      6576436F 
 9711      756E7400 
 9712              	.LASF224:
 9713 1c4f 6970634C 		.ascii	"ipcLockStatusOffset\000"
 9713      6F636B53 
 9713      74617475 
 9713      734F6666 
 9713      73657400 
 9714              	.LASF54:
 9715 1c63 4D415354 		.ascii	"MASTER_KEY\000"
 9715      45525F4B 
 9715      455900
 9716              	.LASF276:
 9717 1c6e 63707573 		.ascii	"cpuss_interrupts_ipc_15_IRQn\000"
 9717      735F696E 
 9717      74657272 
 9717      75707473 
 9717      5F697063 
 9718              	.LASF522:
 9719 1c8b 43595F42 		.ascii	"CY_BLE_ERROR_SEC_FAILED\000"
 9719      4C455F45 
 9719      52524F52 
 9719      5F534543 
 9719      5F464149 
 9720              	.LASF460:
 9721 1ca3 43595F42 		.ascii	"CY_BLE_EVT_GAP_OOB_GENERATED_NOTIFICATION\000"
 9721      4C455F45 
 9721      56545F47 
 9721      41505F4F 
 9721      4F425F47 
 9722              	.LASF41:
ARM GAS  C:\Users\hkmnt\AppData\Local\Temp\ccBdSSuH.s 			page 225


 9723 1ccd 5341525F 		.ascii	"SAR_TEMP_OFFSET\000"
 9723      54454D50 
 9723      5F4F4646 
 9723      53455400 
 9724              	.LASF673:
 9725 1cdd 43595F42 		.ascii	"CY_BLE_GAP_IOCAP_DISPLAY_ONLY\000"
 9725      4C455F47 
 9725      41505F49 
 9725      4F434150 
 9725      5F444953 
 9726              	.LASF443:
 9727 1cfb 43595F42 		.ascii	"CY_BLE_EVT_SET_CONN_PRIORITY_COMPLETE\000"
 9727      4C455F45 
 9727      56545F53 
 9727      45545F43 
 9727      4F4E4E5F 
 9728              	.LASF367:
 9729 1d21 7564625F 		.ascii	"udb_interrupts_9_IRQn\000"
 9729      696E7465 
 9729      72727570 
 9729      74735F39 
 9729      5F495251 
 9730              	.LASF532:
 9731 1d37 43595F42 		.ascii	"CY_BLE_ERROR_HARDWARE_FAILURE\000"
 9731      4C455F45 
 9731      52524F52 
 9731      5F484152 
 9731      44574152 
 9732              	.LASF137:
 9733 1d55 52544F43 		.ascii	"RTOC2_CRC_ADDR\000"
 9733      325F4352 
 9733      435F4144 
 9733      445200
 9734              	.LASF671:
 9735 1d64 70726570 		.ascii	"prepareWriteQueueSize\000"
 9735      61726557 
 9735      72697465 
 9735      51756575 
 9735      6553697A 
 9736              	.LASF275:
 9737 1d7a 63707573 		.ascii	"cpuss_interrupts_ipc_14_IRQn\000"
 9737      735F696E 
 9737      74657272 
 9737      75707473 
 9737      5F697063 
 9738              	.LASF419:
 9739 1d97 43595F42 		.ascii	"CY_BLE_EVT_SET_DEFAULT_PHY_COMPLETE\000"
 9739      4C455F45 
 9739      56545F53 
 9739      45545F44 
 9739      45464155 
 9740              	.LASF391:
 9741 1dbb 63795F73 		.ascii	"cy_stc_sysint_t\000"
 9741      74635F73 
 9741      7973696E 
 9741      745F7400 
 9742              	.LASF12:
ARM GAS  C:\Users\hkmnt\AppData\Local\Temp\ccBdSSuH.s 			page 226


 9743 1dcb 5F5F7569 		.ascii	"__uint32_t\000"
 9743      6E743332 
 9743      5F7400
 9744              	.LASF701:
 9745 1dd6 63795F65 		.ascii	"cy_en_ble_gap_adv_addr_type_t\000"
 9745      6E5F626C 
 9745      655F6761 
 9745      705F6164 
 9745      765F6164 
 9746              	.LASF210:
 9747 1df4 63707573 		.ascii	"cpussCm4ClockCtlOffset\000"
 9747      73436D34 
 9747      436C6F63 
 9747      6B43746C 
 9747      4F666673 
 9748              	.LASF355:
 9749 1e0b 74637077 		.ascii	"tcpwm_1_interrupts_21_IRQn\000"
 9749      6D5F315F 
 9749      696E7465 
 9749      72727570 
 9749      74735F32 
 9750              	.LASF88:
 9751 1e26 424F4F54 		.ascii	"BOOT_PROT_SETTINGS\000"
 9751      5F50524F 
 9751      545F5345 
 9751      5454494E 
 9751      475300
 9752              	.LASF824:
 9753 1e39 61747456 		.ascii	"attValuesCCCDFlashMemory\000"
 9753      616C7565 
 9753      73434343 
 9753      44466C61 
 9753      73684D65 
 9754              	.LASF354:
 9755 1e52 74637077 		.ascii	"tcpwm_1_interrupts_20_IRQn\000"
 9755      6D5F315F 
 9755      696E7465 
 9755      72727570 
 9755      74735F32 
 9756              	.LASF382:
 9757 1e6d 70617373 		.ascii	"pass_interrupt_dacs_IRQn\000"
 9757      5F696E74 
 9757      65727275 
 9757      70745F64 
 9757      6163735F 
 9758              	.LASF22:
 9759 1e86 52455345 		.ascii	"RESERVED\000"
 9759      52564544 
 9759      00
 9760              	.LASF307:
 9761 1e8f 63707573 		.ascii	"cpuss_interrupts_dw1_5_IRQn\000"
 9761      735F696E 
 9761      74657272 
 9761      75707473 
 9761      5F647731 
 9762              	.LASF107:
 9763 1eab 52544F43 		.ascii	"RTOC1_OBJECT_ADDR_UNUSED\000"
ARM GAS  C:\Users\hkmnt\AppData\Local\Temp\ccBdSSuH.s 			page 227


 9763      315F4F42 
 9763      4A454354 
 9763      5F414444 
 9763      525F554E 
 9764              	.LASF319:
 9765 1ec4 63707573 		.ascii	"cpuss_interrupts_fault_1_IRQn\000"
 9765      735F696E 
 9765      74657272 
 9765      75707473 
 9765      5F666175 
 9766              	.LASF38:
 9767 1ee2 4449455F 		.ascii	"DIE_YEAR\000"
 9767      59454152 
 9767      00
 9768              	.LASF697:
 9769 1eeb 43595F42 		.ascii	"CY_BLE_GAP_PUBLIC_ADDR_TYPE\000"
 9769      4C455F47 
 9769      41505F50 
 9769      55424C49 
 9769      435F4144 
 9770              	.LASF667:
 9771 1f07 65727249 		.ascii	"errInfo\000"
 9771      6E666F00 
 9772              	.LASF531:
 9773 1f0f 43595F42 		.ascii	"CY_BLE_ERROR_MIC_AUTH_FAILED\000"
 9773      4C455F45 
 9773      52524F52 
 9773      5F4D4943 
 9773      5F415554 
 9774              	.LASF841:
 9775 1f2c 67617073 		.ascii	"gaps\000"
 9775      00
 9776              	.LASF185:
 9777 1f31 666C6173 		.ascii	"flashCtlMainWs4Freq\000"
 9777      6843746C 
 9777      4D61696E 
 9777      57733446 
 9777      72657100 
 9778              	.LASF26:
 9779 1f45 46414D49 		.ascii	"FAMILY_ID\000"
 9779      4C595F49 
 9779      4400
 9780              	.LASF421:
 9781 1f4f 43595F42 		.ascii	"CY_BLE_EVT_PHY_UPDATE_COMPLETE\000"
 9781      4C455F45 
 9781      56545F50 
 9781      48595F55 
 9781      50444154 
 9782              	.LASF558:
 9783 1f6e 43595F42 		.ascii	"CY_BLE_LL_CONN_CH_TYPE\000"
 9783      4C455F4C 
 9783      4C5F434F 
 9783      4E4E5F43 
 9783      485F5459 
 9784              	.LASF371:
 9785 1f85 7564625F 		.ascii	"udb_interrupts_13_IRQn\000"
 9785      696E7465 
ARM GAS  C:\Users\hkmnt\AppData\Local\Temp\ccBdSSuH.s 			page 228


 9785      72727570 
 9785      74735F31 
 9785      335F4952 
 9786              	.LASF717:
 9787 1f9c 6D617374 		.ascii	"masterClockAccuracy\000"
 9787      6572436C 
 9787      6F636B41 
 9787      63637572 
 9787      61637900 
 9788              	.LASF164:
 9789 1fb0 63707573 		.ascii	"cpussNotConnectedIrq\000"
 9789      734E6F74 
 9789      436F6E6E 
 9789      65637465 
 9789      64497271 
 9790              	.LASF823:
 9791 1fc5 73746163 		.ascii	"stackFlashptr\000"
 9791      6B466C61 
 9791      73687074 
 9791      7200
 9792              	.LASF660:
 9793 1fd3 63795F73 		.ascii	"cy_stc_ble_gatt_handle_value_pair_t\000"
 9793      74635F62 
 9793      6C655F67 
 9793      6174745F 
 9793      68616E64 
 9794              	.LASF692:
 9795 1ff7 43595F42 		.ascii	"CY_BLE_GAP_AUTH_ERROR_BR_EDR_PAIRING_IN_PROGRESS\000"
 9795      4C455F47 
 9795      41505F41 
 9795      5554485F 
 9795      4552524F 
 9796              	.LASF708:
 9797 2028 63795F73 		.ascii	"cy_stc_ble_gap_auth_info_t\000"
 9797      74635F62 
 9797      6C655F67 
 9797      61705F61 
 9797      7574685F 
 9798              	.LASF858:
 9799 2043 43595F42 		.ascii	"CY_BLE_DIS_REG_CERT_DATA\000"
 9799      4C455F44 
 9799      49535F52 
 9799      45475F43 
 9799      4552545F 
 9800              	.LASF674:
 9801 205c 43595F42 		.ascii	"CY_BLE_GAP_IOCAP_DISPLAY_YESNO\000"
 9801      4C455F47 
 9801      41505F49 
 9801      4F434150 
 9801      5F444953 
 9802              	.LASF24:
 9803 207b 53494C49 		.ascii	"SILICON_ID\000"
 9803      434F4E5F 
 9803      494400
 9804              	.LASF206:
 9805 2086 6770696F 		.ascii	"gpioPrtCfgInOffset\000"
 9805      50727443 
ARM GAS  C:\Users\hkmnt\AppData\Local\Temp\ccBdSSuH.s 			page 229


 9805      6667496E 
 9805      4F666673 
 9805      657400
 9806              	.LASF141:
 9807 2099 70657269 		.ascii	"periBase\000"
 9807      42617365 
 9807      00
 9808              	.LASF500:
 9809 20a2 43595F42 		.ascii	"CY_BLE_EVT_L2CAP_CBFC_CONN_IND\000"
 9809      4C455F45 
 9809      56545F4C 
 9809      32434150 
 9809      5F434246 
 9810              	.LASF877:
 9811 20c1 43795F42 		.ascii	"Cy_BLE_IsDeviceAddressValid\000"
 9811      4C455F49 
 9811      73446576 
 9811      69636541 
 9811      64647265 
 9812              	.LASF720:
 9813 20dd 64697363 		.ascii	"discProcedure\000"
 9813      50726F63 
 9813      65647572 
 9813      6500
 9814              	.LASF105:
 9815 20eb 52544F43 		.ascii	"RTOC1_FB_OBJECT_ADDR\000"
 9815      315F4642 
 9815      5F4F424A 
 9815      4543545F 
 9815      41444452 
 9816              	.LASF328:
 9817 2100 74637077 		.ascii	"tcpwm_0_interrupts_2_IRQn\000"
 9817      6D5F305F 
 9817      696E7465 
 9817      72727570 
 9817      74735F32 
 9818              	.LASF844:
 9819 211a 61757468 		.ascii	"authInfo\000"
 9819      496E666F 
 9819      00
 9820              	.LASF427:
 9821 2123 43595F42 		.ascii	"CY_BLE_EVT_GET_RSSI_COMPLETE\000"
 9821      4C455F45 
 9821      56545F47 
 9821      45545F52 
 9821      5353495F 
 9822              	.LASF919:
 9823 2140 43795F42 		.ascii	"Cy_BLE_ChangeAdDeviceAddress\000"
 9823      4C455F43 
 9823      68616E67 
 9823      65416444 
 9823      65766963 
 9824              	.LASF420:
 9825 215d 43595F42 		.ascii	"CY_BLE_EVT_SET_PHY_COMPLETE\000"
 9825      4C455F45 
 9825      56545F53 
 9825      45545F50 
ARM GAS  C:\Users\hkmnt\AppData\Local\Temp\ccBdSSuH.s 			page 230


 9825      48595F43 
 9826              	.LASF672:
 9827 2179 63795F73 		.ascii	"cy_stc_ble_prepare_write_request_memory_t\000"
 9827      74635F62 
 9827      6C655F70 
 9827      72657061 
 9827      72655F77 
 9828              	.LASF579:
 9829 21a3 616C6C6F 		.ascii	"allocFree\000"
 9829      63467265 
 9829      6500
 9830              	.LASF227:
 9831 21ad 4E6F6E4D 		.ascii	"NonMaskableInt_IRQn\000"
 9831      61736B61 
 9831      626C6549 
 9831      6E745F49 
 9831      52516E00 
 9832              	.LASF737:
 9833 21c1 61647654 		.ascii	"advType\000"
 9833      79706500 
 9834              	.LASF203:
 9835 21c9 70657269 		.ascii	"periDiv24_5CtlOffset\000"
 9835      44697632 
 9835      345F3543 
 9835      746C4F66 
 9835      66736574 
 9836              	.LASF138:
 9837 21de 53464C41 		.ascii	"SFLASH_V1_Type\000"
 9837      53485F56 
 9837      315F5479 
 9837      706500
 9838              	.LASF394:
 9839 21ed 43595F42 		.ascii	"CY_BLE_EVT_TIMEOUT\000"
 9839      4C455F45 
 9839      56545F54 
 9839      494D454F 
 9839      555400
 9840              	.LASF45:
 9841 2200 4C444F5F 		.ascii	"LDO_0P9V_TRIM\000"
 9841      30503956 
 9841      5F545249 
 9841      4D00
 9842              	.LASF782:
 9843 220e 736C6F77 		.ascii	"slowAdvIntervalMin\000"
 9843      41647649 
 9843      6E746572 
 9843      76616C4D 
 9843      696E00
 9844              	.LASF910:
 9845 2221 63795F62 		.ascii	"cy_ble_advertisingIntervalType\000"
 9845      6C655F61 
 9845      64766572 
 9845      74697369 
 9845      6E67496E 
 9846              	.LASF477:
 9847 2240 43595F42 		.ascii	"CY_BLE_EVT_GATTC_READ_BY_GROUP_TYPE_RSP\000"
 9847      4C455F45 
ARM GAS  C:\Users\hkmnt\AppData\Local\Temp\ccBdSSuH.s 			page 231


 9847      56545F47 
 9847      41545443 
 9847      5F524541 
 9848              	.LASF13:
 9849 2268 6C6F6E67 		.ascii	"long unsigned int\000"
 9849      20756E73 
 9849      69676E65 
 9849      6420696E 
 9849      7400
 9850              	.LASF478:
 9851 227a 43595F42 		.ascii	"CY_BLE_EVT_GATTC_READ_BY_TYPE_RSP\000"
 9851      4C455F45 
 9851      56545F47 
 9851      41545443 
 9851      5F524541 
 9852              	.LASF629:
 9853 229c 43595F42 		.ascii	"CY_BLE_GATT_ERR_INVALID_ATTRIBUTE_LEN\000"
 9853      4C455F47 
 9853      4154545F 
 9853      4552525F 
 9853      494E5641 
 9854              	.LASF745:
 9855 22c2 63795F73 		.ascii	"cy_stc_ble_gapp_disc_data_t\000"
 9855      74635F62 
 9855      6C655F67 
 9855      6170705F 
 9855      64697363 
 9856              	.LASF456:
 9857 22de 43595F42 		.ascii	"CY_BLE_EVT_GAPC_SCAN_START_STOP\000"
 9857      4C455F45 
 9857      56545F47 
 9857      4150435F 
 9857      5343414E 
 9858              	.LASF229:
 9859 22fe 4D656D6F 		.ascii	"MemoryManagement_IRQn\000"
 9859      72794D61 
 9859      6E616765 
 9859      6D656E74 
 9859      5F495251 
 9860              	.LASF647:
 9861 2314 43595F42 		.ascii	"CY_BLE_GATT_ERR_ANCS_UNKNOWN_COMMAND\000"
 9861      4C455F47 
 9861      4154545F 
 9861      4552525F 
 9861      414E4353 
 9862              	.LASF718:
 9863 2339 73746174 		.ascii	"status\000"
 9863      757300
 9864              	.LASF257:
 9865 2340 73727373 		.ascii	"srss_interrupt_backup_IRQn\000"
 9865      5F696E74 
 9865      65727275 
 9865      70745F62 
 9865      61636B75 
 9866              	.LASF796:
 9867 235b 67617063 		.ascii	"gapcConnectionTimeOut\000"
 9867      436F6E6E 
ARM GAS  C:\Users\hkmnt\AppData\Local\Temp\ccBdSSuH.s 			page 232


 9867      65637469 
 9867      6F6E5469 
 9867      6D654F75 
 9868              	.LASF171:
 9869 2371 65704D6F 		.ascii	"epMonitorNr\000"
 9869      6E69746F 
 9869      724E7200 
 9870              	.LASF513:
 9871 237d 43595F42 		.ascii	"CY_BLE_ERROR_INVALID_OPERATION\000"
 9871      4C455F45 
 9871      52524F52 
 9871      5F494E56 
 9871      414C4944 
 9872              	.LASF411:
 9873 239c 43595F42 		.ascii	"CY_BLE_EVT_SET_RPA_TO_COMPLETE\000"
 9873      4C455F45 
 9873      56545F53 
 9873      45545F52 
 9873      50415F54 
 9874              	.LASF222:
 9875 23bb 63707573 		.ascii	"cpussRam2Ctl0\000"
 9875      7352616D 
 9875      3243746C 
 9875      3000
 9876              	.LASF573:
 9877 23c9 63795F73 		.ascii	"cy_stc_ble_tx_pwr_config_param_t\000"
 9877      74635F62 
 9877      6C655F74 
 9877      785F7077 
 9877      725F636F 
 9878              	.LASF528:
 9879 23ea 43595F42 		.ascii	"CY_BLE_ERROR_UNSUPPORTED_FEATURE_OR_PARAMETER_VALUE"
 9879      4C455F45 
 9879      52524F52 
 9879      5F554E53 
 9879      5550504F 
 9880 241d 00       		.ascii	"\000"
 9881              	.LASF880:
 9882 241e 43795F42 		.ascii	"Cy_BLE_GetConnHandleByBdHandle\000"
 9882      4C455F47 
 9882      6574436F 
 9882      6E6E4861 
 9882      6E646C65 
 9883              	.LASF678:
 9884 243d 63795F65 		.ascii	"cy_en_ble_gap_iocap_t\000"
 9884      6E5F626C 
 9884      655F6761 
 9884      705F696F 
 9884      6361705F 
 9885              	.LASF384:
 9886 2453 4952516E 		.ascii	"IRQn_Type\000"
 9886      5F547970 
 9886      6500
 9887              	.LASF149:
 9888 245d 63707573 		.ascii	"cpussVersion\000"
 9888      73566572 
 9888      73696F6E 
ARM GAS  C:\Users\hkmnt\AppData\Local\Temp\ccBdSSuH.s 			page 233


 9888      00
 9889              	.LASF86:
 9890 246a 464C4153 		.ascii	"FLASH_BOOT_CODE\000"
 9890      485F424F 
 9890      4F545F43 
 9890      4F444500 
 9891              	.LASF393:
 9892 247a 43595F42 		.ascii	"CY_BLE_EVT_STACK_ON\000"
 9892      4C455F45 
 9892      56545F53 
 9892      5441434B 
 9892      5F4F4E00 
 9893              	.LASF323:
 9894 248e 63707573 		.ascii	"cpuss_interrupts_cm0_cti_1_IRQn\000"
 9894      735F696E 
 9894      74657272 
 9894      75707473 
 9894      5F636D30 
 9895              	.LASF499:
 9896 24ae 43595F42 		.ascii	"CY_BLE_EVT_L2CAP_COMMAND_REJ\000"
 9896      4C455F45 
 9896      56545F4C 
 9896      32434150 
 9896      5F434F4D 
 9897              	.LASF561:
 9898 24cb 43595F42 		.ascii	"CY_BLE_GAP_ADV_TO\000"
 9898      4C455F47 
 9898      41505F41 
 9898      44565F54 
 9898      4F00
 9899              	.LASF434:
 9900 24dd 43595F42 		.ascii	"CY_BLE_EVT_AES_CCM_ENCRYPT_COMPLETE\000"
 9900      4C455F45 
 9900      56545F41 
 9900      45535F43 
 9900      434D5F45 
 9901              	.LASF776:
 9902 2501 7265736F 		.ascii	"resolvablePrivateAddressOnly\000"
 9902      6C766162 
 9902      6C655072 
 9902      69766174 
 9902      65416464 
 9903              	.LASF163:
 9904 251e 63707573 		.ascii	"cpussFmIrq\000"
 9904      73466D49 
 9904      727100
 9905              	.LASF618:
 9906 2529 43595F42 		.ascii	"CY_BLE_GATT_ERR_READ_NOT_PERMITTED\000"
 9906      4C455F47 
 9906      4154545F 
 9906      4552525F 
 9906      52454144 
 9907              	.LASF31:
 9908 254c 4449455F 		.ascii	"DIE_WAFER\000"
 9908      57414645 
 9908      5200
 9909              	.LASF474:
ARM GAS  C:\Users\hkmnt\AppData\Local\Temp\ccBdSSuH.s 			page 234


 9910 2556 43595F42 		.ascii	"CY_BLE_EVT_GATT_DISCONNECT_IND\000"
 9910      4C455F45 
 9910      56545F47 
 9910      4154545F 
 9910      44495343 
 9911              	.LASF925:
 9912 2575 474E5520 		.ascii	"GNU C11 5.4.1 20160609 (release) [ARM/embedded-5-br"
 9912      43313120 
 9912      352E342E 
 9912      31203230 
 9912      31363036 
 9913 25a8 616E6368 		.ascii	"anch revision 237715] -mcpu=cortex-m4 -mfloat-abi=s"
 9913      20726576 
 9913      6973696F 
 9913      6E203233 
 9913      37373135 
 9914 25db 6F667466 		.ascii	"oftfp -mfpu=fpv4-sp-d16 -mthumb -g -Og -ffunction-s"
 9914      70202D6D 
 9914      6670753D 
 9914      66707634 
 9914      2D73702D 
 9915 260e 65637469 		.ascii	"ections -ffat-lto-objects\000"
 9915      6F6E7320 
 9915      2D666661 
 9915      742D6C74 
 9915      6F2D6F62 
 9916              	.LASF187:
 9917 2628 64774368 		.ascii	"dwChSize\000"
 9917      53697A65 
 9917      00
 9918              	.LASF624:
 9919 2631 43595F42 		.ascii	"CY_BLE_GATT_ERR_INSUFFICIENT_AUTHORIZATION\000"
 9919      4C455F47 
 9919      4154545F 
 9919      4552525F 
 9919      494E5355 
 9920              	.LASF808:
 9921 265c 61747456 		.ascii	"attValueUuid\000"
 9921      616C7565 
 9921      55756964 
 9921      00
 9922              	.LASF560:
 9923 2669 63795F65 		.ascii	"cy_en_ble_bless_phy_ch_grp_id_t\000"
 9923      6E5F626C 
 9923      655F626C 
 9923      6573735F 
 9923      7068795F 
 9924              	.LASF370:
 9925 2689 7564625F 		.ascii	"udb_interrupts_12_IRQn\000"
 9925      696E7465 
 9925      72727570 
 9925      74735F31 
 9925      325F4952 
 9926              	.LASF480:
 9927 26a0 43595F42 		.ascii	"CY_BLE_EVT_GATTC_FIND_BY_TYPE_VALUE_RSP\000"
 9927      4C455F45 
 9927      56545F47 
ARM GAS  C:\Users\hkmnt\AppData\Local\Temp\ccBdSSuH.s 			page 235


 9927      41545443 
 9927      5F46494E 
 9928              	.LASF339:
 9929 26c8 74637077 		.ascii	"tcpwm_1_interrupts_5_IRQn\000"
 9929      6D5F315F 
 9929      696E7465 
 9929      72727570 
 9929      74735F35 
 9930              	.LASF884:
 9931 26e2 62644164 		.ascii	"bdAddrLoc\000"
 9931      64724C6F 
 9931      6300
 9932              	.LASF916:
 9933 26ec 43795F42 		.ascii	"Cy_BLE_GATTS_ExchangeMtuRsp\000"
 9933      4C455F47 
 9933      41545453 
 9933      5F457863 
 9933      68616E67 
 9934              	.LASF426:
 9935 2708 43595F42 		.ascii	"CY_BLE_EVT_GET_DEVICE_ADDR_COMPLETE\000"
 9935      4C455F45 
 9935      56545F47 
 9935      45545F44 
 9935      45564943 
 9936              	.LASF632:
 9937 272c 43595F42 		.ascii	"CY_BLE_GATT_ERR_UNSUPPORTED_GROUP_TYPE\000"
 9937      4C455F47 
 9937      4154545F 
 9937      4552525F 
 9937      554E5355 
 9938              	.LASF481:
 9939 2753 43595F42 		.ascii	"CY_BLE_EVT_GATTC_READ_RSP\000"
 9939      4C455F45 
 9939      56545F47 
 9939      41545443 
 9939      5F524541 
 9940              	.LASF861:
 9941 276d 63795F62 		.ascii	"cy_ble_event_handle_t\000"
 9941      6C655F65 
 9941      76656E74 
 9941      5F68616E 
 9941      646C655F 
 9942              	.LASF609:
 9943 2783 43595F42 		.ascii	"CY_BLE_GATT_EXECUTE_WRITE_RSP\000"
 9943      4C455F47 
 9943      4154545F 
 9943      45584543 
 9943      5554455F 
 9944              	.LASF169:
 9945 27a1 736D6966 		.ascii	"smifDeviceNr\000"
 9945      44657669 
 9945      63654E72 
 9945      00
 9946              	.LASF752:
 9947 27ae 63795F73 		.ascii	"cy_stc_ble_gapp_disc_mode_info_t\000"
 9947      74635F62 
 9947      6C655F67 
ARM GAS  C:\Users\hkmnt\AppData\Local\Temp\ccBdSSuH.s 			page 236


 9947      6170705F 
 9947      64697363 
 9948              	.LASF195:
 9949 27cf 70657269 		.ascii	"periTrGrSize\000"
 9949      54724772 
 9949      53697A65 
 9949      00
 9950              	.LASF535:
 9951 27dc 43595F42 		.ascii	"CY_BLE_ERROR_IND_DISABLED\000"
 9951      4C455F45 
 9951      52524F52 
 9951      5F494E44 
 9951      5F444953 
 9952              	.LASF534:
 9953 27f6 43595F42 		.ascii	"CY_BLE_ERROR_NTF_DISABLED\000"
 9953      4C455F45 
 9953      52524F52 
 9953      5F4E5446 
 9953      5F444953 
 9954              	.LASF682:
 9955 2810 43595F42 		.ascii	"CY_BLE_GAP_AUTH_ERROR_AUTHENTICATION_REQ_NOT_MET\000"
 9955      4C455F47 
 9955      41505F41 
 9955      5554485F 
 9955      4552524F 
 9956              	.LASF279:
 9957 2841 7363625F 		.ascii	"scb_2_interrupt_IRQn\000"
 9957      325F696E 
 9957      74657272 
 9957      7570745F 
 9957      4952516E 
 9958              	.LASF601:
 9959 2856 43595F42 		.ascii	"CY_BLE_GATT_READ_BY_GROUP_REQ\000"
 9959      4C455F47 
 9959      4154545F 
 9959      52454144 
 9959      5F42595F 
 9960              	.LASF311:
 9961 2874 63707573 		.ascii	"cpuss_interrupts_dw1_9_IRQn\000"
 9961      735F696E 
 9961      74657272 
 9961      75707473 
 9961      5F647731 
 9962              	.LASF765:
 9963 2890 43595F42 		.ascii	"CY_BLE_CONN_STATE_CLIENT_SRVC_DISCOVERING\000"
 9963      4C455F43 
 9963      4F4E4E5F 
 9963      53544154 
 9963      455F434C 
 9964              	.LASF611:
 9965 28ba 43595F42 		.ascii	"CY_BLE_GATT_HANDLE_VALUE_IND\000"
 9965      4C455F47 
 9965      4154545F 
 9965      48414E44 
 9965      4C455F56 
 9966              	.LASF432:
 9967 28d7 43595F42 		.ascii	"CY_BLE_EVT_RANDOM_NUM_GEN_COMPLETE\000"
ARM GAS  C:\Users\hkmnt\AppData\Local\Temp\ccBdSSuH.s 			page 237


 9967      4C455F45 
 9967      56545F52 
 9967      414E444F 
 9967      4D5F4E55 
 9968              	.LASF247:
 9969 28fa 696F7373 		.ascii	"ioss_interrupts_gpio_11_IRQn\000"
 9969      5F696E74 
 9969      65727275 
 9969      7074735F 
 9969      6770696F 
 9970              	.LASF201:
 9971 2917 70657269 		.ascii	"periDiv16CtlOffset\000"
 9971      44697631 
 9971      3643746C 
 9971      4F666673 
 9971      657400
 9972              	.LASF545:
 9973 292a 74617267 		.ascii	"targetTable\000"
 9973      65745461 
 9973      626C6500 
 9974              	.LASF296:
 9975 2936 63707573 		.ascii	"cpuss_interrupts_dw0_10_IRQn\000"
 9975      735F696E 
 9975      74657272 
 9975      75707473 
 9975      5F647730 
 9976              	.LASF216:
 9977 2953 63707573 		.ascii	"cpussSysTickCtlOffset\000"
 9977      73537973 
 9977      5469636B 
 9977      43746C4F 
 9977      66667365 
 9978              	.LASF230:
 9979 2969 42757346 		.ascii	"BusFault_IRQn\000"
 9979      61756C74 
 9979      5F495251 
 9979      6E00
 9980              	.LASF799:
 9981 2977 67617474 		.ascii	"gattErrorCode\000"
 9981      4572726F 
 9981      72436F64 
 9981      6500
 9982              	.LASF197:
 9983 2985 70657269 		.ascii	"periDivCmdTypeSelPos\000"
 9983      44697643 
 9983      6D645479 
 9983      70655365 
 9983      6C506F73 
 9984              	.LASF316:
 9985 299a 63707573 		.ascii	"cpuss_interrupts_dw1_14_IRQn\000"
 9985      735F696E 
 9985      74657272 
 9985      75707473 
 9985      5F647731 
 9986              	.LASF139:
 9987 29b7 63707573 		.ascii	"cpussBase\000"
 9987      73426173 
ARM GAS  C:\Users\hkmnt\AppData\Local\Temp\ccBdSSuH.s 			page 238


 9987      6500
 9988              	.LASF909:
 9989 29c1 63795F62 		.ascii	"cy_ble_cmdStatus\000"
 9989      6C655F63 
 9989      6D645374 
 9989      61747573 
 9989      00
 9990              	.LASF472:
 9991 29d2 43595F42 		.ascii	"CY_BLE_EVT_GATTC_ERROR_RSP\000"
 9991      4C455F45 
 9991      56545F47 
 9991      41545443 
 9991      5F455252 
 9992              	.LASF119:
 9993 29ed 544F4332 		.ascii	"TOC2_SIGNATURE_VERIF_KEY\000"
 9993      5F534947 
 9993      4E415455 
 9993      52455F56 
 9993      45524946 
 9994              	.LASF143:
 9995 2a06 70726F74 		.ascii	"protBase\000"
 9995      42617365 
 9995      00
 9996              	.LASF155:
 9997 2a0f 69706356 		.ascii	"ipcVersion\000"
 9997      65727369 
 9997      6F6E00
 9998              	.LASF49:
 9999 2a1a 55534552 		.ascii	"USER_FREE_ROW1\000"
 9999      5F465245 
 9999      455F524F 
 9999      573100
 10000              	.LASF50:
 10001 2a29 55534552 		.ascii	"USER_FREE_ROW2\000"
 10001      5F465245 
 10001      455F524F 
 10001      573200
 10002              	.LASF51:
 10003 2a38 55534552 		.ascii	"USER_FREE_ROW3\000"
 10003      5F465245 
 10003      455F524F 
 10003      573300
 10004              	.LASF866:
 10005 2a47 43795F42 		.ascii	"Cy_BLE_SetAdvertisementState\000"
 10005      4C455F53 
 10005      65744164 
 10005      76657274 
 10005      6973656D 
 10006              	.LASF263:
 10007 2a64 63707573 		.ascii	"cpuss_interrupts_ipc_2_IRQn\000"
 10007      735F696E 
 10007      74657272 
 10007      75707473 
 10007      5F697063 
 10008              	.LASF170:
 10009 2a80 70617373 		.ascii	"passSarChannels\000"
 10009      53617243 
ARM GAS  C:\Users\hkmnt\AppData\Local\Temp\ccBdSSuH.s 			page 239


 10009      68616E6E 
 10009      656C7300 
 10010              	.LASF1:
 10011 2a90 6C6F6E67 		.ascii	"long long int\000"
 10011      206C6F6E 
 10011      6720696E 
 10011      7400
 10012              	.LASF239:
 10013 2a9e 696F7373 		.ascii	"ioss_interrupts_gpio_3_IRQn\000"
 10013      5F696E74 
 10013      65727275 
 10013      7074735F 
 10013      6770696F 
 10014              	.LASF874:
 10015 2aba 43795F42 		.ascii	"Cy_BLE_RegisterServiceEventHandler\000"
 10015      4C455F52 
 10015      65676973 
 10015      74657253 
 10015      65727669 
 10016              	.LASF887:
 10017 2add 6D656D52 		.ascii	"memReq\000"
 10017      657100
 10018              	.LASF353:
 10019 2ae4 74637077 		.ascii	"tcpwm_1_interrupts_19_IRQn\000"
 10019      6D5F315F 
 10019      696E7465 
 10019      72727570 
 10019      74735F31 
 10020              	.LASF483:
 10021 2aff 43595F42 		.ascii	"CY_BLE_EVT_GATTC_READ_MULTI_RSP\000"
 10021      4C455F45 
 10021      56545F47 
 10021      41545443 
 10021      5F524541 
 10022              	.LASF813:
 10023 2b1f 61747445 		.ascii	"attEndHandle\000"
 10023      6E644861 
 10023      6E646C65 
 10023      00
 10024              	.LASF503:
 10025 2b2c 43595F42 		.ascii	"CY_BLE_EVT_L2CAP_CBFC_DISCONN_CNF\000"
 10025      4C455F45 
 10025      56545F4C 
 10025      32434150 
 10025      5F434246 
 10026              	.LASF188:
 10027 2b4e 64774368 		.ascii	"dwChCtlPrioPos\000"
 10027      43746C50 
 10027      72696F50 
 10027      6F7300
 10028              	.LASF923:
 10029 2b5d 43795F42 		.ascii	"Cy_BLE_GAPP_StartAdvertisement\000"
 10029      4C455F47 
 10029      4150505F 
 10029      53746172 
 10029      74416476 
 10030              	.LASF225:
ARM GAS  C:\Users\hkmnt\AppData\Local\Temp\ccBdSSuH.s 			page 240


 10031 2b7c 63795F73 		.ascii	"cy_stc_device_t\000"
 10031      74635F64 
 10031      65766963 
 10031      655F7400 
 10032              	.LASF613:
 10033 2b8c 43595F42 		.ascii	"CY_BLE_GATT_SIGNED_WRITE_CMD\000"
 10033      4C455F47 
 10033      4154545F 
 10033      5349474E 
 10033      45445F57 
 10034              	.LASF568:
 10035 2ba9 63795F65 		.ascii	"cy_en_ble_protocol_req_t\000"
 10035      6E5F626C 
 10035      655F7072 
 10035      6F746F63 
 10035      6F6C5F72 
 10036              	.LASF567:
 10037 2bc2 43595F42 		.ascii	"CY_BLE_INVALID_REQUEST\000"
 10037      4C455F49 
 10037      4E56414C 
 10037      49445F52 
 10037      45515545 
 10038              	.LASF295:
 10039 2bd9 63707573 		.ascii	"cpuss_interrupts_dw0_9_IRQn\000"
 10039      735F696E 
 10039      74657272 
 10039      75707473 
 10039      5F647730 
 10040              	.LASF369:
 10041 2bf5 7564625F 		.ascii	"udb_interrupts_11_IRQn\000"
 10041      696E7465 
 10041      72727570 
 10041      74735F31 
 10041      315F4952 
 10042              	.LASF590:
 10043 2c0c 43595F42 		.ascii	"CY_BLE_GATT_FIND_INFO_RSP\000"
 10043      4C455F47 
 10043      4154545F 
 10043      46494E44 
 10043      5F494E46 
 10044              	.LASF36:
 10045 2c26 4449455F 		.ascii	"DIE_DAY\000"
 10045      44415900 
 10046              	.LASF338:
 10047 2c2e 74637077 		.ascii	"tcpwm_1_interrupts_4_IRQn\000"
 10047      6D5F315F 
 10047      696E7465 
 10047      72727570 
 10047      74735F34 
 10048              	.LASF388:
 10049 2c48 646F7562 		.ascii	"double\000"
 10049      6C6500
 10050              	.LASF207:
 10051 2c4f 6770696F 		.ascii	"gpioPrtCfgOutOffset\000"
 10051      50727443 
 10051      66674F75 
 10051      744F6666 
ARM GAS  C:\Users\hkmnt\AppData\Local\Temp\ccBdSSuH.s 			page 241


 10051      73657400 
 10052              	.LASF35:
 10053 2c63 4449455F 		.ascii	"DIE_MINOR\000"
 10053      4D494E4F 
 10053      5200
 10054              	.LASF526:
 10055 2c6d 43595F42 		.ascii	"CY_BLE_ERROR_L2CAP_CONNECTION_ENTITY_NOT_FOUND\000"
 10055      4C455F45 
 10055      52524F52 
 10055      5F4C3243 
 10055      41505F43 
 10056              	.LASF476:
 10057 2c9c 43595F42 		.ascii	"CY_BLE_EVT_GATTC_XCHNG_MTU_RSP\000"
 10057      4C455F45 
 10057      56545F47 
 10057      41545443 
 10057      5F584348 
 10058              	.LASF899:
 10059 2cbb 63795F62 		.ascii	"cy_ble_advIndex\000"
 10059      6C655F61 
 10059      6476496E 
 10059      64657800 
 10060              	.LASF555:
 10061 2ccb 43595F42 		.ascii	"CY_BLE_LL_PWR_LVL_MAX\000"
 10061      4C455F4C 
 10061      4C5F5057 
 10061      525F4C56 
 10061      4C5F4D41 
 10062              	.LASF663:
 10063 2ce1 63795F73 		.ascii	"cy_stc_ble_gatt_write_param_t\000"
 10063      74635F62 
 10063      6C655F67 
 10063      6174745F 
 10063      77726974 
 10064              	.LASF517:
 10065 2cff 43595F42 		.ascii	"CY_BLE_ERROR_NO_CONNECTION\000"
 10065      4C455F45 
 10065      52524F52 
 10065      5F4E4F5F 
 10065      434F4E4E 
 10066              	.LASF178:
 10067 2d1a 666C6173 		.ascii	"flashWriteDelay\000"
 10067      68577269 
 10067      74654465 
 10067      6C617900 
 10068              	.LASF176:
 10069 2d2a 666C6173 		.ascii	"flashRwwRequired\000"
 10069      68527777 
 10069      52657175 
 10069      69726564 
 10069      00
 10070              	.LASF184:
 10071 2d3b 666C6173 		.ascii	"flashCtlMainWs3Freq\000"
 10071      6843746C 
 10071      4D61696E 
 10071      57733346 
 10071      72657100 
ARM GAS  C:\Users\hkmnt\AppData\Local\Temp\ccBdSSuH.s 			page 242


 10072              	.LASF664:
 10073 2d4f 6F70436F 		.ascii	"opCode\000"
 10073      646500
 10074              	.LASF357:
 10075 2d56 74637077 		.ascii	"tcpwm_1_interrupts_23_IRQn\000"
 10075      6D5F315F 
 10075      696E7465 
 10075      72727570 
 10075      74735F32 
 10076              	.LASF738:
 10077 2d71 64697265 		.ascii	"directAddrType\000"
 10077      63744164 
 10077      64725479 
 10077      706500
 10078              	.LASF310:
 10079 2d80 63707573 		.ascii	"cpuss_interrupts_dw1_8_IRQn\000"
 10079      735F696E 
 10079      74657272 
 10079      75707473 
 10079      5F647731 
 10080              	.LASF202:
 10081 2d9c 70657269 		.ascii	"periDiv16_5CtlOffset\000"
 10081      44697631 
 10081      365F3543 
 10081      746C4F66 
 10081      66736574 
 10082              	.LASF607:
 10083 2db1 43595F42 		.ascii	"CY_BLE_GATT_PREPARE_WRITE_RSP\000"
 10083      4C455F47 
 10083      4154545F 
 10083      50524550 
 10083      4152455F 
 10084              	.LASF581:
 10085 2dcf 63795F73 		.ascii	"cy_stc_ble_memory_request_t\000"
 10085      74635F62 
 10085      6C655F6D 
 10085      656D6F72 
 10085      795F7265 
 10086              	.LASF82:
 10087 2deb 464C4153 		.ascii	"FLASH_BOOT_N_CORES\000"
 10087      485F424F 
 10087      4F545F4E 
 10087      5F434F52 
 10087      455300
 10088              	.LASF351:
 10089 2dfe 74637077 		.ascii	"tcpwm_1_interrupts_17_IRQn\000"
 10089      6D5F315F 
 10089      696E7465 
 10089      72727570 
 10089      74735F31 
 10090              	.LASF698:
 10091 2e19 43595F42 		.ascii	"CY_BLE_GAP_RANDOM_RESOLVABLE_ADDR_TYPE\000"
 10091      4C455F47 
 10091      41505F52 
 10091      414E444F 
 10091      4D5F5245 
 10092              	.LASF894:
ARM GAS  C:\Users\hkmnt\AppData\Local\Temp\ccBdSSuH.s 			page 243


 10093 2e40 49544D5F 		.ascii	"ITM_RxBuffer\000"
 10093      52784275 
 10093      66666572 
 10093      00
 10094              	.LASF284:
 10095 2e4d 7363625F 		.ascii	"scb_7_interrupt_IRQn\000"
 10095      375F696E 
 10095      74657272 
 10095      7570745F 
 10095      4952516E 
 10096              	.LASF61:
 10097 2e62 50494C4F 		.ascii	"PILO_FREQ_STEP\000"
 10097      5F465245 
 10097      515F5354 
 10097      455000
 10098              	.LASF407:
 10099 2e71 43595F42 		.ascii	"CY_BLE_EVT_GET_DATA_LENGTH_COMPLETE\000"
 10099      4C455F45 
 10099      56545F47 
 10099      45545F44 
 10099      4154415F 
 10100              	.LASF926:
 10101 2e95 47656E65 		.ascii	"Generated_Source\\PSoC6\\pdl\\middleware\\ble\\cy_b"
 10101      72617465 
 10101      645F536F 
 10101      75726365 
 10101      5C50536F 
 10102 2ec3 6C655F65 		.ascii	"le_event_handler.c\000"
 10102      76656E74 
 10102      5F68616E 
 10102      646C6572 
 10102      2E6300
 10103              	.LASF132:
 10104 2ed6 52544F43 		.ascii	"RTOC2_SHASH_OBJECTS\000"
 10104      325F5348 
 10104      4153485F 
 10104      4F424A45 
 10104      43545300 
 10105              	.LASF346:
 10106 2eea 74637077 		.ascii	"tcpwm_1_interrupts_12_IRQn\000"
 10106      6D5F315F 
 10106      696E7465 
 10106      72727570 
 10106      74735F31 
 10107              	.LASF564:
 10108 2f05 43595F42 		.ascii	"CY_BLE_GENERIC_APP_TO\000"
 10108      4C455F47 
 10108      454E4552 
 10108      49435F41 
 10108      50505F54 
 10109              	.LASF828:
 10110 2f1b 7478506F 		.ascii	"txPowerLevelAdv\000"
 10110      7765724C 
 10110      6576656C 
 10110      41647600 
 10111              	.LASF116:
 10112 2f2b 544F4332 		.ascii	"TOC2_SECOND_USER_APP_ADDR\000"
ARM GAS  C:\Users\hkmnt\AppData\Local\Temp\ccBdSSuH.s 			page 244


 10112      5F534543 
 10112      4F4E445F 
 10112      55534552 
 10112      5F415050 
 10113              	.LASF387:
 10114 2f45 666C6F61 		.ascii	"float\000"
 10114      7400
 10115              	.LASF565:
 10116 2f4b 63795F65 		.ascii	"cy_en_ble_to_reason_code_t\000"
 10116      6E5F626C 
 10116      655F746F 
 10116      5F726561 
 10116      736F6E5F 
 10117              	.LASF855:
 10118 2f66 43595F42 		.ascii	"CY_BLE_DIS_FIRMWARE_REV\000"
 10118      4C455F44 
 10118      49535F46 
 10118      49524D57 
 10118      4152455F 
 10119              	.LASF469:
 10120 2f7e 43595F42 		.ascii	"CY_BLE_EVT_GAP_CONN_ESTB\000"
 10120      4C455F45 
 10120      56545F47 
 10120      41505F43 
 10120      4F4E4E5F 
 10121              	.LASF676:
 10122 2f97 43595F42 		.ascii	"CY_BLE_GAP_IOCAP_NOINPUT_NOOUTPUT\000"
 10122      4C455F47 
 10122      41505F49 
 10122      4F434150 
 10122      5F4E4F49 
 10123              	.LASF896:
 10124 2fb9 63795F62 		.ascii	"cy_ble_sflashDeviceAddress\000"
 10124      6C655F73 
 10124      666C6173 
 10124      68446576 
 10124      69636541 
 10125              	.LASF515:
 10126 2fd4 43595F42 		.ascii	"CY_BLE_ERROR_INSUFFICIENT_RESOURCES\000"
 10126      4C455F45 
 10126      52524F52 
 10126      5F494E53 
 10126      55464649 
 10127              	.LASF882:
 10128 2ff8 6576656E 		.ascii	"event\000"
 10128      7400
 10129              	.LASF158:
 10130 2ffe 63707573 		.ascii	"cpussIpcNr\000"
 10130      73497063 
 10130      4E7200
 10131              	.LASF727:
 10132 3009 66696C74 		.ascii	"filterDuplicates\000"
 10132      65724475 
 10132      706C6963 
 10132      61746573 
 10132      00
 10133              	.LASF288:
ARM GAS  C:\Users\hkmnt\AppData\Local\Temp\ccBdSSuH.s 			page 245


 10134 301a 63707573 		.ascii	"cpuss_interrupts_dw0_2_IRQn\000"
 10134      735F696E 
 10134      74657272 
 10134      75707473 
 10134      5F647730 
 10135              	.LASF583:
 10136 3036 43595F42 		.ascii	"CY_BLE_HANDLE\000"
 10136      4C455F48 
 10136      414E444C 
 10136      4500
 10137              	.LASF659:
 10138 3044 61747472 		.ascii	"attrHandle\000"
 10138      48616E64 
 10138      6C6500
 10139              	.LASF927:
 10140 304f 433A5C55 		.ascii	"C:\\Users\\hkmnt\\Documents\\PSoC Creator\\JPHacks\\"
 10140      73657273 
 10140      5C686B6D 
 10140      6E745C44 
 10140      6F63756D 
 10141 307d 4A504861 		.ascii	"JPHacks.cydsn\000"
 10141      636B732E 
 10141      63796473 
 10141      6E00
 10142              	.LASF839:
 10143 308b 666C6173 		.ascii	"flashStorage\000"
 10143      6853746F 
 10143      72616765 
 10143      00
 10144              	.LASF704:
 10145 3098 626F6E64 		.ascii	"bonding\000"
 10145      696E6700 
 10146              	.LASF608:
 10147 30a0 43595F42 		.ascii	"CY_BLE_GATT_EXECUTE_WRITE_REQ\000"
 10147      4C455F47 
 10147      4154545F 
 10147      45584543 
 10147      5554455F 
 10148              	.LASF363:
 10149 30be 7564625F 		.ascii	"udb_interrupts_5_IRQn\000"
 10149      696E7465 
 10149      72727570 
 10149      74735F35 
 10149      5F495251 
 10150              	.LASF569:
 10151 30d4 62644861 		.ascii	"bdHandle\000"
 10151      6E646C65 
 10151      00
 10152              	.LASF741:
 10153 30dd 61647646 		.ascii	"advFilterPolicy\000"
 10153      696C7465 
 10153      72506F6C 
 10153      69637900 
 10154              	.LASF271:
 10155 30ed 63707573 		.ascii	"cpuss_interrupts_ipc_10_IRQn\000"
 10155      735F696E 
 10155      74657272 
ARM GAS  C:\Users\hkmnt\AppData\Local\Temp\ccBdSSuH.s 			page 246


 10155      75707473 
 10155      5F697063 
 10156              	.LASF654:
 10157 310a 63795F65 		.ascii	"cy_en_ble_gatt_err_code_t\000"
 10157      6E5F626C 
 10157      655F6761 
 10157      74745F65 
 10157      72725F63 
 10158              	.LASF514:
 10159 3124 43595F42 		.ascii	"CY_BLE_ERROR_MEMORY_ALLOCATION_FAILED\000"
 10159      4C455F45 
 10159      52524F52 
 10159      5F4D454D 
 10159      4F52595F 
 10160              	.LASF763:
 10161 314a 43595F42 		.ascii	"CY_BLE_CONN_STATE_CLIENT_DISCONNECTED_DISCOVERED\000"
 10161      4C455F43 
 10161      4F4E4E5F 
 10161      53544154 
 10161      455F434C 
 10162              	.LASF859:
 10163 317b 43595F42 		.ascii	"CY_BLE_DIS_PNP_ID\000"
 10163      4C455F44 
 10163      49535F50 
 10163      4E505F49 
 10163      4400
 10164              	.LASF539:
 10165 318d 43595F42 		.ascii	"CY_BLE_ERROR_MAX\000"
 10165      4C455F45 
 10165      52524F52 
 10165      5F4D4158 
 10165      00
 10166              	.LASF537:
 10167 319e 43595F42 		.ascii	"CY_BLE_ERROR_CONTROLLER_BUSY\000"
 10167      4C455F45 
 10167      52524F52 
 10167      5F434F4E 
 10167      54524F4C 
 10168              	.LASF606:
 10169 31bb 43595F42 		.ascii	"CY_BLE_GATT_PREPARE_WRITE_REQ\000"
 10169      4C455F47 
 10169      4154545F 
 10169      50524550 
 10169      4152455F 
 10170              	.LASF95:
 10171 31d9 544F4331 		.ascii	"TOC1_FB_OBJECT_ADDR\000"
 10171      5F46425F 
 10171      4F424A45 
 10171      43545F41 
 10171      44445200 
 10172              	.LASF785:
 10173 31ed 63795F73 		.ascii	"cy_stc_ble_gapp_adv_params_t\000"
 10173      74635F62 
 10173      6C655F67 
 10173      6170705F 
 10173      6164765F 
 10174              	.LASF416:
ARM GAS  C:\Users\hkmnt\AppData\Local\Temp\ccBdSSuH.s 			page 247


 10175 320a 43595F42 		.ascii	"CY_BLE_EVT_ADD_DEVICE_TO_WHITE_LIST_COMPLETE\000"
 10175      4C455F45 
 10175      56545F41 
 10175      44445F44 
 10175      45564943 
 10176              	.LASF303:
 10177 3237 63707573 		.ascii	"cpuss_interrupts_dw1_1_IRQn\000"
 10177      735F696E 
 10177      74657272 
 10177      75707473 
 10177      5F647731 
 10178              	.LASF59:
 10179 3253 5354414E 		.ascii	"STANDARD_PPU_STRUCT\000"
 10179      44415244 
 10179      5F505055 
 10179      5F535452 
 10179      55435400 
 10180              	.LASF719:
 10181 3267 63795F73 		.ascii	"cy_stc_ble_gap_enhance_conn_complete_param_t\000"
 10181      74635F62 
 10181      6C655F67 
 10181      61705F65 
 10181      6E68616E 
 10182              	.LASF0:
 10183 3294 756E7369 		.ascii	"unsigned int\000"
 10183      676E6564 
 10183      20696E74 
 10183      00
 10184              	.LASF729:
 10185 32a1 43595F42 		.ascii	"CY_BLE_GAPP_CONNECTABLE_UNDIRECTED_ADV\000"
 10185      4C455F47 
 10185      4150505F 
 10185      434F4E4E 
 10185      45435441 
 10186              	.LASF834:
 10187 32c8 63795F73 		.ascii	"cy_stc_ble_params_t\000"
 10187      74635F62 
 10187      6C655F70 
 10187      6172616D 
 10187      735F7400 
 10188              	.LASF459:
 10189 32dc 43595F42 		.ascii	"CY_BLE_EVT_GAP_KEYPRESS_NOTIFICATION\000"
 10189      4C455F45 
 10189      56545F47 
 10189      41505F4B 
 10189      45595052 
 10190              	.LASF597:
 10191 3301 43595F42 		.ascii	"CY_BLE_GATT_READ_BLOB_REQ\000"
 10191      4C455F47 
 10191      4154545F 
 10191      52454144 
 10191      5F424C4F 
 10192              	.LASF809:
 10193 331b 63795F73 		.ascii	"cy_stc_ble_gatts_att_value_t\000"
 10193      74635F62 
 10193      6C655F67 
 10193      61747473 
ARM GAS  C:\Users\hkmnt\AppData\Local\Temp\ccBdSSuH.s 			page 248


 10193      5F617474 
 10194              	.LASF906:
 10195 3338 63795F62 		.ascii	"cy_ble_configPtr\000"
 10195      6C655F63 
 10195      6F6E6669 
 10195      67507472 
 10195      00
 10196              	.LASF23:
 10197 3349 53495F52 		.ascii	"SI_REVISION_ID\000"
 10197      45564953 
 10197      494F4E5F 
 10197      494400
 10198              	.LASF204:
 10199 3358 6770696F 		.ascii	"gpioPrtIntrCfgOffset\000"
 10199      50727449 
 10199      6E747243 
 10199      66674F66 
 10199      66736574 
 10200              	.LASF221:
 10201 336d 63707573 		.ascii	"cpussRam1Ctl0\000"
 10201      7352616D 
 10201      3143746C 
 10201      3000
 10202              	.LASF56:
 10203 337b 5354414E 		.ascii	"STANDARD_SMPU_STRUCT_SLAVE_ATTR\000"
 10203      44415244 
 10203      5F534D50 
 10203      555F5354 
 10203      52554354 
 10204              	.LASF232:
 10205 339b 53564361 		.ascii	"SVCall_IRQn\000"
 10205      6C6C5F49 
 10205      52516E00 
 10206              	.LASF713:
 10207 33a7 70656572 		.ascii	"peerBdAddrType\000"
 10207      42644164 
 10207      64725479 
 10207      706500
 10208              	.LASF356:
 10209 33b6 74637077 		.ascii	"tcpwm_1_interrupts_22_IRQn\000"
 10209      6D5F315F 
 10209      696E7465 
 10209      72727570 
 10209      74735F32 
 10210              	.LASF766:
 10211 33d1 43595F42 		.ascii	"CY_BLE_CONN_STATE_CLIENT_INCL_DISCOVERING\000"
 10211      4C455F43 
 10211      4F4E4E5F 
 10211      53544154 
 10211      455F434C 
 10212              	.LASF270:
 10213 33fb 63707573 		.ascii	"cpuss_interrupts_ipc_9_IRQn\000"
 10213      735F696E 
 10213      74657272 
 10213      75707473 
 10213      5F697063 
 10214              	.LASF473:
ARM GAS  C:\Users\hkmnt\AppData\Local\Temp\ccBdSSuH.s 			page 249


 10215 3417 43595F42 		.ascii	"CY_BLE_EVT_GATT_CONNECT_IND\000"
 10215      4C455F45 
 10215      56545F47 
 10215      4154545F 
 10215      434F4E4E 
 10216              	.LASF70:
 10217 3433 43505553 		.ascii	"CPUSS_TRIM_RAM_CTL_ULP\000"
 10217      535F5452 
 10217      494D5F52 
 10217      414D5F43 
 10217      544C5F55 
 10218              	.LASF114:
 10219 344a 544F4332 		.ascii	"TOC2_FIRST_USER_APP_ADDR\000"
 10219      5F464952 
 10219      53545F55 
 10219      5345525F 
 10219      4150505F 
 10220              	.LASF757:
 10221 3463 43595F42 		.ascii	"CY_BLE_ADV_STATE_STOPPED\000"
 10221      4C455F41 
 10221      44565F53 
 10221      54415445 
 10221      5F53544F 
 10222              	.LASF888:
 10223 347c 67507265 		.ascii	"gPrepWriteReqMem\000"
 10223      70577269 
 10223      74655265 
 10223      714D656D 
 10223      00
 10224              	.LASF879:
 10225 348d 43795F42 		.ascii	"Cy_BLE_GetConnectionState\000"
 10225      4C455F47 
 10225      6574436F 
 10225      6E6E6563 
 10225      74696F6E 
 10226              	.LASF807:
 10227 34a7 61747446 		.ascii	"attFormatValue\000"
 10227      6F726D61 
 10227      7456616C 
 10227      756500
 10228              	.LASF374:
 10229 34b6 70617373 		.ascii	"pass_interrupt_sar_IRQn\000"
 10229      5F696E74 
 10229      65727275 
 10229      70745F73 
 10229      61725F49 
 10230              	.LASF897:
 10231 34ce 63795F62 		.ascii	"cy_ble_state\000"
 10231      6C655F73 
 10231      74617465 
 10231      00
 10232              	.LASF83:
 10233 34db 464C4153 		.ascii	"FLASH_BOOT_VT_OFFSET\000"
 10233      485F424F 
 10233      4F545F56 
 10233      545F4F46 
 10233      46534554 
ARM GAS  C:\Users\hkmnt\AppData\Local\Temp\ccBdSSuH.s 			page 250


 10234              	.LASF591:
 10235 34f0 43595F42 		.ascii	"CY_BLE_GATT_FIND_BY_TYPE_VALUE_REQ\000"
 10235      4C455F47 
 10235      4154545F 
 10235      46494E44 
 10235      5F42595F 
 10236              	.LASF111:
 10237 3513 544F4332 		.ascii	"TOC2_MAGIC_NUMBER\000"
 10237      5F4D4147 
 10237      49435F4E 
 10237      554D4245 
 10237      5200
 10238              	.LASF600:
 10239 3525 43595F42 		.ascii	"CY_BLE_GATT_READ_MULTIPLE_RSP\000"
 10239      4C455F47 
 10239      4154545F 
 10239      52454144 
 10239      5F4D554C 
 10240              	.LASF761:
 10241 3543 63795F65 		.ascii	"cy_en_ble_adv_state_t\000"
 10241      6E5F626C 
 10241      655F6164 
 10241      765F7374 
 10241      6174655F 
 10242              	.LASF251:
 10243 3559 696F7373 		.ascii	"ioss_interrupt_gpio_IRQn\000"
 10243      5F696E74 
 10243      65727275 
 10243      70745F67 
 10243      70696F5F 
 10244              	.LASF854:
 10245 3572 43595F42 		.ascii	"CY_BLE_DIS_HARDWARE_REV\000"
 10245      4C455F44 
 10245      49535F48 
 10245      41524457 
 10245      4152455F 
 10246              	.LASF440:
 10247 358a 43595F42 		.ascii	"CY_BLE_EVT_AES_CMAC_GEN_COMPLETE\000"
 10247      4C455F45 
 10247      56545F41 
 10247      45535F43 
 10247      4D41435F 
 10248              	.LASF837:
 10249 35ab 64697363 		.ascii	"discoveryInfo\000"
 10249      6F766572 
 10249      79496E66 
 10249      6F00
 10250              	.LASF226:
 10251 35b9 52657365 		.ascii	"Reset_IRQn\000"
 10251      745F4952 
 10251      516E00
 10252              	.LASF856:
 10253 35c4 43595F42 		.ascii	"CY_BLE_DIS_SOFTWARE_REV\000"
 10253      4C455F44 
 10253      49535F53 
 10253      4F465457 
 10253      4152455F 
ARM GAS  C:\Users\hkmnt\AppData\Local\Temp\ccBdSSuH.s 			page 251


 10254              	.LASF84:
 10255 35dc 464C4153 		.ascii	"FLASH_BOOT_CORE_CPUID\000"
 10255      485F424F 
 10255      4F545F43 
 10255      4F52455F 
 10255      43505549 
 10256              	.LASF125:
 10257 35f2 52544F43 		.ascii	"RTOC2_MAGIC_NUMBER\000"
 10257      325F4D41 
 10257      4749435F 
 10257      4E554D42 
 10257      455200
 10258              	.LASF779:
 10259 3605 66617374 		.ascii	"fastAdvIntervalMax\000"
 10259      41647649 
 10259      6E746572 
 10259      76616C4D 
 10259      617800
 10260              	.LASF392:
 10261 3618 43595F42 		.ascii	"CY_BLE_EVT_INVALID\000"
 10261      4C455F45 
 10261      56545F49 
 10261      4E56414C 
 10261      494400
 10262              	.LASF373:
 10263 362b 7564625F 		.ascii	"udb_interrupts_15_IRQn\000"
 10263      696E7465 
 10263      72727570 
 10263      74735F31 
 10263      355F4952 
 10264              	.LASF159:
 10265 3642 63707573 		.ascii	"cpussIpcIrqNr\000"
 10265      73497063 
 10265      4972714E 
 10265      7200
 10266              	.LASF486:
 10267 3650 43595F42 		.ascii	"CY_BLE_EVT_GATTS_WRITE_CMD_REQ\000"
 10267      4C455F45 
 10267      56545F47 
 10267      41545453 
 10267      5F575249 
 10268              	.LASF342:
 10269 366f 74637077 		.ascii	"tcpwm_1_interrupts_8_IRQn\000"
 10269      6D5F315F 
 10269      696E7465 
 10269      72727570 
 10269      74735F38 
 10270              	.LASF640:
 10271 3689 43595F42 		.ascii	"CY_BLE_GATT_ERR_MISSING_CRC\000"
 10271      4C455F47 
 10271      4154545F 
 10271      4552525F 
 10271      4D495353 
 10272              	.LASF550:
 10273 36a5 43595F42 		.ascii	"CY_BLE_LL_PWR_LVL_NEG_20_DBM\000"
 10273      4C455F4C 
 10273      4C5F5057 
ARM GAS  C:\Users\hkmnt\AppData\Local\Temp\ccBdSSuH.s 			page 252


 10273      525F4C56 
 10273      4C5F4E45 
 10274              	.LASF191:
 10275 36c2 64775374 		.ascii	"dwStatusChIdxMsk\000"
 10275      61747573 
 10275      43684964 
 10275      784D736B 
 10275      00
 10276              	.LASF589:
 10277 36d3 43595F42 		.ascii	"CY_BLE_GATT_FIND_INFO_REQ\000"
 10277      4C455F47 
 10277      4154545F 
 10277      46494E44 
 10277      5F494E46 
 10278              	.LASF641:
 10279 36ed 43595F42 		.ascii	"CY_BLE_GATTS_ERR_CCCD_IMPROPERLY_CONFIGURED\000"
 10279      4C455F47 
 10279      41545453 
 10279      5F455252 
 10279      5F434343 
 10280              	.LASF548:
 10281 3719 6C646F56 		.ascii	"ldoVoltageTable\000"
 10281      6F6C7461 
 10281      67655461 
 10281      626C6500 
 10282              	.LASF644:
 10283 3729 43595F42 		.ascii	"CY_BLE_GATTS_ERR_HPS_INVALID_REQUEST\000"
 10283      4C455F47 
 10283      41545453 
 10283      5F455252 
 10283      5F485053 
 10284              	.LASF442:
 10285 374e 43595F42 		.ascii	"CY_BLE_EVT_SET_CE_LENGTH_COMPLETE\000"
 10285      4C455F45 
 10285      56545F53 
 10285      45545F43 
 10285      455F4C45 
 10286              	.LASF639:
 10287 3770 43595F42 		.ascii	"CY_BLE_GATT_ERR_OP_CODE_NOT_SUPPORTED\000"
 10287      4C455F47 
 10287      4154545F 
 10287      4552525F 
 10287      4F505F43 
 10288              	.LASF523:
 10289 3796 43595F42 		.ascii	"CY_BLE_ERROR_L2CAP_PSM_WRONG_ENCODING\000"
 10289      4C455F45 
 10289      52524F52 
 10289      5F4C3243 
 10289      41505F50 
 10290              	.LASF180:
 10291 37bc 666C6173 		.ascii	"flashEraseDelay\000"
 10291      68457261 
 10291      73654465 
 10291      6C617900 
 10292              	.LASF814:
 10293 37cc 61747456 		.ascii	"attValue\000"
 10293      616C7565 
ARM GAS  C:\Users\hkmnt\AppData\Local\Temp\ccBdSSuH.s 			page 253


 10293      00
 10294              	.LASF281:
 10295 37d5 7363625F 		.ascii	"scb_4_interrupt_IRQn\000"
 10295      345F696E 
 10295      74657272 
 10295      7570745F 
 10295      4952516E 
 10296              	.LASF584:
 10297 37ea 74696D65 		.ascii	"timerHandle\000"
 10297      7248616E 
 10297      646C6500 
 10298              	.LASF744:
 10299 37f6 61647644 		.ascii	"advDataLen\000"
 10299      6174614C 
 10299      656E00
 10300              	.LASF842:
 10301 3801 61747456 		.ascii	"attValuesCCCD\000"
 10301      616C7565 
 10301      73434343 
 10301      4400
 10302              	.LASF772:
 10303 380f 64657669 		.ascii	"deviceNameCharHandle\000"
 10303      63654E61 
 10303      6D654368 
 10303      61724861 
 10303      6E646C65 
 10304              	.LASF299:
 10305 3824 63707573 		.ascii	"cpuss_interrupts_dw0_13_IRQn\000"
 10305      735F696E 
 10305      74657272 
 10305      75707473 
 10305      5F647730 
 10306              	.LASF337:
 10307 3841 74637077 		.ascii	"tcpwm_1_interrupts_3_IRQn\000"
 10307      6D5F315F 
 10307      696E7465 
 10307      72727570 
 10307      74735F33 
 10308              	.LASF2:
 10309 385b 6C6F6E67 		.ascii	"long double\000"
 10309      20646F75 
 10309      626C6500 
 10310              	.LASF289:
 10311 3867 63707573 		.ascii	"cpuss_interrupts_dw0_3_IRQn\000"
 10311      735F696E 
 10311      74657272 
 10311      75707473 
 10311      5F647730 
 10312              	.LASF122:
 10313 3883 544F4332 		.ascii	"TOC2_FLAGS\000"
 10313      5F464C41 
 10313      475300
 10314              	.LASF256:
 10315 388e 73727373 		.ascii	"srss_interrupt_mcwdt_1_IRQn\000"
 10315      5F696E74 
 10315      65727275 
 10315      70745F6D 
ARM GAS  C:\Users\hkmnt\AppData\Local\Temp\ccBdSSuH.s 			page 254


 10315      63776474 
 10316              	.LASF843:
 10317 38aa 67617474 		.ascii	"gattDB\000"
 10317      444200
 10318              	.LASF582:
 10319 38b1 72656173 		.ascii	"reasonCode\000"
 10319      6F6E436F 
 10319      646500
 10320              	.LASF666:
 10321 38bc 63795F73 		.ascii	"cy_stc_ble_gatt_err_info_t\000"
 10321      74635F62 
 10321      6C655F67 
 10321      6174745F 
 10321      6572725F 
 10322              	.LASF773:
 10323 38d7 61707065 		.ascii	"appearanceCharHandle\000"
 10323      6172616E 
 10323      63654368 
 10323      61724861 
 10323      6E646C65 
 10324              	.LASF405:
 10325 38ec 43595F42 		.ascii	"CY_BLE_EVT_SET_DATA_LENGTH_COMPLETE\000"
 10325      4C455F45 
 10325      56545F53 
 10325      45545F44 
 10325      4154415F 
 10326              	.LASF488:
 10327 3910 43595F42 		.ascii	"CY_BLE_EVT_GATTS_EXEC_WRITE_REQ\000"
 10327      4C455F45 
 10327      56545F47 
 10327      41545453 
 10327      5F455845 
 10328              	.LASF688:
 10329 3930 43595F42 		.ascii	"CY_BLE_GAP_AUTH_ERROR_REPEATED_ATTEMPTS\000"
 10329      4C455F47 
 10329      41505F41 
 10329      5554485F 
 10329      4552524F 
 10330              	.LASF527:
 10331 3958 43595F42 		.ascii	"CY_BLE_ERROR_L2CAP_PSM_NOT_IN_RANGE\000"
 10331      4C455F45 
 10331      52524F52 
 10331      5F4C3243 
 10331      41505F50 
 10332              	.LASF292:
 10333 397c 63707573 		.ascii	"cpuss_interrupts_dw0_6_IRQn\000"
 10333      735F696E 
 10333      74657272 
 10333      75707473 
 10333      5F647730 
 10334              	.LASF81:
 10335 3998 464C4153 		.ascii	"FLASH_BOOT_ATTRIBUTE\000"
 10335      485F424F 
 10335      4F545F41 
 10335      54545249 
 10335      42555445 
 10336              	.LASF166:
ARM GAS  C:\Users\hkmnt\AppData\Local\Temp\ccBdSSuH.s 			page 255


 10337 39ad 73727373 		.ascii	"srssNumPll\000"
 10337      4E756D50 
 10337      6C6C00
 10338              	.LASF335:
 10339 39b8 74637077 		.ascii	"tcpwm_1_interrupts_1_IRQn\000"
 10339      6D5F315F 
 10339      696E7465 
 10339      72727570 
 10339      74735F31 
 10340              	.LASF266:
 10341 39d2 63707573 		.ascii	"cpuss_interrupts_ipc_5_IRQn\000"
 10341      735F696E 
 10341      74657272 
 10341      75707473 
 10341      5F697063 
 10342              	.LASF754:
 10343 39ee 43595F42 		.ascii	"CY_BLE_STATE_INITIALIZING\000"
 10343      4C455F53 
 10343      54415445 
 10343      5F494E49 
 10343      5449414C 
 10344              	.LASF524:
 10345 3a08 43595F42 		.ascii	"CY_BLE_ERROR_L2CAP_PSM_ALREADY_REGISTERED\000"
 10345      4C455F45 
 10345      52524F52 
 10345      5F4C3243 
 10345      41505F50 
 10346              	.LASF242:
 10347 3a32 696F7373 		.ascii	"ioss_interrupts_gpio_6_IRQn\000"
 10347      5F696E74 
 10347      65727275 
 10347      7074735F 
 10347      6770696F 
 10348              	.LASF669:
 10349 3a4e 71756575 		.ascii	"queueBuffer\000"
 10349      65427566 
 10349      66657200 
 10350              	.LASF376:
 10351 3a5a 61756469 		.ascii	"audioss_interrupt_pdm_IRQn\000"
 10351      6F73735F 
 10351      696E7465 
 10351      72727570 
 10351      745F7064 
 10352              	.LASF199:
 10353 3a75 70657269 		.ascii	"periDivCmdPaTypeSelPos\000"
 10353      44697643 
 10353      6D645061 
 10353      54797065 
 10353      53656C50 
 10354              	.LASF250:
 10355 3a8c 696F7373 		.ascii	"ioss_interrupts_gpio_14_IRQn\000"
 10355      5F696E74 
 10355      65727275 
 10355      7074735F 
 10355      6770696F 
 10356              	.LASF412:
 10357 3aa9 43595F42 		.ascii	"CY_BLE_EVT_SET_RPA_ENABLE_COMPLETE\000"
ARM GAS  C:\Users\hkmnt\AppData\Local\Temp\ccBdSSuH.s 			page 256


 10357      4C455F45 
 10357      56545F53 
 10357      45545F52 
 10357      50415F45 
 10358              	.LASF390:
 10359 3acc 696E7472 		.ascii	"intrPriority\000"
 10359      5072696F 
 10359      72697479 
 10359      00
 10360              	.LASF218:
 10361 3ad9 63707573 		.ascii	"cpussCm4NmiCtlOffset\000"
 10361      73436D34 
 10361      4E6D6943 
 10361      746C4F66 
 10361      66736574 
 10362              	.LASF610:
 10363 3aee 43595F42 		.ascii	"CY_BLE_GATT_HANDLE_VALUE_NTF\000"
 10363      4C455F47 
 10363      4154545F 
 10363      48414E44 
 10363      4C455F56 
 10364              	.LASF913:
 10365 3b0b 43795F42 		.ascii	"Cy_BLE_SetLeEventMask\000"
 10365      4C455F53 
 10365      65744C65 
 10365      4576656E 
 10365      744D6173 
 10366              	.LASF794:
 10367 3b21 67617063 		.ascii	"gapcConnectionIntervalMax\000"
 10367      436F6E6E 
 10367      65637469 
 10367      6F6E496E 
 10367      74657276 
 10368              	.LASF260:
 10369 3b3b 626C6573 		.ascii	"bless_interrupt_IRQn\000"
 10369      735F696E 
 10369      74657272 
 10369      7570745F 
 10369      4952516E 
 10370              	.LASF217:
 10371 3b50 63707573 		.ascii	"cpussCm0NmiCtlOffset\000"
 10371      73436D30 
 10371      4E6D6943 
 10371      746C4F66 
 10371      66736574 
 10372              	.LASF457:
 10373 3b65 43595F42 		.ascii	"CY_BLE_EVT_GAP_KEYINFO_EXCHNGE_CMPLT\000"
 10373      4C455F45 
 10373      56545F47 
 10373      41505F4B 
 10373      4559494E 
 10374              	.LASF850:
 10375 3b8a 63795F73 		.ascii	"cy_stc_ble_config_t\000"
 10375      74635F62 
 10375      6C655F63 
 10375      6F6E6669 
 10375      675F7400 
ARM GAS  C:\Users\hkmnt\AppData\Local\Temp\ccBdSSuH.s 			page 257


 10376              	.LASF637:
 10377 3b9e 43595F42 		.ascii	"CY_BLE_GATT_ERR_HTS_OUT_OF_RANGE\000"
 10377      4C455F47 
 10377      4154545F 
 10377      4552525F 
 10377      4854535F 
 10378              	.LASF183:
 10379 3bbf 666C6173 		.ascii	"flashCtlMainWs2Freq\000"
 10379      6843746C 
 10379      4D61696E 
 10379      57733246 
 10379      72657100 
 10380              	.LASF863:
 10381 3bd3 636F756E 		.ascii	"count\000"
 10381      7400
 10382              	.LASF372:
 10383 3bd9 7564625F 		.ascii	"udb_interrupts_14_IRQn\000"
 10383      696E7465 
 10383      72727570 
 10383      74735F31 
 10383      345F4952 
 10384              	.LASF929:
 10385 3bf0 43795F42 		.ascii	"Cy_BLE_SendWriteResponse\000"
 10385      4C455F53 
 10385      656E6457 
 10385      72697465 
 10385      52657370 
 10386              	.LASF341:
 10387 3c09 74637077 		.ascii	"tcpwm_1_interrupts_7_IRQn\000"
 10387      6D5F315F 
 10387      696E7465 
 10387      72727570 
 10387      74735F37 
 10388              	.LASF455:
 10389 3c23 43595F42 		.ascii	"CY_BLE_EVT_GAP_CONNECTION_UPDATE_COMPLETE\000"
 10389      4C455F45 
 10389      56545F47 
 10389      41505F43 
 10389      4F4E4E45 
 10390              	.LASF723:
 10391 3c4d 7363616E 		.ascii	"scanWindow\000"
 10391      57696E64 
 10391      6F7700
 10392              	.LASF386:
 10393 3c58 63686172 		.ascii	"char_t\000"
 10393      5F7400
 10394              	.LASF502:
 10395 3c5f 43595F42 		.ascii	"CY_BLE_EVT_L2CAP_CBFC_DISCONN_IND\000"
 10395      4C455F45 
 10395      56545F4C 
 10395      32434150 
 10395      5F434246 
 10396              	.LASF830:
 10397 3c81 73656375 		.ascii	"securityIoCapability\000"
 10397      72697479 
 10397      496F4361 
 10397      70616269 
ARM GAS  C:\Users\hkmnt\AppData\Local\Temp\ccBdSSuH.s 			page 258


 10397      6C697479 
 10398              	.LASF231:
 10399 3c96 55736167 		.ascii	"UsageFault_IRQn\000"
 10399      65466175 
 10399      6C745F49 
 10399      52516E00 
 10400              	.LASF448:
 10401 3ca6 43595F42 		.ascii	"CY_BLE_EVT_GAP_PASSKEY_DISPLAY_REQUEST\000"
 10401      4C455F45 
 10401      56545F47 
 10401      41505F50 
 10401      4153534B 
 10402              	.LASF686:
 10403 3ccd 43595F42 		.ascii	"CY_BLE_GAP_AUTH_ERROR_COMMAND_NOT_SUPPORTED\000"
 10403      4C455F47 
 10403      41505F41 
 10403      5554485F 
 10403      4552524F 
 10404              	.LASF127:
 10405 3cf9 52544F43 		.ascii	"RTOC2_SMIF_CFG_STRUCT_ADDR\000"
 10405      325F534D 
 10405      49465F43 
 10405      46475F53 
 10405      54525543 
 10406              	.LASF595:
 10407 3d14 43595F42 		.ascii	"CY_BLE_GATT_READ_REQ\000"
 10407      4C455F47 
 10407      4154545F 
 10407      52454144 
 10407      5F524551 
 10408              	.LASF845:
 10409 3d29 70617261 		.ascii	"params\000"
 10409      6D7300
 10410              	.LASF638:
 10411 3d30 43595F42 		.ascii	"CY_BLE_GATTS_ERR_PROCEDURE_ALREADY_IN_PROGRESS\000"
 10411      4C455F47 
 10411      41545453 
 10411      5F455252 
 10411      5F50524F 
 10412              	.LASF722:
 10413 3d5f 7363616E 		.ascii	"scanIntv\000"
 10413      496E7476 
 10413      00
 10414              	.LASF312:
 10415 3d68 63707573 		.ascii	"cpuss_interrupts_dw1_10_IRQn\000"
 10415      735F696E 
 10415      74657272 
 10415      75707473 
 10415      5F647731 
 10416              	.LASF404:
 10417 3d85 43595F42 		.ascii	"CY_BLE_EVT_LE_PING_AUTH_TIMEOUT\000"
 10417      4C455F45 
 10417      56545F4C 
 10417      455F5049 
 10417      4E475F41 
 10418              	.LASF715:
 10419 3da5 70656572 		.ascii	"peerResolvablePvtAddr\000"
ARM GAS  C:\Users\hkmnt\AppData\Local\Temp\ccBdSSuH.s 			page 259


 10419      5265736F 
 10419      6C766162 
 10419      6C655076 
 10419      74416464 
 10420              	.LASF3:
 10421 3dbb 7369676E 		.ascii	"signed char\000"
 10421      65642063 
 10421      68617200 
 10422              	.LASF552:
 10423 3dc7 43595F42 		.ascii	"CY_BLE_LL_PWR_LVL_NEG_12_DBM\000"
 10423      4C455F4C 
 10423      4C5F5057 
 10423      525F4C56 
 10423      4C5F4E45 
 10424              	.LASF19:
 10425 3de4 75696E74 		.ascii	"uint16_t\000"
 10425      31365F74 
 10425      00
 10426              	.LASF75:
 10427 3ded 43505553 		.ascii	"CPUSS_TRIM_RAM_CTL_HALF_ULP\000"
 10427      535F5452 
 10427      494D5F52 
 10427      414D5F43 
 10427      544C5F48 
 10428              	.LASF377:
 10429 3e09 70726F66 		.ascii	"profile_interrupt_IRQn\000"
 10429      696C655F 
 10429      696E7465 
 10429      72727570 
 10429      745F4952 
 10430              	.LASF643:
 10431 3e20 43595F42 		.ascii	"CY_BLE_GATT_ERR_INVALID_CRC\000"
 10431      4C455F47 
 10431      4154545F 
 10431      4552525F 
 10431      494E5641 
 10432              	.LASF881:
 10433 3e3c 6348616E 		.ascii	"cHandle\000"
 10433      646C6500 
 10434              	.LASF128:
 10435 3e44 52544F43 		.ascii	"RTOC2_FIRST_USER_APP_ADDR\000"
 10435      325F4649 
 10435      5253545F 
 10435      55534552 
 10435      5F415050 
 10436              	.LASF161:
 10437 3e5e 63707573 		.ascii	"cpussFlashPaSize\000"
 10437      73466C61 
 10437      73685061 
 10437      53697A65 
 10437      00
 10438              	.LASF836:
 10439 3e6f 67617070 		.ascii	"gappAdvParams\000"
 10439      41647650 
 10439      6172616D 
 10439      7300
 10440              	.LASF466:
ARM GAS  C:\Users\hkmnt\AppData\Local\Temp\ccBdSSuH.s 			page 260


 10441 3e7d 43595F42 		.ascii	"CY_BLE_EVT_GAP_RESOLVE_DEVICE_COMPLETE\000"
 10441      4C455F45 
 10441      56545F47 
 10441      41505F52 
 10441      45534F4C 
 10442              	.LASF298:
 10443 3ea4 63707573 		.ascii	"cpuss_interrupts_dw0_12_IRQn\000"
 10443      735F696E 
 10443      74657272 
 10443      75707473 
 10443      5F647730 
 10444              	.LASF864:
 10445 3ec1 63795F73 		.ascii	"cy_stc_ble_event_handler_t\000"
 10445      74635F62 
 10445      6C655F65 
 10445      76656E74 
 10445      5F68616E 
 10446              	.LASF62:
 10447 3edc 52455345 		.ascii	"RESERVED10\000"
 10447      52564544 
 10447      313000
 10448              	.LASF67:
 10449 3ee7 52455345 		.ascii	"RESERVED11\000"
 10449      52564544 
 10449      313100
 10450              	.LASF73:
 10451 3ef2 52455345 		.ascii	"RESERVED12\000"
 10451      52564544 
 10451      313200
 10452              	.LASF78:
 10453 3efd 52455345 		.ascii	"RESERVED13\000"
 10453      52564544 
 10453      313300
 10454              	.LASF85:
 10455 3f08 52455345 		.ascii	"RESERVED14\000"
 10455      52564544 
 10455      313400
 10456              	.LASF89:
 10457 3f13 52455345 		.ascii	"RESERVED15\000"
 10457      52564544 
 10457      313500
 10458              	.LASF409:
 10459 3f1e 43595F42 		.ascii	"CY_BLE_EVT_GET_PEER_RPA_COMPLETE\000"
 10459      4C455F45 
 10459      56545F47 
 10459      45545F50 
 10459      4545525F 
 10460              	.LASF108:
 10461 3f3f 52455345 		.ascii	"RESERVED17\000"
 10461      52564544 
 10461      313700
 10462              	.LASF120:
 10463 3f4a 52455345 		.ascii	"RESERVED18\000"
 10463      52564544 
 10463      313800
 10464              	.LASF134:
 10465 3f55 52455345 		.ascii	"RESERVED19\000"
ARM GAS  C:\Users\hkmnt\AppData\Local\Temp\ccBdSSuH.s 			page 261


 10465      52564544 
 10465      313900
 10466              	.LASF72:
 10467 3f60 43505553 		.ascii	"CPUSS_TRIM_RAM_CTL_LP\000"
 10467      535F5452 
 10467      494D5F52 
 10467      414D5F43 
 10467      544C5F4C 
 10468              	.LASF670:
 10469 3f76 746F7461 		.ascii	"totalAttrValueLength\000"
 10469      6C417474 
 10469      7256616C 
 10469      75654C65 
 10469      6E677468 
 10470              	.LASF730:
 10471 3f8b 43595F42 		.ascii	"CY_BLE_GAPP_CONNECTABLE_HIGH_DC_DIRECTED_ADV\000"
 10471      4C455F47 
 10471      4150505F 
 10471      434F4E4E 
 10471      45435441 
 10472              	.LASF278:
 10473 3fb8 7363625F 		.ascii	"scb_1_interrupt_IRQn\000"
 10473      315F696E 
 10473      74657272 
 10473      7570745F 
 10473      4952516E 
 10474              	.LASF770:
 10475 3fcd 63795F65 		.ascii	"cy_en_ble_conn_state_t\000"
 10475      6E5F626C 
 10475      655F636F 
 10475      6E6E5F73 
 10475      74617465 
 10476              	.LASF314:
 10477 3fe4 63707573 		.ascii	"cpuss_interrupts_dw1_12_IRQn\000"
 10477      735F696E 
 10477      74657272 
 10477      75707473 
 10477      5F647731 
 10478              	.LASF471:
 10479 4001 43595F42 		.ascii	"CY_BLE_EVT_GAP_ADV_TX\000"
 10479      4C455F45 
 10479      56545F47 
 10479      41505F41 
 10479      44565F54 
 10480              	.LASF80:
 10481 4017 464C4153 		.ascii	"FLASH_BOOT_APP_ID\000"
 10481      485F424F 
 10481      4F545F41 
 10481      50505F49 
 10481      4400
 10482              	.LASF93:
 10483 4029 544F4331 		.ascii	"TOC1_GENERAL_TRIM_ADDR_UNUSED\000"
 10483      5F47454E 
 10483      4552414C 
 10483      5F545249 
 10483      4D5F4144 
 10484              	.LASF760:
ARM GAS  C:\Users\hkmnt\AppData\Local\Temp\ccBdSSuH.s 			page 262


 10485 4047 43595F42 		.ascii	"CY_BLE_ADV_STATE_STOP_INITIATED\000"
 10485      4C455F41 
 10485      44565F53 
 10485      54415445 
 10485      5F53544F 
 10486              	.LASF907:
 10487 4067 63795F62 		.ascii	"cy_ble_eventHandler\000"
 10487      6C655F65 
 10487      76656E74 
 10487      48616E64 
 10487      6C657200 
 10488              	.LASF366:
 10489 407b 7564625F 		.ascii	"udb_interrupts_8_IRQn\000"
 10489      696E7465 
 10489      72727570 
 10489      74735F38 
 10489      5F495251 
 10490              	.LASF620:
 10491 4091 43595F42 		.ascii	"CY_BLE_GATT_ERR_INVALID_PDU\000"
 10491      4C455F47 
 10491      4154545F 
 10491      4552525F 
 10491      494E5641 
 10492              	.LASF816:
 10493 40ad 73657276 		.ascii	"serviceChangedHandle\000"
 10493      69636543 
 10493      68616E67 
 10493      65644861 
 10493      6E646C65 
 10494              	.LASF507:
 10495 40c2 43595F42 		.ascii	"CY_BLE_EVT_L2CAP_CBFC_DATA_WRITE_IND\000"
 10495      4C455F45 
 10495      56545F4C 
 10495      32434150 
 10495      5F434246 
 10496              	.LASF274:
 10497 40e7 63707573 		.ascii	"cpuss_interrupts_ipc_13_IRQn\000"
 10497      735F696E 
 10497      74657272 
 10497      75707473 
 10497      5F697063 
 10498              	.LASF153:
 10499 4104 6770696F 		.ascii	"gpioVersion\000"
 10499      56657273 
 10499      696F6E00 
 10500              	.LASF20:
 10501 4110 696E7433 		.ascii	"int32_t\000"
 10501      325F7400 
 10502              	.LASF833:
 10503 4118 67617474 		.ascii	"gattDbIndexCount\000"
 10503      4462496E 
 10503      64657843 
 10503      6F756E74 
 10503      00
 10504              	.LASF160:
 10505 4129 63707573 		.ascii	"cpussDwChNr\000"
 10505      73447743 
ARM GAS  C:\Users\hkmnt\AppData\Local\Temp\ccBdSSuH.s 			page 263


 10505      684E7200 
 10506              	.LASF220:
 10507 4135 63707573 		.ascii	"cpussRam0Ctl0\000"
 10507      7352616D 
 10507      3043746C 
 10507      3000
 10508              	.LASF626:
 10509 4143 43595F42 		.ascii	"CY_BLE_GATT_ERR_ATTRIBUTE_NOT_FOUND\000"
 10509      4C455F47 
 10509      4154545F 
 10509      4552525F 
 10509      41545452 
 10510              	.LASF322:
 10511 4167 63707573 		.ascii	"cpuss_interrupts_cm0_cti_0_IRQn\000"
 10511      735F696E 
 10511      74657272 
 10511      75707473 
 10511      5F636D30 
 10512              	.LASF306:
 10513 4187 63707573 		.ascii	"cpuss_interrupts_dw1_4_IRQn\000"
 10513      735F696E 
 10513      74657272 
 10513      75707473 
 10513      5F647731 
 10514              	.LASF90:
 10515 41a3 544F4331 		.ascii	"TOC1_OBJECT_SIZE\000"
 10515      5F4F424A 
 10515      4543545F 
 10515      53495A45 
 10515      00
 10516              	.LASF121:
 10517 41b4 544F4332 		.ascii	"TOC2_REVISION\000"
 10517      5F524556 
 10517      4953494F 
 10517      4E00
 10518              	.LASF318:
 10519 41c2 63707573 		.ascii	"cpuss_interrupts_fault_0_IRQn\000"
 10519      735F696E 
 10519      74657272 
 10519      75707473 
 10519      5F666175 
 10520              	.LASF580:
 10521 41e0 636F6E6E 		.ascii	"connHandle\000"
 10521      48616E64 
 10521      6C6500
 10522              	.LASF6:
 10523 41eb 5F5F696E 		.ascii	"__int16_t\000"
 10523      7431365F 
 10523      7400
 10524              	.LASF43:
 10525 41f5 4353505F 		.ascii	"CSP_PANEL_ID\000"
 10525      50414E45 
 10525      4C5F4944 
 10525      00
 10526              	.LASF889:
 10527 4202 636F6E6E 		.ascii	"connectedHandle\000"
 10527      65637465 
ARM GAS  C:\Users\hkmnt\AppData\Local\Temp\ccBdSSuH.s 			page 264


 10527      6448616E 
 10527      646C6500 
 10528              	.LASF628:
 10529 4212 43595F42 		.ascii	"CY_BLE_GATT_ERR_INSUFFICIENT_ENC_KEY_SIZE\000"
 10529      4C455F47 
 10529      4154545F 
 10529      4552525F 
 10529      494E5355 
 10530              	.LASF801:
 10531 423c 61637475 		.ascii	"actualLength\000"
 10531      616C4C65 
 10531      6E677468 
 10531      00
 10532              	.LASF463:
 10533 4249 43595F42 		.ascii	"CY_BLE_EVT_GAP_SMP_NEGOTIATED_AUTH_INFO\000"
 10533      4C455F45 
 10533      56545F47 
 10533      41505F53 
 10533      4D505F4E 
 10534              	.LASF102:
 10535 4271 52544F43 		.ascii	"RTOC1_FHASH_OBJECTS\000"
 10535      315F4648 
 10535      4153485F 
 10535      4F424A45 
 10535      43545300 
 10536              	.LASF871:
 10537 4285 6572725F 		.ascii	"err_param\000"
 10537      70617261 
 10537      6D00
 10538              	.LASF320:
 10539 428f 63707573 		.ascii	"cpuss_interrupt_crypto_IRQn\000"
 10539      735F696E 
 10539      74657272 
 10539      7570745F 
 10539      63727970 
 10540              	.LASF243:
 10541 42ab 696F7373 		.ascii	"ioss_interrupts_gpio_7_IRQn\000"
 10541      5F696E74 
 10541      65727275 
 10541      7074735F 
 10541      6770696F 
 10542              	.LASF645:
 10543 42c7 43595F42 		.ascii	"CY_BLE_GATTS_ERR_NETWORK_NOT_AVAILABLE\000"
 10543      4C455F47 
 10543      41545453 
 10543      5F455252 
 10543      5F4E4554 
 10544              	.LASF853:
 10545 42ee 43595F42 		.ascii	"CY_BLE_DIS_SERIAL_NUMBER\000"
 10545      4C455F44 
 10545      49535F53 
 10545      45524941 
 10545      4C5F4E55 
 10546              	.LASF852:
 10547 4307 43595F42 		.ascii	"CY_BLE_DIS_MODEL_NUMBER\000"
 10547      4C455F44 
 10547      49535F4D 
ARM GAS  C:\Users\hkmnt\AppData\Local\Temp\ccBdSSuH.s 			page 265


 10547      4F44454C 
 10547      5F4E554D 
 10548              	.LASF681:
 10549 431f 43595F42 		.ascii	"CY_BLE_GAP_AUTH_ERROR_OOB_DATA_NOT_AVAILABLE\000"
 10549      4C455F47 
 10549      41505F41 
 10549      5554485F 
 10549      4552524F 
 10550              	.LASF675:
 10551 434c 43595F42 		.ascii	"CY_BLE_GAP_IOCAP_KEYBOARD_ONLY\000"
 10551      4C455F47 
 10551      41505F49 
 10551      4F434150 
 10551      5F4B4559 
 10552              	.LASF196:
 10553 436b 70657269 		.ascii	"periDivCmdDivSelMsk\000"
 10553      44697643 
 10553      6D644469 
 10553      7653656C 
 10553      4D736B00 
 10554              	.LASF726:
 10555 437f 7363616E 		.ascii	"scanTo\000"
 10555      546F00
 10556              	.LASF914:
 10557 4386 43795F42 		.ascii	"Cy_BLE_SetTxPowerLevel\000"
 10557      4C455F53 
 10557      65745478 
 10557      506F7765 
 10557      724C6576 
 10558              	.LASF634:
 10559 439d 43595F42 		.ascii	"CY_BLE_GATT_ERR_HEART_RATE_CONTROL_POINT_NOT_SUPPOR"
 10559      4C455F47 
 10559      4154545F 
 10559      4552525F 
 10559      48454152 
 10560 43d0 54454400 		.ascii	"TED\000"
 10561              	.LASF734:
 10562 43d4 63795F65 		.ascii	"cy_en_ble_gapp_adv_t\000"
 10562      6E5F626C 
 10562      655F6761 
 10562      70705F61 
 10562      64765F74 
 10563              	.LASF630:
 10564 43e9 43595F42 		.ascii	"CY_BLE_GATT_ERR_UNLIKELY_ERROR\000"
 10564      4C455F47 
 10564      4154545F 
 10564      4552525F 
 10564      554E4C49 
 10565              	.LASF151:
 10566 4408 64775665 		.ascii	"dwVersion\000"
 10566      7273696F 
 10566      6E00
 10567              	.LASF482:
 10568 4412 43595F42 		.ascii	"CY_BLE_EVT_GATTC_READ_BLOB_RSP\000"
 10568      4C455F45 
 10568      56545F47 
 10568      41545443 
ARM GAS  C:\Users\hkmnt\AppData\Local\Temp\ccBdSSuH.s 			page 266


 10568      5F524541 
 10569              	.LASF375:
 10570 4431 61756469 		.ascii	"audioss_interrupt_i2s_IRQn\000"
 10570      6F73735F 
 10570      696E7465 
 10570      72727570 
 10570      745F6932 
 10571              	.LASF145:
 10572 444c 6770696F 		.ascii	"gpioBase\000"
 10572      42617365 
 10572      00
 10573              	.LASF872:
 10574 4455 61706952 		.ascii	"apiResult\000"
 10574      6573756C 
 10574      7400
 10575              	.LASF326:
 10576 445f 74637077 		.ascii	"tcpwm_0_interrupts_0_IRQn\000"
 10576      6D5F305F 
 10576      696E7465 
 10576      72727570 
 10576      74735F30 
 10577              	.LASF359:
 10578 4479 7564625F 		.ascii	"udb_interrupts_1_IRQn\000"
 10578      696E7465 
 10578      72727570 
 10578      74735F31 
 10578      5F495251 
 10579              	.LASF343:
 10580 448f 74637077 		.ascii	"tcpwm_1_interrupts_9_IRQn\000"
 10580      6D5F315F 
 10580      696E7465 
 10580      72727570 
 10580      74735F39 
 10581              	.LASF690:
 10582 44a9 43595F42 		.ascii	"CY_BLE_GAP_AUTH_ERROR_DHKEY_CHECK_FAILED\000"
 10582      4C455F47 
 10582      41505F41 
 10582      5554485F 
 10582      4552524F 
 10583              	.LASF174:
 10584 44d2 70726F74 		.ascii	"protBusMasterMask\000"
 10584      4275734D 
 10584      61737465 
 10584      724D6173 
 10584      6B00
 10585              	.LASF173:
 10586 44e4 73797350 		.ascii	"sysPmSimoPresent\000"
 10586      6D53696D 
 10586      6F507265 
 10586      73656E74 
 10586      00
 10587              	.LASF892:
 10588 44f5 6D747550 		.ascii	"mtuParam\000"
 10588      6172616D 
 10588      00
 10589              	.LASF508:
 10590 44fe 43595F42 		.ascii	"CY_BLE_EVT_MAX\000"
ARM GAS  C:\Users\hkmnt\AppData\Local\Temp\ccBdSSuH.s 			page 267


 10590      4C455F45 
 10590      56545F4D 
 10590      415800
 10591              	.LASF135:
 10592 450d 52544F43 		.ascii	"RTOC2_REVISION\000"
 10592      325F5245 
 10592      56495349 
 10592      4F4E00
 10593              	.LASF911:
 10594 451c 43795F42 		.ascii	"Cy_BLE_GATTS_ErrorRsp\000"
 10594      4C455F47 
 10594      41545453 
 10594      5F457272 
 10594      6F725273 
 10595              	.LASF267:
 10596 4532 63707573 		.ascii	"cpuss_interrupts_ipc_6_IRQn\000"
 10596      735F696E 
 10596      74657272 
 10596      75707473 
 10596      5F697063 
 10597              	.LASF707:
 10598 454e 70616972 		.ascii	"pairingProperties\000"
 10598      696E6750 
 10598      726F7065 
 10598      72746965 
 10598      7300
 10599              	.LASF893:
 10600 4560 63795F64 		.ascii	"cy_device\000"
 10600      65766963 
 10600      6500
 10601              	.LASF571:
 10602 456a 63795F73 		.ascii	"cy_stc_ble_conn_handle_t\000"
 10602      74635F62 
 10602      6C655F63 
 10602      6F6E6E5F 
 10602      68616E64 
 10603              	.LASF885:
 10604 4583 6C654D61 		.ascii	"leMask\000"
 10604      736B00
 10605              	.LASF233:
 10606 458a 44656275 		.ascii	"DebugMonitor_IRQn\000"
 10606      674D6F6E 
 10606      69746F72 
 10606      5F495251 
 10606      6E00
 10607              	.LASF451:
 10608 459c 43595F42 		.ascii	"CY_BLE_EVT_GAPP_ADVERTISEMENT_START_STOP\000"
 10608      4C455F45 
 10608      56545F47 
 10608      4150505F 
 10608      41445645 
 10609              	.LASF28:
 10610 45c5 43505553 		.ascii	"CPUSS_WOUNDING\000"
 10610      535F574F 
 10610      554E4449 
 10610      4E4700
 10611              	.LASF273:
ARM GAS  C:\Users\hkmnt\AppData\Local\Temp\ccBdSSuH.s 			page 268


 10612 45d4 63707573 		.ascii	"cpuss_interrupts_ipc_12_IRQn\000"
 10612      735F696E 
 10612      74657272 
 10612      75707473 
 10612      5F697063 
 10613              	.LASF764:
 10614 45f1 43595F42 		.ascii	"CY_BLE_CONN_STATE_CONNECTED\000"
 10614      4C455F43 
 10614      4F4E4E5F 
 10614      53544154 
 10614      455F434F 
 10615              	.LASF519:
 10616 460d 43595F42 		.ascii	"CY_BLE_ERROR_DEVICE_ALREADY_EXISTS\000"
 10616      4C455F45 
 10616      52524F52 
 10616      5F444556 
 10616      4943455F 
 10617              	.LASF283:
 10618 4630 7363625F 		.ascii	"scb_6_interrupt_IRQn\000"
 10618      365F696E 
 10618      74657272 
 10618      7570745F 
 10618      4952516E 
 10619              	.LASF802:
 10620 4645 61747447 		.ascii	"attGenericVal\000"
 10620      656E6572 
 10620      69635661 
 10620      6C00
 10621              	.LASF920:
 10622 4653 43795F42 		.ascii	"Cy_BLE_GAP_SetIoCap\000"
 10622      4C455F47 
 10622      41505F53 
 10622      6574496F 
 10622      43617000 
 10623              	.LASF495:
 10624 4667 43595F42 		.ascii	"CY_BLE_EVT_GATTS_READ_CHAR_VAL_ACCESS_REQ\000"
 10624      4C455F45 
 10624      56545F47 
 10624      41545453 
 10624      5F524541 
 10625              	.LASF401:
 10626 4691 43595F42 		.ascii	"CY_BLE_EVT_READ_AUTH_PAYLOAD_TO_COMPLETE\000"
 10626      4C455F45 
 10626      56545F52 
 10626      4541445F 
 10626      41555448 
 10627              	.LASF518:
 10628 46ba 43595F42 		.ascii	"CY_BLE_ERROR_NO_DEVICE_ENTITY\000"
 10628      4C455F45 
 10628      52524F52 
 10628      5F4E4F5F 
 10628      44455649 
 10629              	.LASF512:
 10630 46d8 43595F42 		.ascii	"CY_BLE_ERROR_INVALID_PARAMETER\000"
 10630      4C455F45 
 10630      52524F52 
 10630      5F494E56 
ARM GAS  C:\Users\hkmnt\AppData\Local\Temp\ccBdSSuH.s 			page 269


 10630      414C4944 
 10631              	.LASF213:
 10632 46f7 63707573 		.ascii	"cpussCm4PwrCtlOffset\000"
 10632      73436D34 
 10632      50777243 
 10632      746C4F66 
 10632      66736574 
 10633              	.LASF402:
 10634 470c 43595F42 		.ascii	"CY_BLE_EVT_GET_CHANNEL_MAP_COMPLETE\000"
 10634      4C455F45 
 10634      56545F47 
 10634      45545F43 
 10634      48414E4E 
 10635              	.LASF703:
 10636 4730 73656375 		.ascii	"security\000"
 10636      72697479 
 10636      00
 10637              	.LASF603:
 10638 4739 43595F42 		.ascii	"CY_BLE_GATT_WRITE_REQ\000"
 10638      4C455F47 
 10638      4154545F 
 10638      57524954 
 10638      455F5245 
 10639              	.LASF156:
 10640 474f 70657269 		.ascii	"periVersion\000"
 10640      56657273 
 10640      696F6E00 
 10641              	.LASF762:
 10642 475b 43595F42 		.ascii	"CY_BLE_CONN_STATE_DISCONNECTED\000"
 10642      4C455F43 
 10642      4F4E4E5F 
 10642      53544154 
 10642      455F4449 
 10643              	.LASF7:
 10644 477a 73686F72 		.ascii	"short int\000"
 10644      7420696E 
 10644      7400
 10645              	.LASF437:
 10646 4784 43595F42 		.ascii	"CY_BLE_EVT_STACK_SHUTDOWN_COMPLETE\000"
 10646      4C455F45 
 10646      56545F53 
 10646      5441434B 
 10646      5F534855 
 10647              	.LASF662:
 10648 47a7 68616E64 		.ascii	"handleValPair\000"
 10648      6C655661 
 10648      6C506169 
 10648      7200
 10649              	.LASF428:
 10650 47b5 43595F42 		.ascii	"CY_BLE_EVT_GET_TX_PWR_COMPLETE\000"
 10650      4C455F45 
 10650      56545F47 
 10650      45545F54 
 10650      585F5057 
 10651              	.LASF867:
 10652 47d4 43795F42 		.ascii	"Cy_BLE_SetConnectionState\000"
 10652      4C455F53 
ARM GAS  C:\Users\hkmnt\AppData\Local\Temp\ccBdSSuH.s 			page 270


 10652      6574436F 
 10652      6E6E6563 
 10652      74696F6E 
 10653              	.LASF805:
 10654 47ee 61747447 		.ascii	"attGenericValLen\000"
 10654      656E6572 
 10654      69635661 
 10654      6C4C656E 
 10654      00
 10655              	.LASF91:
 10656 47ff 544F4331 		.ascii	"TOC1_MAGIC_NUMBER\000"
 10656      5F4D4147 
 10656      49435F4E 
 10656      554D4245 
 10656      5200
 10657              	.LASF253:
 10658 4811 6C70636F 		.ascii	"lpcomp_interrupt_IRQn\000"
 10658      6D705F69 
 10658      6E746572 
 10658      72757074 
 10658      5F495251 
 10659              	.LASF40:
 10660 4827 5341525F 		.ascii	"SAR_TEMP_MULTIPLIER\000"
 10660      54454D50 
 10660      5F4D554C 
 10660      5449504C 
 10660      49455200 
 10661              	.LASF790:
 10662 483b 736C6F77 		.ascii	"slowScanInterval\000"
 10662      5363616E 
 10662      496E7465 
 10662      7276616C 
 10662      00
 10663              	.LASF100:
 10664 484c 52544F43 		.ascii	"RTOC1_OBJECT_SIZE\000"
 10664      315F4F42 
 10664      4A454354 
 10664      5F53495A 
 10664      4500
 10665              	.LASF747:
 10666 485e 7363616E 		.ascii	"scanRspDataLen\000"
 10666      52737044 
 10666      6174614C 
 10666      656E00
 10667              	.LASF728:
 10668 486d 63795F73 		.ascii	"cy_stc_ble_gapc_disc_info_t\000"
 10668      74635F62 
 10668      6C655F67 
 10668      6170635F 
 10668      64697363 
 10669              	.LASF18:
 10670 4889 696E7431 		.ascii	"int16_t\000"
 10670      365F7400 
 10671              	.LASF642:
 10672 4891 43595F42 		.ascii	"CY_BLE_GATTS_ERR_OPERATION_FAILED\000"
 10672      4C455F47 
 10672      41545453 
ARM GAS  C:\Users\hkmnt\AppData\Local\Temp\ccBdSSuH.s 			page 271


 10672      5F455252 
 10672      5F4F5045 
 10673              	.LASF55:
 10674 48b3 5354414E 		.ascii	"STANDARD_SMPU_STRUCT_SLAVE_ADDR\000"
 10674      44415244 
 10674      5F534D50 
 10674      555F5354 
 10674      52554354 
 10675              	.LASF269:
 10676 48d3 63707573 		.ascii	"cpuss_interrupts_ipc_8_IRQn\000"
 10676      735F696E 
 10676      74657272 
 10676      75707473 
 10676      5F697063 
 10677              	.LASF182:
 10678 48ef 666C6173 		.ascii	"flashCtlMainWs1Freq\000"
 10678      6843746C 
 10678      4D61696E 
 10678      57733146 
 10678      72657100 
 10679              	.LASF245:
 10680 4903 696F7373 		.ascii	"ioss_interrupts_gpio_9_IRQn\000"
 10680      5F696E74 
 10680      65727275 
 10680      7074735F 
 10680      6770696F 
 10681              	.LASF661:
 10682 491f 63795F73 		.ascii	"cy_stc_ble_gatt_xchg_mtu_param_t\000"
 10682      74635F62 
 10682      6C655F67 
 10682      6174745F 
 10682      78636867 
 10683              	.LASF117:
 10684 4940 544F4332 		.ascii	"TOC2_SECOND_USER_APP_FORMAT\000"
 10684      5F534543 
 10684      4F4E445F 
 10684      55534552 
 10684      5F415050 
 10685              	.LASF325:
 10686 495c 63707573 		.ascii	"cpuss_interrupts_cm4_cti_1_IRQn\000"
 10686      735F696E 
 10686      74657272 
 10686      75707473 
 10686      5F636D34 
 10687              	.LASF57:
 10688 497c 5354414E 		.ascii	"STANDARD_SMPU_STRUCT_MASTER_ATTR\000"
 10688      44415244 
 10688      5F534D50 
 10688      555F5354 
 10688      52554354 
 10689              	.LASF129:
 10690 499d 52544F43 		.ascii	"RTOC2_FIRST_USER_APP_FORMAT\000"
 10690      325F4649 
 10690      5253545F 
 10690      55534552 
 10690      5F415050 
 10691              	.LASF101:
ARM GAS  C:\Users\hkmnt\AppData\Local\Temp\ccBdSSuH.s 			page 272


 10692 49b9 52544F43 		.ascii	"RTOC1_MAGIC_NUMBER\000"
 10692      315F4D41 
 10692      4749435F 
 10692      4E554D42 
 10692      455200
 10693              	.LASF544:
 10694 49cc 6C6F6275 		.ascii	"lobuffTable\000"
 10694      66665461 
 10694      626C6500 
 10695              	.LASF847:
 10696 49d8 64657669 		.ascii	"deviceAddress\000"
 10696      63654164 
 10696      64726573 
 10696      7300
 10697              	.LASF493:
 10698 49e6 43595F42 		.ascii	"CY_BLE_EVT_GATTS_DATA_SIGNED_CMD_REQ\000"
 10698      4C455F45 
 10698      56545F47 
 10698      41545453 
 10698      5F444154 
 10699              	.LASF840:
 10700 4a0b 67617474 		.ascii	"gatts\000"
 10700      7300
 10701              	.LASF452:
 10702 4a11 43595F42 		.ascii	"CY_BLE_EVT_GAP_DEVICE_CONNECTED\000"
 10702      4C455F45 
 10702      56545F47 
 10702      41505F44 
 10702      45564943 
 10703              	.LASF439:
 10704 4a31 43595F42 		.ascii	"CY_BLE_EVT_RADIO_VOLTAGE_LEVEL\000"
 10704      4C455F45 
 10704      56545F52 
 10704      4144494F 
 10704      5F564F4C 
 10705              	.LASF797:
 10706 4a50 63795F73 		.ascii	"cy_stc_ble_gapc_scan_params_t\000"
 10706      74635F62 
 10706      6C655F67 
 10706      6170635F 
 10706      7363616E 
 10707              	.LASF901:
 10708 4a6e 63795F62 		.ascii	"cy_ble_connState\000"
 10708      6C655F63 
 10708      6F6E6E53 
 10708      74617465 
 10708      00
 10709              	.LASF246:
 10710 4a7f 696F7373 		.ascii	"ioss_interrupts_gpio_10_IRQn\000"
 10710      5F696E74 
 10710      65727275 
 10710      7074735F 
 10710      6770696F 
 10711              	.LASF825:
 10712 4a9c 63636364 		.ascii	"cccdCount\000"
 10712      436F756E 
 10712      7400
ARM GAS  C:\Users\hkmnt\AppData\Local\Temp\ccBdSSuH.s 			page 273


 10713              	.LASF431:
 10714 4aa6 43595F42 		.ascii	"CY_BLE_EVT_SET_CLK_CONFIG_COMPLETE\000"
 10714      4C455F45 
 10714      56545F53 
 10714      45545F43 
 10714      4C4B5F43 
 10715              	.LASF177:
 10716 4ac9 666C6173 		.ascii	"flashPipeRequired\000"
 10716      68506970 
 10716      65526571 
 10716      75697265 
 10716      6400
 10717              	.LASF521:
 10718 4adb 43595F42 		.ascii	"CY_BLE_ERROR_GAP_ROLE\000"
 10718      4C455F45 
 10718      52524F52 
 10718      5F474150 
 10718      5F524F4C 
 10719              	.LASF410:
 10720 4af1 43595F42 		.ascii	"CY_BLE_EVT_GET_LOCAL_RPA_COMPLETE\000"
 10720      4C455F45 
 10720      56545F47 
 10720      45545F4C 
 10720      4F43414C 
 10721              	.LASF315:
 10722 4b13 63707573 		.ascii	"cpuss_interrupts_dw1_13_IRQn\000"
 10722      735F696E 
 10722      74657272 
 10722      75707473 
 10722      5F647731 
 10723              	.LASF775:
 10724 4b30 63656E74 		.ascii	"centralAddrResolutionCharHandle\000"
 10724      72616C41 
 10724      64647252 
 10724      65736F6C 
 10724      7574696F 
 10725              	.LASF549:
 10726 4b50 63795F73 		.ascii	"cy_stc_ble_mxd_pa_cal_param_t\000"
 10726      74635F62 
 10726      6C655F6D 
 10726      78645F70 
 10726      615F6361 
 10727              	.LASF541:
 10728 4b6e 62644164 		.ascii	"bdAddr\000"
 10728      647200
 10729              	.LASF76:
 10730 4b75 43505553 		.ascii	"CPUSS_TRIM_ROM_CTL_HALF_LP\000"
 10730      535F5452 
 10730      494D5F52 
 10730      4F4D5F43 
 10730      544C5F48 
 10731              	.LASF449:
 10732 4b90 43595F42 		.ascii	"CY_BLE_EVT_GAP_AUTH_COMPLETE\000"
 10732      4C455F45 
 10732      56545F47 
 10732      41505F41 
 10732      5554485F 
ARM GAS  C:\Users\hkmnt\AppData\Local\Temp\ccBdSSuH.s 			page 274


 10733              	.LASF208:
 10734 4bad 6770696F 		.ascii	"gpioPrtCfgSioOffset\000"
 10734      50727443 
 10734      66675369 
 10734      6F4F6666 
 10734      73657400 
 10735              	.LASF385:
 10736 4bc1 53464C41 		.ascii	"SFLASH_Type\000"
 10736      53485F54 
 10736      79706500 
 10737              	.LASF821:
 10738 4bcd 63795F62 		.ascii	"cy_ble_callback_t\000"
 10738      6C655F63 
 10738      616C6C62 
 10738      61636B5F 
 10738      7400
 10739              	.LASF533:
 10740 4bdf 43595F42 		.ascii	"CY_BLE_ERROR_GATT_DB_INVALID_ATTR_HANDLE\000"
 10740      4C455F45 
 10740      52524F52 
 10740      5F474154 
 10740      545F4442 
 10741              	.LASF778:
 10742 4c08 66617374 		.ascii	"fastAdvIntervalMin\000"
 10742      41647649 
 10742      6E746572 
 10742      76616C4D 
 10742      696E00
 10743              	.LASF301:
 10744 4c1b 63707573 		.ascii	"cpuss_interrupts_dw0_15_IRQn\000"
 10744      735F696E 
 10744      74657272 
 10744      75707473 
 10744      5F647730 
 10745              	.LASF593:
 10746 4c38 43595F42 		.ascii	"CY_BLE_GATT_READ_BY_TYPE_REQ\000"
 10746      4C455F47 
 10746      4154545F 
 10746      52454144 
 10746      5F42595F 
 10747              	.LASF262:
 10748 4c55 63707573 		.ascii	"cpuss_interrupts_ipc_1_IRQn\000"
 10748      735F696E 
 10748      74657272 
 10748      75707473 
 10748      5F697063 
 10749              	.LASF330:
 10750 4c71 74637077 		.ascii	"tcpwm_0_interrupts_4_IRQn\000"
 10750      6D5F305F 
 10750      696E7465 
 10750      72727570 
 10750      74735F34 
 10751              	.LASF557:
 10752 4c8b 43595F42 		.ascii	"CY_BLE_LL_ADV_CH_TYPE\000"
 10752      4C455F4C 
 10752      4C5F4144 
 10752      565F4348 
ARM GAS  C:\Users\hkmnt\AppData\Local\Temp\ccBdSSuH.s 			page 275


 10752      5F545950 
 10753              	.LASF238:
 10754 4ca1 696F7373 		.ascii	"ioss_interrupts_gpio_2_IRQn\000"
 10754      5F696E74 
 10754      65727275 
 10754      7074735F 
 10754      6770696F 
 10755              	.LASF786:
 10756 4cbd 66617374 		.ascii	"fastScanInterval\000"
 10756      5363616E 
 10756      496E7465 
 10756      7276616C 
 10756      00
 10757              	.LASF352:
 10758 4cce 74637077 		.ascii	"tcpwm_1_interrupts_18_IRQn\000"
 10758      6D5F315F 
 10758      696E7465 
 10758      72727570 
 10758      74735F31 
 10759              	.LASF653:
 10760 4ce9 43595F42 		.ascii	"CY_BLE_GATT_ERR_OUT_OF_RANGE\000"
 10760      4C455F47 
 10760      4154545F 
 10760      4552525F 
 10760      4F55545F 
 10761              	.LASF905:
 10762 4d06 63795F62 		.ascii	"cy_ble_stackMemoryRam\000"
 10762      6C655F73 
 10762      7461636B 
 10762      4D656D6F 
 10762      72795261 
 10763              	.LASF695:
 10764 4d1c 43595F42 		.ascii	"CY_BLE_GAP_AUTH_ERROR_LINK_DISCONNECTED\000"
 10764      4C455F47 
 10764      41505F41 
 10764      5554485F 
 10764      4552524F 
 10765              	.LASF280:
 10766 4d44 7363625F 		.ascii	"scb_3_interrupt_IRQn\000"
 10766      335F696E 
 10766      74657272 
 10766      7570745F 
 10766      4952516E 
 10767              	.LASF408:
 10768 4d59 43595F42 		.ascii	"CY_BLE_EVT_DATA_LENGTH_CHANGE\000"
 10768      4C455F45 
 10768      56545F44 
 10768      4154415F 
 10768      4C454E47 
 10769              	.LASF791:
 10770 4d77 736C6F77 		.ascii	"slowScanWindow\000"
 10770      5363616E 
 10770      57696E64 
 10770      6F7700
 10771              	.LASF784:
 10772 4d86 736C6F77 		.ascii	"slowAdvTimeOut\000"
 10772      41647654 
ARM GAS  C:\Users\hkmnt\AppData\Local\Temp\ccBdSSuH.s 			page 276


 10772      696D654F 
 10772      757400
 10773              	.LASF908:
 10774 4d95 63795F62 		.ascii	"cy_ble_busyStatus\000"
 10774      6C655F62 
 10774      75737953 
 10774      74617475 
 10774      7300
 10775              	.LASF126:
 10776 4da7 52544F43 		.ascii	"RTOC2_KEY_BLOCK_ADDR\000"
 10776      325F4B45 
 10776      595F424C 
 10776      4F434B5F 
 10776      41444452 
 10777              	.LASF368:
 10778 4dbc 7564625F 		.ascii	"udb_interrupts_10_IRQn\000"
 10778      696E7465 
 10778      72727570 
 10778      74735F31 
 10778      305F4952 
 10779              	.LASF252:
 10780 4dd3 696F7373 		.ascii	"ioss_interrupt_vdd_IRQn\000"
 10780      5F696E74 
 10780      65727275 
 10780      70745F76 
 10780      64645F49 
 10781              	.LASF804:
 10782 4deb 6D617841 		.ascii	"maxAttrLength\000"
 10782      7474724C 
 10782      656E6774 
 10782      6800
 10783              	.LASF14:
 10784 4df9 6C6F6E67 		.ascii	"long long unsigned int\000"
 10784      206C6F6E 
 10784      6720756E 
 10784      7369676E 
 10784      65642069 
 10785              	.LASF876:
 10786 4e10 6576656E 		.ascii	"eventCode\000"
 10786      74436F64 
 10786      6500
 10787              	.LASF68:
 10788 4e1a 52414449 		.ascii	"RADIO_LDO_TRIMS\000"
 10788      4F5F4C44 
 10788      4F5F5452 
 10788      494D5300 
 10789              	.LASF562:
 10790 4e2a 43595F42 		.ascii	"CY_BLE_GAP_SCAN_TO\000"
 10790      4C455F47 
 10790      41505F53 
 10790      43414E5F 
 10790      544F00
 10791              	.LASF433:
 10792 4e3d 43595F42 		.ascii	"CY_BLE_EVT_AES_ENCRYPT_COMPLETE\000"
 10792      4C455F45 
 10792      56545F41 
 10792      45535F45 
ARM GAS  C:\Users\hkmnt\AppData\Local\Temp\ccBdSSuH.s 			page 277


 10792      4E435259 
 10793              	.LASF551:
 10794 4e5d 43595F42 		.ascii	"CY_BLE_LL_PWR_LVL_NEG_16_DBM\000"
 10794      4C455F4C 
 10794      4C5F5057 
 10794      525F4C56 
 10794      4C5F4E45 
 10795              	.LASF21:
 10796 4e7a 75696E74 		.ascii	"uint32_t\000"
 10796      33325F74 
 10796      00
 10797              	.LASF525:
 10798 4e83 43595F42 		.ascii	"CY_BLE_ERROR_L2CAP_PSM_NOT_REGISTERED\000"
 10798      4C455F45 
 10798      52524F52 
 10798      5F4C3243 
 10798      41505F50 
 10799              	.LASF710:
 10800 4ea9 636F6E6E 		.ascii	"connLatency\000"
 10800      4C617465 
 10800      6E637900 
 10801              	.LASF792:
 10802 4eb5 736C6F77 		.ascii	"slowScanTimeOut\000"
 10802      5363616E 
 10802      54696D65 
 10802      4F757400 
 10803              	.LASF886:
 10804 4ec5 626C6553 		.ascii	"bleSsPowerLevel\000"
 10804      73506F77 
 10804      65724C65 
 10804      76656C00 
 10805              	.LASF34:
 10806 4ed5 4449455F 		.ascii	"DIE_SORT\000"
 10806      534F5254 
 10806      00
 10807              	.LASF873:
 10808 4ede 65786973 		.ascii	"existFlag\000"
 10808      74466C61 
 10808      6700
 10809              	.LASF798:
 10810 4ee8 63795F73 		.ascii	"cy_stc_ble_gatts_write_cmd_req_param_t\000"
 10810      74635F62 
 10810      6C655F67 
 10810      61747473 
 10810      5F777269 
 10811              	.LASF838:
 10812 4f0f 67617063 		.ascii	"gapcScanParams\000"
 10812      5363616E 
 10812      50617261 
 10812      6D7300
 10813              	.LASF559:
 10814 4f1e 43595F42 		.ascii	"CY_BLE_LL_MAX_CH_TYPE\000"
 10814      4C455F4C 
 10814      4C5F4D41 
 10814      585F4348 
 10814      5F545950 
 10815              	.LASF309:
ARM GAS  C:\Users\hkmnt\AppData\Local\Temp\ccBdSSuH.s 			page 278


 10816 4f34 63707573 		.ascii	"cpuss_interrupts_dw1_7_IRQn\000"
 10816      735F696E 
 10816      74657272 
 10816      75707473 
 10816      5F647731 
 10817              	.LASF66:
 10818 4f50 5057525F 		.ascii	"PWR_TRIM_WAKE_CTL\000"
 10818      5452494D 
 10818      5F57414B 
 10818      455F4354 
 10818      4C00
 10819              	.LASF379:
 10820 4f62 7573625F 		.ascii	"usb_interrupt_hi_IRQn\000"
 10820      696E7465 
 10820      72727570 
 10820      745F6869 
 10820      5F495251 
 10821              	.LASF831:
 10822 4f78 73656375 		.ascii	"securityPairingMethod\000"
 10822      72697479 
 10822      50616972 
 10822      696E674D 
 10822      6574686F 
 10823              	.LASF857:
 10824 4f8e 43595F42 		.ascii	"CY_BLE_DIS_SYSTEM_ID\000"
 10824      4C455F44 
 10824      49535F53 
 10824      59535445 
 10824      4D5F4944 
 10825              	.LASF649:
 10826 4fa3 43595F42 		.ascii	"CY_BLE_GATT_ERR_ANCS_INVALID_PARAMETER\000"
 10826      4C455F47 
 10826      4154545F 
 10826      4552525F 
 10826      414E4353 
 10827              	.LASF851:
 10828 4fca 43595F42 		.ascii	"CY_BLE_DIS_MANUFACTURER_NAME\000"
 10828      4C455F44 
 10828      49535F4D 
 10828      414E5546 
 10828      41435455 
 10829              	.LASF869:
 10830 4fe7 67617474 		.ascii	"gattErr\000"
 10830      45727200 
 10831              	.LASF345:
 10832 4fef 74637077 		.ascii	"tcpwm_1_interrupts_11_IRQn\000"
 10832      6D5F315F 
 10832      696E7465 
 10832      72727570 
 10832      74735F31 
 10833              	.LASF147:
 10834 500a 69706342 		.ascii	"ipcBase\000"
 10834      61736500 
 10835              	.LASF362:
 10836 5012 7564625F 		.ascii	"udb_interrupts_4_IRQn\000"
 10836      696E7465 
 10836      72727570 
ARM GAS  C:\Users\hkmnt\AppData\Local\Temp\ccBdSSuH.s 			page 279


 10836      74735F34 
 10836      5F495251 
 10837              	.LASF602:
 10838 5028 43595F42 		.ascii	"CY_BLE_GATT_READ_BY_GROUP_RSP\000"
 10838      4C455F47 
 10838      4154545F 
 10838      52454144 
 10838      5F42595F 
 10839              	.LASF211:
 10840 5046 63707573 		.ascii	"cpussCm4StatusOffset\000"
 10840      73436D34 
 10840      53746174 
 10840      75734F66 
 10840      66736574 
 10841              	.LASF636:
 10842 505b 43595F42 		.ascii	"CY_BLE_GATT_ERR_CPS_INAPPROPRIATE_CONNECTION_PARAME"
 10842      4C455F47 
 10842      4154545F 
 10842      4552525F 
 10842      4350535F 
 10843 508e 54455253 		.ascii	"TERS\000"
 10843      00
 10844              	.LASF189:
 10845 5093 64774368 		.ascii	"dwChCtlPreemptablePos\000"
 10845      43746C50 
 10845      7265656D 
 10845      70746162 
 10845      6C65506F 
 10846              	.LASF709:
 10847 50a9 636F6E6E 		.ascii	"connIntv\000"
 10847      496E7476 
 10847      00
 10848              	.LASF922:
 10849 50b2 43795F42 		.ascii	"Cy_BLE_UnregisterHostPMCallbacks\000"
 10849      4C455F55 
 10849      6E726567 
 10849      69737465 
 10849      72486F73 
 10850              	.LASF113:
 10851 50d3 544F4332 		.ascii	"TOC2_SMIF_CFG_STRUCT_ADDR\000"
 10851      5F534D49 
 10851      465F4346 
 10851      475F5354 
 10851      52554354 
 10852              	.LASF458:
 10853 50ed 43595F42 		.ascii	"CY_BLE_EVT_GAP_NUMERIC_COMPARISON_REQUEST\000"
 10853      4C455F45 
 10853      56545F47 
 10853      41505F4E 
 10853      554D4552 
 10854              	.LASF795:
 10855 5117 67617063 		.ascii	"gapcConnectionSlaveLatency\000"
 10855      436F6E6E 
 10855      65637469 
 10855      6F6E536C 
 10855      6176654C 
 10856              	.LASF820:
ARM GAS  C:\Users\hkmnt\AppData\Local\Temp\ccBdSSuH.s 			page 280


 10857 5132 63795F73 		.ascii	"cy_stc_ble_l2cap_state_info_t\000"
 10857      74635F62 
 10857      6C655F6C 
 10857      32636170 
 10857      5F737461 
 10858              	.LASF380:
 10859 5150 7573625F 		.ascii	"usb_interrupt_med_IRQn\000"
 10859      696E7465 
 10859      72727570 
 10859      745F6D65 
 10859      645F4952 
 10860              	.LASF793:
 10861 5167 67617063 		.ascii	"gapcConnectionIntervalMin\000"
 10861      436F6E6E 
 10861      65637469 
 10861      6F6E496E 
 10861      74657276 
 10862              	.LASF287:
 10863 5181 63707573 		.ascii	"cpuss_interrupts_dw0_1_IRQn\000"
 10863      735F696E 
 10863      74657272 
 10863      75707473 
 10863      5F647730 
 10864              	.LASF468:
 10865 519d 43595F42 		.ascii	"CY_BLE_EVT_GAP_CREATE_CONN_CANCEL_COMPLETE\000"
 10865      4C455F45 
 10865      56545F47 
 10865      41505F43 
 10865      52454154 
 10866              	.LASF453:
 10867 51c8 43595F42 		.ascii	"CY_BLE_EVT_GAP_DEVICE_DISCONNECTED\000"
 10867      4C455F45 
 10867      56545F47 
 10867      41505F44 
 10867      45564943 
 10868              	.LASF510:
 10869 51eb 43595F42 		.ascii	"CY_BLE_SUCCESS\000"
 10869      4C455F53 
 10869      55434345 
 10869      535300
 10870              	.LASF739:
 10871 51fa 64697265 		.ascii	"directAddr\000"
 10871      63744164 
 10871      647200
 10872              	.LASF131:
 10873 5205 52544F43 		.ascii	"RTOC2_SECOND_USER_APP_FORMAT\000"
 10873      325F5345 
 10873      434F4E44 
 10873      5F555345 
 10873      525F4150 
 10874              	.LASF438:
 10875 5222 43595F42 		.ascii	"CY_BLE_EVT_RADIO_TEMPERATURE\000"
 10875      4C455F45 
 10875      56545F52 
 10875      4144494F 
 10875      5F54454D 
 10876              	.LASF261:
ARM GAS  C:\Users\hkmnt\AppData\Local\Temp\ccBdSSuH.s 			page 281


 10877 523f 63707573 		.ascii	"cpuss_interrupts_ipc_0_IRQn\000"
 10877      735F696E 
 10877      74657272 
 10877      75707473 
 10877      5F697063 
 10878              	.LASF329:
 10879 525b 74637077 		.ascii	"tcpwm_0_interrupts_3_IRQn\000"
 10879      6D5F305F 
 10879      696E7465 
 10879      72727570 
 10879      74735F33 
 10880              	.LASF470:
 10881 5275 43595F42 		.ascii	"CY_BLE_EVT_GAPP_UPDATE_ADV_SCAN_DATA_COMPLETE\000"
 10881      4C455F45 
 10881      56545F47 
 10881      4150505F 
 10881      55504441 
 10882              	.LASF237:
 10883 52a3 696F7373 		.ascii	"ioss_interrupts_gpio_1_IRQn\000"
 10883      5F696E74 
 10883      65727275 
 10883      7074735F 
 10883      6770696F 
 10884              	.LASF450:
 10885 52bf 43595F42 		.ascii	"CY_BLE_EVT_GAP_AUTH_FAILED\000"
 10885      4C455F45 
 10885      56545F47 
 10885      41505F41 
 10885      5554485F 
 10886              	.LASF656:
 10887 52da 61637475 		.ascii	"actualLen\000"
 10887      616C4C65 
 10887      6E00
 10888              	.LASF98:
 10889 52e4 52455345 		.ascii	"RESERVED16\000"
 10889      52564544 
 10889      313600
 10890              	.LASF648:
 10891 52ef 43595F42 		.ascii	"CY_BLE_GATT_ERR_ANCS_INVALID_COMMAND\000"
 10891      4C455F47 
 10891      4154545F 
 10891      4552525F 
 10891      414E4353 
 10892              	.LASF740:
 10893 5314 61647643 		.ascii	"advChannelMap\000"
 10893      68616E6E 
 10893      656C4D61 
 10893      7000
 10894              	.LASF817:
 10895 5322 63636364 		.ascii	"cccdHandle\000"
 10895      48616E64 
 10895      6C6500
 10896              	.LASF398:
 10897 532d 43595F42 		.ascii	"CY_BLE_EVT_FLASH_CORRUPT\000"
 10897      4C455F45 
 10897      56545F46 
 10897      4C415348 
ARM GAS  C:\Users\hkmnt\AppData\Local\Temp\ccBdSSuH.s 			page 282


 10897      5F434F52 
 10898              	.LASF294:
 10899 5346 63707573 		.ascii	"cpuss_interrupts_dw0_8_IRQn\000"
 10899      735F696E 
 10899      74657272 
 10899      75707473 
 10899      5F647730 
 10900              	.LASF192:
 10901 5362 70657269 		.ascii	"periTrCmdOffset\000"
 10901      5472436D 
 10901      644F6666 
 10901      73657400 
 10902              	.LASF10:
 10903 5372 5F5F696E 		.ascii	"__int32_t\000"
 10903      7433325F 
 10903      7400
 10904              	.LASF665:
 10905 537c 6572726F 		.ascii	"errorCode\000"
 10905      72436F64 
 10905      6500
 10906              	.LASF543:
 10907 5386 63795F73 		.ascii	"cy_stc_ble_bd_addr_t\000"
 10907      74635F62 
 10907      6C655F62 
 10907      645F6164 
 10907      64725F74 
 10908              	.LASF97:
 10909 539b 544F4331 		.ascii	"TOC1_OBJECT_ADDR_UNUSED\000"
 10909      5F4F424A 
 10909      4543545F 
 10909      41444452 
 10909      5F554E55 
 10910              	.LASF302:
 10911 53b3 63707573 		.ascii	"cpuss_interrupts_dw1_0_IRQn\000"
 10911      735F696E 
 10911      74657272 
 10911      75707473 
 10911      5F647731 
 10912              	.LASF668:
 10913 53cf 63795F73 		.ascii	"cy_stc_ble_gatt_err_param_t\000"
 10913      74635F62 
 10913      6C655F67 
 10913      6174745F 
 10913      6572725F 
 10914              	.LASF781:
 10915 53eb 736C6F77 		.ascii	"slowAdvEnable\000"
 10915      41647645 
 10915      6E61626C 
 10915      6500
 10916              	.LASF570:
 10917 53f9 61747449 		.ascii	"attId\000"
 10917      6400
 10918              	.LASF509:
 10919 53ff 63795F65 		.ascii	"cy_en_ble_event_t\000"
 10919      6E5F626C 
 10919      655F6576 
 10919      656E745F 
ARM GAS  C:\Users\hkmnt\AppData\Local\Temp\ccBdSSuH.s 			page 283


 10919      7400
 10920              	.LASF725:
 10921 5411 7363616E 		.ascii	"scanFilterPolicy\000"
 10921      46696C74 
 10921      6572506F 
 10921      6C696379 
 10921      00
 10922              	.LASF685:
 10923 5422 43595F42 		.ascii	"CY_BLE_GAP_AUTH_ERROR_INSUFFICIENT_ENCRYPTION_KEY_S"
 10923      4C455F47 
 10923      41505F41 
 10923      5554485F 
 10923      4552524F 
 10924 5455 495A4500 		.ascii	"IZE\000"
 10925              	.LASF331:
 10926 5459 74637077 		.ascii	"tcpwm_0_interrupts_5_IRQn\000"
 10926      6D5F305F 
 10926      696E7465 
 10926      72727570 
 10926      74735F35 
 10927              	.LASF150:
 10928 5473 63727970 		.ascii	"cryptoVersion\000"
 10928      746F5665 
 10928      7273696F 
 10928      6E00
 10929              	.LASF803:
 10930 5481 63795F73 		.ascii	"cy_stc_ble_gatts_att_gen_val_len_t\000"
 10930      74635F62 
 10930      6C655F67 
 10930      61747473 
 10930      5F617474 
 10931              	.LASF918:
 10932 54a4 43795F42 		.ascii	"Cy_BLE_GAP_SetBdAddress\000"
 10932      4C455F47 
 10932      41505F53 
 10932      65744264 
 10932      41646472 
 10933              	.LASF254:
 10934 54bc 7363625F 		.ascii	"scb_8_interrupt_IRQn\000"
 10934      385F696E 
 10934      74657272 
 10934      7570745F 
 10934      4952516E 
 10935              	.LASF92:
 10936 54d1 544F4331 		.ascii	"TOC1_FHASH_OBJECTS\000"
 10936      5F464841 
 10936      53485F4F 
 10936      424A4543 
 10936      545300
 10937              	.LASF862:
 10938 54e4 73657276 		.ascii	"serviceEventHandler\000"
 10938      69636545 
 10938      76656E74 
 10938      48616E64 
 10938      6C657200 
 10939              	.LASF228:
 10940 54f8 48617264 		.ascii	"HardFault_IRQn\000"
ARM GAS  C:\Users\hkmnt\AppData\Local\Temp\ccBdSSuH.s 			page 284


 10940      4661756C 
 10940      745F4952 
 10940      516E00
 10941              	.LASF848:
 10942 5507 626C6573 		.ascii	"blessIsrConfig\000"
 10942      73497372 
 10942      436F6E66 
 10942      696700
 10943              	.LASF429:
 10944 5516 43595F42 		.ascii	"CY_BLE_EVT_SET_TX_PWR_COMPLETE\000"
 10944      4C455F45 
 10944      56545F53 
 10944      45545F54 
 10944      585F5057 
 10945              	.LASF800:
 10946 5535 63795F73 		.ascii	"cy_stc_ble_gatts_char_val_read_req_t\000"
 10946      74635F62 
 10946      6C655F67 
 10946      61747473 
 10946      5F636861 
 10947              	.LASF32:
 10948 555a 4449455F 		.ascii	"DIE_X\000"
 10948      5800
 10949              	.LASF33:
 10950 5560 4449455F 		.ascii	"DIE_Y\000"
 10950      5900
 10951              	.LASF743:
 10952 5566 61647644 		.ascii	"advData\000"
 10952      61746100 
 10953              	.LASF588:
 10954 556e 43595F42 		.ascii	"CY_BLE_GATT_XCHNG_MTU_RSP\000"
 10954      4C455F47 
 10954      4154545F 
 10954      5843484E 
 10954      475F4D54 
 10955              	.LASF711:
 10956 5588 73757065 		.ascii	"supervisionTo\000"
 10956      72766973 
 10956      696F6E54 
 10956      6F00
 10957              	.LASF417:
 10958 5596 43595F42 		.ascii	"CY_BLE_EVT_REMOVE_DEVICE_FROM_WHITE_LIST_COMPLETE\000"
 10958      4C455F45 
 10958      56545F52 
 10958      454D4F56 
 10958      455F4445 
 10959              	.LASF414:
 10960 55c8 43595F42 		.ascii	"CY_BLE_EVT_ADD_DEVICE_TO_RPA_LIST_COMPLETE\000"
 10960      4C455F45 
 10960      56545F41 
 10960      44445F44 
 10960      45564943 
 10961              	.LASF406:
 10962 55f3 43595F42 		.ascii	"CY_BLE_EVT_SET_SUGGESTED_DATA_LENGTH_COMPLETE\000"
 10962      4C455F45 
 10962      56545F53 
 10962      45545F53 
ARM GAS  C:\Users\hkmnt\AppData\Local\Temp\ccBdSSuH.s 			page 285


 10962      55474745 
 10963              	.LASF736:
 10964 5621 61647649 		.ascii	"advIntvMax\000"
 10964      6E74764D 
 10964      617800
 10965              	.LASF724:
 10966 562c 6F776E41 		.ascii	"ownAddrType\000"
 10966      64647254 
 10966      79706500 
 10967              	.LASF181:
 10968 5638 666C6173 		.ascii	"flashCtlMainWs0Freq\000"
 10968      6843746C 
 10968      4D61696E 
 10968      57733046 
 10968      72657100 
 10969              	.LASF516:
 10970 564c 43595F42 		.ascii	"CY_BLE_ERROR_OOB_NOT_AVAILABLE\000"
 10970      4C455F45 
 10970      52524F52 
 10970      5F4F4F42 
 10970      5F4E4F54 
 10971              	.LASF291:
 10972 566b 63707573 		.ascii	"cpuss_interrupts_dw0_5_IRQn\000"
 10972      735F696E 
 10972      74657272 
 10972      75707473 
 10972      5F647730 
 10973              	.LASF154:
 10974 5687 6873696F 		.ascii	"hsiomVersion\000"
 10974      6D566572 
 10974      73696F6E 
 10974      00
 10975              	.LASF465:
 10976 5694 43595F42 		.ascii	"CY_BLE_EVT_GAP_KEYS_GEN_COMPLETE\000"
 10976      4C455F45 
 10976      56545F47 
 10976      41505F4B 
 10976      4559535F 
 10977              	.LASF186:
 10978 56b5 64774368 		.ascii	"dwChOffset\000"
 10978      4F666673 
 10978      657400
 10979              	.LASF921:
 10980 56c0 43795F53 		.ascii	"Cy_SysLib_Delay\000"
 10980      79734C69 
 10980      625F4465 
 10980      6C617900 
 10981              		.ident	"GCC: (GNU Tools for ARM Embedded Processors) 5.4.1 20160609 (release) [ARM/embedded-5-bran
