ARM GAS  C:\Users\hkmnt\AppData\Local\Temp\ccXcTUuf.s 			page 1


   1              		.syntax unified
   2              		.cpu cortex-m0plus
   3              		.fpu softvfp
   4              		.eabi_attribute 20, 1
   5              		.eabi_attribute 21, 1
   6              		.eabi_attribute 23, 3
   7              		.eabi_attribute 24, 1
   8              		.eabi_attribute 25, 1
   9              		.eabi_attribute 26, 1
  10              		.eabi_attribute 30, 1
  11              		.eabi_attribute 34, 0
  12              		.eabi_attribute 18, 4
  13              		.thumb
  14              		.syntax unified
  15              		.file	"cy_ble.c"
  16              		.text
  17              	.Ltext0:
  18              		.cfi_sections	.debug_frame
  19              		.section	.text.Cy_BLE_DeepSleepCallback,"ax",%progbits
  20              		.align	2
  21              		.global	Cy_BLE_DeepSleepCallback
  22              		.code	16
  23              		.thumb_func
  24              		.type	Cy_BLE_DeepSleepCallback, %function
  25              	Cy_BLE_DeepSleepCallback:
  26              	.LFB162:
  27              		.file 1 "Generated_Source\\PSoC6\\pdl\\middleware\\ble\\cy_ble.c"
   1:Generated_Source\PSoC6\pdl\middleware\ble/cy_ble.c **** /***************************************************************************//**
   2:Generated_Source\PSoC6\pdl\middleware\ble/cy_ble.c **** * \file cy_ble.c
   3:Generated_Source\PSoC6\pdl\middleware\ble/cy_ble.c **** * \version 2.60
   4:Generated_Source\PSoC6\pdl\middleware\ble/cy_ble.c **** *
   5:Generated_Source\PSoC6\pdl\middleware\ble/cy_ble.c **** * \brief
   6:Generated_Source\PSoC6\pdl\middleware\ble/cy_ble.c **** *  This file contains the source code for the API of the BLE Middleware.
   7:Generated_Source\PSoC6\pdl\middleware\ble/cy_ble.c **** *
   8:Generated_Source\PSoC6\pdl\middleware\ble/cy_ble.c **** ********************************************************************************
   9:Generated_Source\PSoC6\pdl\middleware\ble/cy_ble.c **** * \copyright
  10:Generated_Source\PSoC6\pdl\middleware\ble/cy_ble.c **** * Copyright 2017-2020, Cypress Semiconductor Corporation.  All rights reserved.
  11:Generated_Source\PSoC6\pdl\middleware\ble/cy_ble.c **** * You may use this file only in accordance with the license, terms, conditions,
  12:Generated_Source\PSoC6\pdl\middleware\ble/cy_ble.c **** * disclaimers, and limitations in the end user license agreement accompanying
  13:Generated_Source\PSoC6\pdl\middleware\ble/cy_ble.c **** * the software package with which this file was provided.
  14:Generated_Source\PSoC6\pdl\middleware\ble/cy_ble.c **** *******************************************************************************/
  15:Generated_Source\PSoC6\pdl\middleware\ble/cy_ble.c **** 
  16:Generated_Source\PSoC6\pdl\middleware\ble/cy_ble.c **** #include "cy_ble_event_handler.h"
  17:Generated_Source\PSoC6\pdl\middleware\ble/cy_ble.c **** #include "cy_ble_hal_pvt.h"
  18:Generated_Source\PSoC6\pdl\middleware\ble/cy_ble.c **** #include "ipc/cy_ipc_sema.h"
  19:Generated_Source\PSoC6\pdl\middleware\ble/cy_ble.c **** #include <stdlib.h>
  20:Generated_Source\PSoC6\pdl\middleware\ble/cy_ble.c **** 
  21:Generated_Source\PSoC6\pdl\middleware\ble/cy_ble.c **** /* C binding of definitions if building with C++ compiler */
  22:Generated_Source\PSoC6\pdl\middleware\ble/cy_ble.c **** #ifdef __cplusplus
  23:Generated_Source\PSoC6\pdl\middleware\ble/cy_ble.c **** extern "C" {
  24:Generated_Source\PSoC6\pdl\middleware\ble/cy_ble.c **** #endif /* __cplusplus */
  25:Generated_Source\PSoC6\pdl\middleware\ble/cy_ble.c **** 
  26:Generated_Source\PSoC6\pdl\middleware\ble/cy_ble.c **** #if (CY_BLE_HOST_CONTR_CORE)
  27:Generated_Source\PSoC6\pdl\middleware\ble/cy_ble.c **** 
  28:Generated_Source\PSoC6\pdl\middleware\ble/cy_ble.c **** /***************************************
  29:Generated_Source\PSoC6\pdl\middleware\ble/cy_ble.c **** * Global Variables
  30:Generated_Source\PSoC6\pdl\middleware\ble/cy_ble.c **** ***************************************/
ARM GAS  C:\Users\hkmnt\AppData\Local\Temp\ccXcTUuf.s 			page 2


  31:Generated_Source\PSoC6\pdl\middleware\ble/cy_ble.c **** 
  32:Generated_Source\PSoC6\pdl\middleware\ble/cy_ble.c **** /* Allocate RAM memory for the stack. This buffer can be reused by the application when
  33:Generated_Source\PSoC6\pdl\middleware\ble/cy_ble.c ****  * the BLE Middleware is stopped. For the export mode, the buffer is allocated in a heap.
  34:Generated_Source\PSoC6\pdl\middleware\ble/cy_ble.c ****  */
  35:Generated_Source\PSoC6\pdl\middleware\ble/cy_ble.c **** #if (CY_BLE_SHARING_MODE_EXPORT)
  36:Generated_Source\PSoC6\pdl\middleware\ble/cy_ble.c **** uint8_t *cy_ble_stackMemoryRam = NULL;
  37:Generated_Source\PSoC6\pdl\middleware\ble/cy_ble.c **** #else
  38:Generated_Source\PSoC6\pdl\middleware\ble/cy_ble.c **** CY_ALIGN(sizeof(uint32_t)) CY_NOINIT uint8_t cy_ble_stackMemoryRam[CY_BLE_STACK_RAM_SIZE];
  39:Generated_Source\PSoC6\pdl\middleware\ble/cy_ble.c **** #endif  /* CY_BLE_SHARING_MODE_EXPORT */
  40:Generated_Source\PSoC6\pdl\middleware\ble/cy_ble.c **** 
  41:Generated_Source\PSoC6\pdl\middleware\ble/cy_ble.c **** #if (CY_BLE_MODE_PROFILE)
  42:Generated_Source\PSoC6\pdl\middleware\ble/cy_ble.c **** /** An application layer event callback function to receive service events from the BLE Middleware.
  43:Generated_Source\PSoC6\pdl\middleware\ble/cy_ble.c **** cy_ble_callback_t Cy_BLE_ApplCallback = NULL;
  44:Generated_Source\PSoC6\pdl\middleware\ble/cy_ble.c ****     
  45:Generated_Source\PSoC6\pdl\middleware\ble/cy_ble.c **** /* BLE application IPC notification handler */
  46:Generated_Source\PSoC6\pdl\middleware\ble/cy_ble.c **** cy_ble_app_notify_callback_t Cy_BLE_HostRegisteredCallback = NULL;     
  47:Generated_Source\PSoC6\pdl\middleware\ble/cy_ble.c **** #endif  /* (CY_BLE_MODE_PROFILE) */
  48:Generated_Source\PSoC6\pdl\middleware\ble/cy_ble.c **** 
  49:Generated_Source\PSoC6\pdl\middleware\ble/cy_ble.c **** #if(CY_BLE_SHARING_MODE != CY_BLE_SHARING_IMPORT)
  50:Generated_Source\PSoC6\pdl\middleware\ble/cy_ble.c **** /** Pointer to the global BLE Config structures */
  51:Generated_Source\PSoC6\pdl\middleware\ble/cy_ble.c **** cy_stc_ble_config_t *cy_ble_configPtr = NULL;
  52:Generated_Source\PSoC6\pdl\middleware\ble/cy_ble.c **** #endif /* CY_BLE_SHARING_MODE != CY_BLE_SHARING_IMPORT */
  53:Generated_Source\PSoC6\pdl\middleware\ble/cy_ble.c **** 
  54:Generated_Source\PSoC6\pdl\middleware\ble/cy_ble.c **** #if (CY_BLE_USE_DEEP_SLEEP != 0u)
  55:Generated_Source\PSoC6\pdl\middleware\ble/cy_ble.c ****   /* Structure with the syspm callback parameters for BLE deep-sleep */
  56:Generated_Source\PSoC6\pdl\middleware\ble/cy_ble.c ****   static cy_stc_syspm_callback_params_t bleDeepSleepCallbackParams = { .base = NULL};
  57:Generated_Source\PSoC6\pdl\middleware\ble/cy_ble.c ****   static cy_stc_syspm_callback_t bleDeepSleepCallback =
  58:Generated_Source\PSoC6\pdl\middleware\ble/cy_ble.c ****   {
  59:Generated_Source\PSoC6\pdl\middleware\ble/cy_ble.c ****     .callback = &Cy_BLE_DeepSleepCallback,
  60:Generated_Source\PSoC6\pdl\middleware\ble/cy_ble.c ****     .type = CY_SYSPM_DEEPSLEEP,
  61:Generated_Source\PSoC6\pdl\middleware\ble/cy_ble.c ****     .skipMode = CY_SYSPM_SKIP_BEFORE_TRANSITION | CY_SYSPM_SKIP_CHECK_FAIL,
  62:Generated_Source\PSoC6\pdl\middleware\ble/cy_ble.c ****     .callbackParams = &bleDeepSleepCallbackParams
  63:Generated_Source\PSoC6\pdl\middleware\ble/cy_ble.c ****   };
  64:Generated_Source\PSoC6\pdl\middleware\ble/cy_ble.c **** 
  65:Generated_Source\PSoC6\pdl\middleware\ble/cy_ble.c ****   /* Structure with the syspm callback parameters for BLE sleep */
  66:Generated_Source\PSoC6\pdl\middleware\ble/cy_ble.c **** #if(CY_BLE_STACK_MODE_HOST_IPC)
  67:Generated_Source\PSoC6\pdl\middleware\ble/cy_ble.c ****   static cy_stc_syspm_callback_params_t bleSleepCallbackParams = { .base = NULL};
  68:Generated_Source\PSoC6\pdl\middleware\ble/cy_ble.c ****   static cy_stc_syspm_callback_t bleSleepCallback =
  69:Generated_Source\PSoC6\pdl\middleware\ble/cy_ble.c ****   {
  70:Generated_Source\PSoC6\pdl\middleware\ble/cy_ble.c ****     .callback = &Cy_BLE_SleepCallback,
  71:Generated_Source\PSoC6\pdl\middleware\ble/cy_ble.c ****     .type = CY_SYSPM_SLEEP,
  72:Generated_Source\PSoC6\pdl\middleware\ble/cy_ble.c ****     .skipMode = CY_SYSPM_SKIP_BEFORE_TRANSITION | CY_SYSPM_SKIP_CHECK_FAIL,
  73:Generated_Source\PSoC6\pdl\middleware\ble/cy_ble.c ****     .callbackParams = &bleSleepCallbackParams
  74:Generated_Source\PSoC6\pdl\middleware\ble/cy_ble.c ****   };
  75:Generated_Source\PSoC6\pdl\middleware\ble/cy_ble.c **** #endif /* CY_BLE_STACK_MODE_HOST_IPC */
  76:Generated_Source\PSoC6\pdl\middleware\ble/cy_ble.c **** #endif  /* (CY_BLE_USE_DEEP_SLEEP != 0u) */
  77:Generated_Source\PSoC6\pdl\middleware\ble/cy_ble.c **** 
  78:Generated_Source\PSoC6\pdl\middleware\ble/cy_ble.c **** #if (CY_BLE_INTR_NOTIFY_FEATURE_ENABLED) && (CY_BLE_MODE_PROFILE)
  79:Generated_Source\PSoC6\pdl\middleware\ble/cy_ble.c **** /** BLE interrupt notification structure */
  80:Generated_Source\PSoC6\pdl\middleware\ble/cy_ble.c **** cy_stc_ble_intr_notify_t intrNotify = 
  81:Generated_Source\PSoC6\pdl\middleware\ble/cy_ble.c **** {
  82:Generated_Source\PSoC6\pdl\middleware\ble/cy_ble.c ****     .clientID = CY_BLE_CYPIPE_MSG_INTR_NOTIFY_ID,
  83:Generated_Source\PSoC6\pdl\middleware\ble/cy_ble.c ****     .pktType  = 0xFFu
  84:Generated_Source\PSoC6\pdl\middleware\ble/cy_ble.c **** };
  85:Generated_Source\PSoC6\pdl\middleware\ble/cy_ble.c **** #endif /*(CY_BLE_INTR_NOTIFY_FEATURE_ENABLED) && (CY_BLE_MODE_PROFILE) */
  86:Generated_Source\PSoC6\pdl\middleware\ble/cy_ble.c **** 
  87:Generated_Source\PSoC6\pdl\middleware\ble/cy_ble.c **** 
ARM GAS  C:\Users\hkmnt\AppData\Local\Temp\ccXcTUuf.s 			page 3


  88:Generated_Source\PSoC6\pdl\middleware\ble/cy_ble.c **** /******************************************************************************
  89:Generated_Source\PSoC6\pdl\middleware\ble/cy_ble.c **** * Function Name: Cy_BLE_UnregisterHostPMCallbacks
  90:Generated_Source\PSoC6\pdl\middleware\ble/cy_ble.c **** ***************************************************************************//**
  91:Generated_Source\PSoC6\pdl\middleware\ble/cy_ble.c **** *
  92:Generated_Source\PSoC6\pdl\middleware\ble/cy_ble.c **** *  Unregister BLE callback for Deepsleep/Sleep
  93:Generated_Source\PSoC6\pdl\middleware\ble/cy_ble.c **** *
  94:Generated_Source\PSoC6\pdl\middleware\ble/cy_ble.c **** ******************************************************************************/
  95:Generated_Source\PSoC6\pdl\middleware\ble/cy_ble.c **** void Cy_BLE_UnregisterHostPMCallbacks(void)
  96:Generated_Source\PSoC6\pdl\middleware\ble/cy_ble.c **** {
  97:Generated_Source\PSoC6\pdl\middleware\ble/cy_ble.c ****     #if (CY_BLE_USE_DEEP_SLEEP != 0u)
  98:Generated_Source\PSoC6\pdl\middleware\ble/cy_ble.c ****         /* Unregister BLE callback for Deepsleep support */
  99:Generated_Source\PSoC6\pdl\middleware\ble/cy_ble.c ****         (void)Cy_SysPm_UnregisterCallback(&bleDeepSleepCallback);
 100:Generated_Source\PSoC6\pdl\middleware\ble/cy_ble.c ****         
 101:Generated_Source\PSoC6\pdl\middleware\ble/cy_ble.c ****         /* Unregister sleep mode callback only in dual core mode for the host core */
 102:Generated_Source\PSoC6\pdl\middleware\ble/cy_ble.c ****         #if(CY_BLE_STACK_MODE_HOST_IPC)
 103:Generated_Source\PSoC6\pdl\middleware\ble/cy_ble.c ****             /* Unregister BLE callback for Sleep support */
 104:Generated_Source\PSoC6\pdl\middleware\ble/cy_ble.c ****             (void)Cy_SysPm_UnregisterCallback(&bleSleepCallback);
 105:Generated_Source\PSoC6\pdl\middleware\ble/cy_ble.c ****         #endif /* ( CY_BLE_STACK_MODE_HOST_IPC) */
 106:Generated_Source\PSoC6\pdl\middleware\ble/cy_ble.c ****     #endif /* (CY_BLE_USE_DEEP_SLEEP != 0u) */
 107:Generated_Source\PSoC6\pdl\middleware\ble/cy_ble.c **** }
 108:Generated_Source\PSoC6\pdl\middleware\ble/cy_ble.c **** 
 109:Generated_Source\PSoC6\pdl\middleware\ble/cy_ble.c **** /**
 110:Generated_Source\PSoC6\pdl\middleware\ble/cy_ble.c ****  * \addtogroup group_ble_common_api_functions
 111:Generated_Source\PSoC6\pdl\middleware\ble/cy_ble.c ****  * @{
 112:Generated_Source\PSoC6\pdl\middleware\ble/cy_ble.c ****  */
 113:Generated_Source\PSoC6\pdl\middleware\ble/cy_ble.c **** 
 114:Generated_Source\PSoC6\pdl\middleware\ble/cy_ble.c **** /******************************************************************************
 115:Generated_Source\PSoC6\pdl\middleware\ble/cy_ble.c **** * Function Name: Cy_BLE_Init
 116:Generated_Source\PSoC6\pdl\middleware\ble/cy_ble.c **** ***************************************************************************//**
 117:Generated_Source\PSoC6\pdl\middleware\ble/cy_ble.c **** *
 118:Generated_Source\PSoC6\pdl\middleware\ble/cy_ble.c **** *  Initializes the BLE Middleware.
 119:Generated_Source\PSoC6\pdl\middleware\ble/cy_ble.c **** *  
 120:Generated_Source\PSoC6\pdl\middleware\ble/cy_ble.c **** *
 121:Generated_Source\PSoC6\pdl\middleware\ble/cy_ble.c **** *  \param config: The configuration structure for the BLE Middleware.
 122:Generated_Source\PSoC6\pdl\middleware\ble/cy_ble.c **** *
 123:Generated_Source\PSoC6\pdl\middleware\ble/cy_ble.c **** * \return
 124:Generated_Source\PSoC6\pdl\middleware\ble/cy_ble.c **** * \ref cy_en_ble_api_result_t : Return value indicates if the function succeeded or
 125:Generated_Source\PSoC6\pdl\middleware\ble/cy_ble.c **** *  failed. The following are possible error codes.
 126:Generated_Source\PSoC6\pdl\middleware\ble/cy_ble.c **** *
 127:Generated_Source\PSoC6\pdl\middleware\ble/cy_ble.c **** *   Error codes                     | Description
 128:Generated_Source\PSoC6\pdl\middleware\ble/cy_ble.c **** *   ------------                    | -----------
 129:Generated_Source\PSoC6\pdl\middleware\ble/cy_ble.c **** *   CY_BLE_SUCCESS                  | The function completed successfully.
 130:Generated_Source\PSoC6\pdl\middleware\ble/cy_ble.c **** *   CY_BLE_ERROR_INVALID_PARAMETER  | On specifying NULL as the input parameter.
 131:Generated_Source\PSoC6\pdl\middleware\ble/cy_ble.c **** *
 132:Generated_Source\PSoC6\pdl\middleware\ble/cy_ble.c **** ******************************************************************************/
 133:Generated_Source\PSoC6\pdl\middleware\ble/cy_ble.c **** cy_en_ble_api_result_t Cy_BLE_Init(cy_stc_ble_config_t *config)
 134:Generated_Source\PSoC6\pdl\middleware\ble/cy_ble.c **** {
 135:Generated_Source\PSoC6\pdl\middleware\ble/cy_ble.c ****     cy_en_ble_api_result_t apiResult = CY_BLE_SUCCESS;
 136:Generated_Source\PSoC6\pdl\middleware\ble/cy_ble.c **** 
 137:Generated_Source\PSoC6\pdl\middleware\ble/cy_ble.c ****     if(config == NULL)
 138:Generated_Source\PSoC6\pdl\middleware\ble/cy_ble.c ****     {
 139:Generated_Source\PSoC6\pdl\middleware\ble/cy_ble.c ****         apiResult = CY_BLE_ERROR_INVALID_PARAMETER;
 140:Generated_Source\PSoC6\pdl\middleware\ble/cy_ble.c ****     }
 141:Generated_Source\PSoC6\pdl\middleware\ble/cy_ble.c ****     else
 142:Generated_Source\PSoC6\pdl\middleware\ble/cy_ble.c ****     {
 143:Generated_Source\PSoC6\pdl\middleware\ble/cy_ble.c ****         /* Register a pointer to the config structure */
 144:Generated_Source\PSoC6\pdl\middleware\ble/cy_ble.c ****         cy_ble_configPtr = config;
ARM GAS  C:\Users\hkmnt\AppData\Local\Temp\ccXcTUuf.s 			page 4


 145:Generated_Source\PSoC6\pdl\middleware\ble/cy_ble.c **** 
 146:Generated_Source\PSoC6\pdl\middleware\ble/cy_ble.c ****     #if (CY_BLE_MODE_PROFILE)
 147:Generated_Source\PSoC6\pdl\middleware\ble/cy_ble.c ****         /* Register a callback function via the config structure */
 148:Generated_Source\PSoC6\pdl\middleware\ble/cy_ble.c ****         if(cy_ble_configPtr->callbackFunc != NULL)
 149:Generated_Source\PSoC6\pdl\middleware\ble/cy_ble.c ****         {
 150:Generated_Source\PSoC6\pdl\middleware\ble/cy_ble.c ****             Cy_BLE_ApplCallback = cy_ble_configPtr->callbackFunc;
 151:Generated_Source\PSoC6\pdl\middleware\ble/cy_ble.c ****         }
 152:Generated_Source\PSoC6\pdl\middleware\ble/cy_ble.c ****         cy_ble_eventHandlerFlag = 0u;
 153:Generated_Source\PSoC6\pdl\middleware\ble/cy_ble.c ****         (void)memset((uint8_t*)&cy_ble_busyStatus, 0, sizeof(cy_ble_busyStatus));
 154:Generated_Source\PSoC6\pdl\middleware\ble/cy_ble.c **** 
 155:Generated_Source\PSoC6\pdl\middleware\ble/cy_ble.c ****         cy_ble_cmdStatus = 0u;
 156:Generated_Source\PSoC6\pdl\middleware\ble/cy_ble.c ****         
 157:Generated_Source\PSoC6\pdl\middleware\ble/cy_ble.c ****         #if (CY_BLE_GATT_ROLE_CLIENT)
 158:Generated_Source\PSoC6\pdl\middleware\ble/cy_ble.c ****         {
 159:Generated_Source\PSoC6\pdl\middleware\ble/cy_ble.c ****             uint32_t idx;
 160:Generated_Source\PSoC6\pdl\middleware\ble/cy_ble.c ****             (void)memset(&cy_ble_serverInfo, 0, sizeof(cy_ble_serverInfo));
 161:Generated_Source\PSoC6\pdl\middleware\ble/cy_ble.c ****             (void)memset(cy_ble_connHandle, -1, sizeof(cy_ble_connHandle));
 162:Generated_Source\PSoC6\pdl\middleware\ble/cy_ble.c ****             (void)memset(&cy_ble_discovery, 0, sizeof(cy_ble_discovery));
 163:Generated_Source\PSoC6\pdl\middleware\ble/cy_ble.c **** 
 164:Generated_Source\PSoC6\pdl\middleware\ble/cy_ble.c ****             /* Update cy_ble_discovery[].connIndex with init values (CY_BLE_INVALID_CONN_HANDLE_VAL
 165:Generated_Source\PSoC6\pdl\middleware\ble/cy_ble.c ****             for(idx = 0u; idx < CY_BLE_GATTC_COUNT; idx++)
 166:Generated_Source\PSoC6\pdl\middleware\ble/cy_ble.c ****             {
 167:Generated_Source\PSoC6\pdl\middleware\ble/cy_ble.c ****                 cy_ble_discovery[idx].connIndex = CY_BLE_INVALID_CONN_HANDLE_VALUE;
 168:Generated_Source\PSoC6\pdl\middleware\ble/cy_ble.c ****             }
 169:Generated_Source\PSoC6\pdl\middleware\ble/cy_ble.c ****         }
 170:Generated_Source\PSoC6\pdl\middleware\ble/cy_ble.c ****         #endif /* CY_BLE_GATT_ROLE_CLIENT */
 171:Generated_Source\PSoC6\pdl\middleware\ble/cy_ble.c **** 
 172:Generated_Source\PSoC6\pdl\middleware\ble/cy_ble.c ****         #if (CY_BLE_GAP_ROLE_PERIPHERAL || CY_BLE_GAP_ROLE_BROADCASTER)
 173:Generated_Source\PSoC6\pdl\middleware\ble/cy_ble.c ****         cy_ble_advertisingIntervalType = CY_BLE_ADVERTISING_FAST;
 174:Generated_Source\PSoC6\pdl\middleware\ble/cy_ble.c ****         #endif /* (CY_BLE_GAP_ROLE_PERIPHERAL || CY_BLE_GAP_ROLE_BROADCASTER)  */
 175:Generated_Source\PSoC6\pdl\middleware\ble/cy_ble.c **** 
 176:Generated_Source\PSoC6\pdl\middleware\ble/cy_ble.c ****         #if (CY_BLE_GAP_ROLE_CENTRAL || CY_BLE_GAP_ROLE_OBSERVER)
 177:Generated_Source\PSoC6\pdl\middleware\ble/cy_ble.c ****         cy_ble_scanningIntervalType = CY_BLE_SCANNING_FAST;
 178:Generated_Source\PSoC6\pdl\middleware\ble/cy_ble.c ****         #endif /* (CY_BLE_GAP_ROLE_CENTRAL || CY_BLE_GAP_ROLE_OBSERVER) */
 179:Generated_Source\PSoC6\pdl\middleware\ble/cy_ble.c **** 
 180:Generated_Source\PSoC6\pdl\middleware\ble/cy_ble.c ****         Cy_BLE_ServiceInit();
 181:Generated_Source\PSoC6\pdl\middleware\ble/cy_ble.c **** 
 182:Generated_Source\PSoC6\pdl\middleware\ble/cy_ble.c ****         #if ((CY_BLE_GAP_ROLE_PERIPHERAL || CY_BLE_GAP_ROLE_CENTRAL) && (CY_BLE_BONDING_REQUIREMENT
 183:Generated_Source\PSoC6\pdl\middleware\ble/cy_ble.c ****         cy_ble_pendingFlashWrite = 0u;
 184:Generated_Source\PSoC6\pdl\middleware\ble/cy_ble.c ****         (void)memset(cy_ble_peerBonding, (int8_t)CY_BLE_GAP_BONDING_NONE, sizeof(cy_ble_peerBonding
 185:Generated_Source\PSoC6\pdl\middleware\ble/cy_ble.c ****         #endif /* (CY_BLE_BONDING_REQUIREMENT == CY_BLE_BONDING_YES) */
 186:Generated_Source\PSoC6\pdl\middleware\ble/cy_ble.c ****     #endif     /* (CY_BLE_MODE_PROFILE) */
 187:Generated_Source\PSoC6\pdl\middleware\ble/cy_ble.c ****     }
 188:Generated_Source\PSoC6\pdl\middleware\ble/cy_ble.c ****             
 189:Generated_Source\PSoC6\pdl\middleware\ble/cy_ble.c ****     return(apiResult);
 190:Generated_Source\PSoC6\pdl\middleware\ble/cy_ble.c **** }
 191:Generated_Source\PSoC6\pdl\middleware\ble/cy_ble.c **** /** @} */
 192:Generated_Source\PSoC6\pdl\middleware\ble/cy_ble.c **** 
 193:Generated_Source\PSoC6\pdl\middleware\ble/cy_ble.c **** /******************************************************************************
 194:Generated_Source\PSoC6\pdl\middleware\ble/cy_ble.c **** * Function Name: Cy_BLE_Enable
 195:Generated_Source\PSoC6\pdl\middleware\ble/cy_ble.c **** ***************************************************************************//**
 196:Generated_Source\PSoC6\pdl\middleware\ble/cy_ble.c **** *
 197:Generated_Source\PSoC6\pdl\middleware\ble/cy_ble.c **** *  Initializes and starts the BLE Stack.
 198:Generated_Source\PSoC6\pdl\middleware\ble/cy_ble.c **** *
 199:Generated_Source\PSoC6\pdl\middleware\ble/cy_ble.c **** *  Calling this function results in generation of a #CY_BLE_EVT_STACK_ON event
 200:Generated_Source\PSoC6\pdl\middleware\ble/cy_ble.c **** *  on successful initialization of the BLE Stack.
 201:Generated_Source\PSoC6\pdl\middleware\ble/cy_ble.c **** *
ARM GAS  C:\Users\hkmnt\AppData\Local\Temp\ccXcTUuf.s 			page 5


 202:Generated_Source\PSoC6\pdl\middleware\ble/cy_ble.c **** *  BLE Stack enables the BLE ECO clock automatically with the default
 203:Generated_Source\PSoC6\pdl\middleware\ble/cy_ble.c **** *  parameters:
 204:Generated_Source\PSoC6\pdl\middleware\ble/cy_ble.c **** *     Parameter            | Value
 205:Generated_Source\PSoC6\pdl\middleware\ble/cy_ble.c **** *     -------------------- | -----------
 206:Generated_Source\PSoC6\pdl\middleware\ble/cy_ble.c **** *     ECO Frequency        | CY_BLE_DEFAULT_ECO_FREQ
 207:Generated_Source\PSoC6\pdl\middleware\ble/cy_ble.c **** *     Divider              | CY_BLE_DEFAULT_ECO_DIV
 208:Generated_Source\PSoC6\pdl\middleware\ble/cy_ble.c **** *     Startup time         | CY_BLE_DEFAULT_OSC_STARTUP_DELAY_LF
 209:Generated_Source\PSoC6\pdl\middleware\ble/cy_ble.c **** *     Load cap             | CY_BLE_DEFAULT_CAP_TRIM_VALUE
 210:Generated_Source\PSoC6\pdl\middleware\ble/cy_ble.c **** *
 211:Generated_Source\PSoC6\pdl\middleware\ble/cy_ble.c **** *  If there is a need to start the BLE with non-default ECO parameters, 
 212:Generated_Source\PSoC6\pdl\middleware\ble/cy_ble.c **** *  call the Cy_BLE_EcoStart() function with the custom configuration each 
 213:Generated_Source\PSoC6\pdl\middleware\ble/cy_ble.c **** *  time before calling the Cy_BLE_Enable() function.
 214:Generated_Source\PSoC6\pdl\middleware\ble/cy_ble.c **** *
 215:Generated_Source\PSoC6\pdl\middleware\ble/cy_ble.c **** *  This function initializes the BLE Stack which consists of the BLE Stack 
 216:Generated_Source\PSoC6\pdl\middleware\ble/cy_ble.c **** *  Manager, BLE Controller, and BLE Host modules. It takes care of initializing
 217:Generated_Source\PSoC6\pdl\middleware\ble/cy_ble.c **** *  the Profile layer, schedulers, Timer and other platform-related resources
 218:Generated_Source\PSoC6\pdl\middleware\ble/cy_ble.c **** *  required for the BLE Middleware. It also registers the callback function for
 219:Generated_Source\PSoC6\pdl\middleware\ble/cy_ble.c **** *  BLE events that will be registered in the BLE stack.
 220:Generated_Source\PSoC6\pdl\middleware\ble/cy_ble.c **** *
 221:Generated_Source\PSoC6\pdl\middleware\ble/cy_ble.c **** *  Note that this function does not reset the BLE Stack.
 222:Generated_Source\PSoC6\pdl\middleware\ble/cy_ble.c **** * 
 223:Generated_Source\PSoC6\pdl\middleware\ble/cy_ble.c **** *  For the HCI-Mode of operation, this function will not initialize the BLE Host 
 224:Generated_Source\PSoC6\pdl\middleware\ble/cy_ble.c **** *  module.
 225:Generated_Source\PSoC6\pdl\middleware\ble/cy_ble.c **** *
 226:Generated_Source\PSoC6\pdl\middleware\ble/cy_ble.c **** *  Calling this function results in generation of a #CY_BLE_EVT_STACK_ON event
 227:Generated_Source\PSoC6\pdl\middleware\ble/cy_ble.c **** *  on successful initialization of the BLE Stack.
 228:Generated_Source\PSoC6\pdl\middleware\ble/cy_ble.c **** *
 229:Generated_Source\PSoC6\pdl\middleware\ble/cy_ble.c **** *  In the Dual Core mode, this function should be called on both cores in the 
 230:Generated_Source\PSoC6\pdl\middleware\ble/cy_ble.c **** *  following sequence:
 231:Generated_Source\PSoC6\pdl\middleware\ble/cy_ble.c **** *   - call this function on CM0+ core to initialize the Controller.
 232:Generated_Source\PSoC6\pdl\middleware\ble/cy_ble.c **** *   - start CM4 core by calling Cy_SysEnableCM4() function.
 233:Generated_Source\PSoC6\pdl\middleware\ble/cy_ble.c **** *   - call this function on CM4 core to initialize the Host and Profiles.
 234:Generated_Source\PSoC6\pdl\middleware\ble/cy_ble.c **** *
 235:Generated_Source\PSoC6\pdl\middleware\ble/cy_ble.c **** *   BLE requires a call to Cy_IPC_SystemSemaInit() and Cy_IPC_SystemPipeInit() functions
 236:Generated_Source\PSoC6\pdl\middleware\ble/cy_ble.c **** *    before use.
 237:Generated_Source\PSoC6\pdl\middleware\ble/cy_ble.c **** *   
 238:Generated_Source\PSoC6\pdl\middleware\ble/cy_ble.c **** *    This function is called in the SystemInit() function, for proper flash write
 239:Generated_Source\PSoC6\pdl\middleware\ble/cy_ble.c **** *    and erase operations. If the default startup file is not used, or the function
 240:Generated_Source\PSoC6\pdl\middleware\ble/cy_ble.c **** *    SystemInit() is not called in your project, call the following functions:
 241:Generated_Source\PSoC6\pdl\middleware\ble/cy_ble.c **** *    -# Cy_IPC_SystemSemaInit()
 242:Generated_Source\PSoC6\pdl\middleware\ble/cy_ble.c **** *    -# Cy_IPC_SystemPipeInit()
 243:Generated_Source\PSoC6\pdl\middleware\ble/cy_ble.c **** *
 244:Generated_Source\PSoC6\pdl\middleware\ble/cy_ble.c **** * \return
 245:Generated_Source\PSoC6\pdl\middleware\ble/cy_ble.c **** * \ref cy_en_ble_api_result_t : Return value indicates if the function succeeded
 246:Generated_Source\PSoC6\pdl\middleware\ble/cy_ble.c **** *      or failed. The following are possible error codes.
 247:Generated_Source\PSoC6\pdl\middleware\ble/cy_ble.c **** *
 248:Generated_Source\PSoC6\pdl\middleware\ble/cy_ble.c **** *  <table>
 249:Generated_Source\PSoC6\pdl\middleware\ble/cy_ble.c **** *    <tr>
 250:Generated_Source\PSoC6\pdl\middleware\ble/cy_ble.c **** *      <th>Error codes</th>
 251:Generated_Source\PSoC6\pdl\middleware\ble/cy_ble.c **** *      <th>Description</th>
 252:Generated_Source\PSoC6\pdl\middleware\ble/cy_ble.c **** *    </tr>
 253:Generated_Source\PSoC6\pdl\middleware\ble/cy_ble.c **** *    <tr>
 254:Generated_Source\PSoC6\pdl\middleware\ble/cy_ble.c **** *      <td>CY_BLE_SUCCESS</td>
 255:Generated_Source\PSoC6\pdl\middleware\ble/cy_ble.c **** *      <td>On successful operation.</td>
 256:Generated_Source\PSoC6\pdl\middleware\ble/cy_ble.c **** *    </tr>
 257:Generated_Source\PSoC6\pdl\middleware\ble/cy_ble.c **** *    <tr>
 258:Generated_Source\PSoC6\pdl\middleware\ble/cy_ble.c **** *      <td>CY_BLE_ERROR_REPEATED_ATTEMPTS</td>
ARM GAS  C:\Users\hkmnt\AppData\Local\Temp\ccXcTUuf.s 			page 6


 259:Generated_Source\PSoC6\pdl\middleware\ble/cy_ble.c **** *      <td>On invoking this function more than once without calling 
 260:Generated_Source\PSoC6\pdl\middleware\ble/cy_ble.c **** *          Cy_BLE_Disable() function between calls to this function.</td>
 261:Generated_Source\PSoC6\pdl\middleware\ble/cy_ble.c **** *    </tr>
 262:Generated_Source\PSoC6\pdl\middleware\ble/cy_ble.c **** *    <tr>
 263:Generated_Source\PSoC6\pdl\middleware\ble/cy_ble.c **** *      <td>CY_BLE_ERROR_MEMORY_ALLOCATION_FAILED</td>
 264:Generated_Source\PSoC6\pdl\middleware\ble/cy_ble.c **** *      <td>There is insufficient memory available.</td>
 265:Generated_Source\PSoC6\pdl\middleware\ble/cy_ble.c **** *    </tr>
 266:Generated_Source\PSoC6\pdl\middleware\ble/cy_ble.c **** *  </table>
 267:Generated_Source\PSoC6\pdl\middleware\ble/cy_ble.c **** *
 268:Generated_Source\PSoC6\pdl\middleware\ble/cy_ble.c **** ******************************************************************************/
 269:Generated_Source\PSoC6\pdl\middleware\ble/cy_ble.c **** cy_en_ble_api_result_t Cy_BLE_Enable(void)
 270:Generated_Source\PSoC6\pdl\middleware\ble/cy_ble.c **** {
 271:Generated_Source\PSoC6\pdl\middleware\ble/cy_ble.c ****     cy_en_ble_api_result_t apiResult = CY_BLE_SUCCESS;
 272:Generated_Source\PSoC6\pdl\middleware\ble/cy_ble.c **** 
 273:Generated_Source\PSoC6\pdl\middleware\ble/cy_ble.c **** #if (CY_BLE_MODE_PROFILE)
 274:Generated_Source\PSoC6\pdl\middleware\ble/cy_ble.c ****          
 275:Generated_Source\PSoC6\pdl\middleware\ble/cy_ble.c ****     cy_stc_ble_stk_app_data_buff_t cy_ble_stackDataBuff[CY_BLE_STACK_APP_MIN_POOL] =
 276:Generated_Source\PSoC6\pdl\middleware\ble/cy_ble.c ****     {
 277:Generated_Source\PSoC6\pdl\middleware\ble/cy_ble.c ****         { CY_BLE_GATT_MTU_PLUS_L2CAP_MEM_EXT,   CY_BLE_GATT_MTU_BUFF_COUNT              },
 278:Generated_Source\PSoC6\pdl\middleware\ble/cy_ble.c ****         { CY_BLE_L2CAP_PSM_PLUS_L2CAP_MEM_EXT,  CY_BLE_L2CAP_PSM_COUNT                  },
 279:Generated_Source\PSoC6\pdl\middleware\ble/cy_ble.c ****         { CY_BLE_L2CAP_CBFC_PLUS_L2CAP_MEM_EXT, 2u * CY_BLE_L2CAP_LOGICAL_CHANNEL_COUNT },
 280:Generated_Source\PSoC6\pdl\middleware\ble/cy_ble.c ****         { CY_BLE_L2CAP_MTU_PLUS_L2CAP_MEM_EXT,  2u * CY_BLE_L2CAP_LOGICAL_CHANNEL_COUNT },
 281:Generated_Source\PSoC6\pdl\middleware\ble/cy_ble.c ****         { CY_BLE_GATT_DB_ATTR_BUFF_SIZE ,  1u }
 282:Generated_Source\PSoC6\pdl\middleware\ble/cy_ble.c ****     };
 283:Generated_Source\PSoC6\pdl\middleware\ble/cy_ble.c **** #endif  /* (CY_BLE_MODE_PROFILE) */
 284:Generated_Source\PSoC6\pdl\middleware\ble/cy_ble.c ****     
 285:Generated_Source\PSoC6\pdl\middleware\ble/cy_ble.c ****     cy_stc_ble_stack_init_info_t stackInitParam =
 286:Generated_Source\PSoC6\pdl\middleware\ble/cy_ble.c ****     {
 287:Generated_Source\PSoC6\pdl\middleware\ble/cy_ble.c ****     #if (CY_BLE_MODE_PROFILE)
 288:Generated_Source\PSoC6\pdl\middleware\ble/cy_ble.c ****         .CyBleAppCbFunc                      = (cy_ble_app_ev_cb_t)&Cy_BLE_EventHandler,
 289:Generated_Source\PSoC6\pdl\middleware\ble/cy_ble.c ****     #endif /* CY_BLE_MODE_PROFILE */
 290:Generated_Source\PSoC6\pdl\middleware\ble/cy_ble.c ****         .memParam                            =
 291:Generated_Source\PSoC6\pdl\middleware\ble/cy_ble.c ****         {
 292:Generated_Source\PSoC6\pdl\middleware\ble/cy_ble.c ****     #if (CY_BLE_MODE_PROFILE)
 293:Generated_Source\PSoC6\pdl\middleware\ble/cy_ble.c ****             .totalHeapSz                     = (uint16_t)(CY_BLE_STACK_RAM_SIZE - CY_BLE_GATT_PREPA
 294:Generated_Source\PSoC6\pdl\middleware\ble/cy_ble.c ****             .dataBuff                        = cy_ble_stackDataBuff,
 295:Generated_Source\PSoC6\pdl\middleware\ble/cy_ble.c ****             .totalDataBufferPools            = CY_BLE_STACK_APP_MIN_POOL,
 296:Generated_Source\PSoC6\pdl\middleware\ble/cy_ble.c **** 
 297:Generated_Source\PSoC6\pdl\middleware\ble/cy_ble.c ****         #if (CY_BLE_BONDING_REQUIREMENT == CY_BLE_BONDING_YES)
 298:Generated_Source\PSoC6\pdl\middleware\ble/cy_ble.c ****             .bleStackFlashPointer            = (const uint8_t*)cy_ble_configPtr->flashStorage->stac
 299:Generated_Source\PSoC6\pdl\middleware\ble/cy_ble.c ****             .bleStackFlashSize               = CY_BLE_STACK_FLASH_SIZE,
 300:Generated_Source\PSoC6\pdl\middleware\ble/cy_ble.c ****         #endif  /* CY_BLE_BONDING_REQUIREMENT == CY_BLE_BONDING_YES */
 301:Generated_Source\PSoC6\pdl\middleware\ble/cy_ble.c ****     #else
 302:Generated_Source\PSoC6\pdl\middleware\ble/cy_ble.c ****             .totalHeapSz                     = CY_BLE_STACK_RAM_SIZE,
 303:Generated_Source\PSoC6\pdl\middleware\ble/cy_ble.c ****     #endif /* CY_BLE_MODE_PROFILE */
 304:Generated_Source\PSoC6\pdl\middleware\ble/cy_ble.c ****         },
 305:Generated_Source\PSoC6\pdl\middleware\ble/cy_ble.c ****         .stackConfig                         =
 306:Generated_Source\PSoC6\pdl\middleware\ble/cy_ble.c ****         {
 307:Generated_Source\PSoC6\pdl\middleware\ble/cy_ble.c ****             /* Configure DLE */
 308:Generated_Source\PSoC6\pdl\middleware\ble/cy_ble.c ****             .dleConfig.dleMaxTxCapability    = CY_BLE_LL_MAX_TX_PAYLOAD_SIZE,
 309:Generated_Source\PSoC6\pdl\middleware\ble/cy_ble.c ****             .dleConfig.dleMaxRxCapability    = CY_BLE_LL_MAX_RX_PAYLOAD_SIZE,
 310:Generated_Source\PSoC6\pdl\middleware\ble/cy_ble.c ****             .dleConfig.dleNumTxBuffer        = CY_BLE_LL_DEFAULT_NUM_ACL_TX_PACKETS,
 311:Generated_Source\PSoC6\pdl\middleware\ble/cy_ble.c ****             .dleConfig.dleNumRxBuffer        = CY_BLE_LL_DEFAULT_NUM_ACL_RX_PACKETS,
 312:Generated_Source\PSoC6\pdl\middleware\ble/cy_ble.c **** 
 313:Generated_Source\PSoC6\pdl\middleware\ble/cy_ble.c ****         #if (CY_BLE_MODE_PROFILE)
 314:Generated_Source\PSoC6\pdl\middleware\ble/cy_ble.c ****             /* Configure queue */
 315:Generated_Source\PSoC6\pdl\middleware\ble/cy_ble.c ****             .l2capConfig.l2capBufferPerConn  = CY_BLE_L2CAP_Q_DEPTH_PER_CONN,
ARM GAS  C:\Users\hkmnt\AppData\Local\Temp\ccXcTUuf.s 			page 7


 316:Generated_Source\PSoC6\pdl\middleware\ble/cy_ble.c ****         #endif /* (CY_BLE_MODE_PROFILE) */
 317:Generated_Source\PSoC6\pdl\middleware\ble/cy_ble.c **** 
 318:Generated_Source\PSoC6\pdl\middleware\ble/cy_ble.c ****             /* Configure LL Privacy */
 319:Generated_Source\PSoC6\pdl\middleware\ble/cy_ble.c ****             .privacyConfig.resolvingListSize = CY_BLE_MAX_RESOLVABLE_DEVICES,
 320:Generated_Source\PSoC6\pdl\middleware\ble/cy_ble.c **** 
 321:Generated_Source\PSoC6\pdl\middleware\ble/cy_ble.c ****             /* Configure bonded device list */
 322:Generated_Source\PSoC6\pdl\middleware\ble/cy_ble.c ****             .bondListConfig.bondListSize     = CY_BLE_MAX_BONDED_DEVICES,
 323:Generated_Source\PSoC6\pdl\middleware\ble/cy_ble.c **** 
 324:Generated_Source\PSoC6\pdl\middleware\ble/cy_ble.c ****             /* Configure white list */
 325:Generated_Source\PSoC6\pdl\middleware\ble/cy_ble.c ****             .whiteListConfig.whiteListSize   = CY_BLE_MAX_WHITE_LIST_SIZE,
 326:Generated_Source\PSoC6\pdl\middleware\ble/cy_ble.c **** 
 327:Generated_Source\PSoC6\pdl\middleware\ble/cy_ble.c ****             .featureMask                     = (CY_BLE_DLE_FEATURE | CY_BLE_LL_PRIVACY_FEATURE | 
 328:Generated_Source\PSoC6\pdl\middleware\ble/cy_ble.c ****                                                 CY_BLE_SECURE_CONN_FEATURE | CY_BLE_PHY_UPDATE_FEAT
 329:Generated_Source\PSoC6\pdl\middleware\ble/cy_ble.c ****                                                 CY_BLE_STORE_BONDLIST_FEATURE | CY_BLE_STORE_RESOLV
 330:Generated_Source\PSoC6\pdl\middleware\ble/cy_ble.c ****                                                 CY_BLE_STORE_WHITELIST_FEATURE | CY_BLE_TX_POWER_CA
 331:Generated_Source\PSoC6\pdl\middleware\ble/cy_ble.c ****             .maxBleConnections               = CY_BLE_CONN_COUNT
 332:Generated_Source\PSoC6\pdl\middleware\ble/cy_ble.c ****         }
 333:Generated_Source\PSoC6\pdl\middleware\ble/cy_ble.c ****     };
 334:Generated_Source\PSoC6\pdl\middleware\ble/cy_ble.c **** 
 335:Generated_Source\PSoC6\pdl\middleware\ble/cy_ble.c **** #if (CY_BLE_USE_DEEP_SLEEP != 0u)
 336:Generated_Source\PSoC6\pdl\middleware\ble/cy_ble.c ****     /* Register BLE callback for Deepsleep support */
 337:Generated_Source\PSoC6\pdl\middleware\ble/cy_ble.c ****     (void)Cy_SysPm_RegisterCallback(&bleDeepSleepCallback);
 338:Generated_Source\PSoC6\pdl\middleware\ble/cy_ble.c ****     
 339:Generated_Source\PSoC6\pdl\middleware\ble/cy_ble.c ****     /* Register Sleep mode callback only in dual core mode for the host core */
 340:Generated_Source\PSoC6\pdl\middleware\ble/cy_ble.c ****     #if(CY_BLE_STACK_MODE_HOST_IPC)
 341:Generated_Source\PSoC6\pdl\middleware\ble/cy_ble.c ****     {
 342:Generated_Source\PSoC6\pdl\middleware\ble/cy_ble.c ****         /* Register BLE callback for Sleep support */
 343:Generated_Source\PSoC6\pdl\middleware\ble/cy_ble.c ****         (void)Cy_SysPm_RegisterCallback(&bleSleepCallback);
 344:Generated_Source\PSoC6\pdl\middleware\ble/cy_ble.c ****     }
 345:Generated_Source\PSoC6\pdl\middleware\ble/cy_ble.c ****     #endif /* (CY_BLE_STACK_MODE_HOST_IPC) */
 346:Generated_Source\PSoC6\pdl\middleware\ble/cy_ble.c **** #endif  /* (CY_BLE_USE_DEEP_SLEEP != 0u) */
 347:Generated_Source\PSoC6\pdl\middleware\ble/cy_ble.c ****     
 348:Generated_Source\PSoC6\pdl\middleware\ble/cy_ble.c **** #if(CY_BLE_SHARING_MODE_EXPORT)
 349:Generated_Source\PSoC6\pdl\middleware\ble/cy_ble.c ****     if(cy_ble_stackMemoryRam == NULL)
 350:Generated_Source\PSoC6\pdl\middleware\ble/cy_ble.c ****     {
 351:Generated_Source\PSoC6\pdl\middleware\ble/cy_ble.c ****         cy_ble_stackMemoryRam = (uint8 *)malloc(CY_BLE_STACK_RAM_SIZE);
 352:Generated_Source\PSoC6\pdl\middleware\ble/cy_ble.c ****         if(cy_ble_stackMemoryRam == NULL)
 353:Generated_Source\PSoC6\pdl\middleware\ble/cy_ble.c ****         {
 354:Generated_Source\PSoC6\pdl\middleware\ble/cy_ble.c ****             apiResult = CY_BLE_ERROR_MEMORY_ALLOCATION_FAILED;
 355:Generated_Source\PSoC6\pdl\middleware\ble/cy_ble.c ****         }
 356:Generated_Source\PSoC6\pdl\middleware\ble/cy_ble.c ****     }
 357:Generated_Source\PSoC6\pdl\middleware\ble/cy_ble.c **** #endif /* CY_BLE_SHARING_MODE_EXPORT */
 358:Generated_Source\PSoC6\pdl\middleware\ble/cy_ble.c ****     
 359:Generated_Source\PSoC6\pdl\middleware\ble/cy_ble.c ****     if(apiResult == CY_BLE_SUCCESS)
 360:Generated_Source\PSoC6\pdl\middleware\ble/cy_ble.c ****     {
 361:Generated_Source\PSoC6\pdl\middleware\ble/cy_ble.c ****     #if (CY_BLE_DLE_FEATURE_ENABLED)
 362:Generated_Source\PSoC6\pdl\middleware\ble/cy_ble.c ****         Cy_BLE_EnableDleFeature();              /* Enable DLE code in the stack */
 363:Generated_Source\PSoC6\pdl\middleware\ble/cy_ble.c ****     #endif /* CY_BLE_DLE_FEATURE_ENABLED */
 364:Generated_Source\PSoC6\pdl\middleware\ble/cy_ble.c **** 
 365:Generated_Source\PSoC6\pdl\middleware\ble/cy_ble.c ****     #if (CY_BLE_LL_PRIVACY_FEATURE_ENABLED)
 366:Generated_Source\PSoC6\pdl\middleware\ble/cy_ble.c ****         Cy_BLE_EnablePrivacyFeature();          /* Enable LL Privacy code in the stack */
 367:Generated_Source\PSoC6\pdl\middleware\ble/cy_ble.c ****     #endif /* CY_BLE_LL_PRIVACY_FEATURE_ENABLED */
 368:Generated_Source\PSoC6\pdl\middleware\ble/cy_ble.c **** 
 369:Generated_Source\PSoC6\pdl\middleware\ble/cy_ble.c ****     #if (CY_BLE_PHY_UPDATE_FEATURE_ENABLED)
 370:Generated_Source\PSoC6\pdl\middleware\ble/cy_ble.c ****         Cy_BLE_EnablePhyUpdateFeature();        /* Enable PHY Update code in the stack */
 371:Generated_Source\PSoC6\pdl\middleware\ble/cy_ble.c ****     #endif /* CY_BLE_PHY_UPDATE_FEATURE_ENABLED */
 372:Generated_Source\PSoC6\pdl\middleware\ble/cy_ble.c **** 
ARM GAS  C:\Users\hkmnt\AppData\Local\Temp\ccXcTUuf.s 			page 8


 373:Generated_Source\PSoC6\pdl\middleware\ble/cy_ble.c ****         apiResult = Cy_BLE_StackSetFeatureConfig(&stackInitParam.stackConfig);
 374:Generated_Source\PSoC6\pdl\middleware\ble/cy_ble.c ****     }
 375:Generated_Source\PSoC6\pdl\middleware\ble/cy_ble.c ****     
 376:Generated_Source\PSoC6\pdl\middleware\ble/cy_ble.c ****     if(apiResult == CY_BLE_SUCCESS)
 377:Generated_Source\PSoC6\pdl\middleware\ble/cy_ble.c ****     {
 378:Generated_Source\PSoC6\pdl\middleware\ble/cy_ble.c ****         stackInitParam.memParam.memoryHeapPtr = cy_ble_stackMemoryRam;
 379:Generated_Source\PSoC6\pdl\middleware\ble/cy_ble.c **** 
 380:Generated_Source\PSoC6\pdl\middleware\ble/cy_ble.c ****         /* Configure parameter for Radio PA calibration */
 381:Generated_Source\PSoC6\pdl\middleware\ble/cy_ble.c ****         if(cy_ble_configPtr->paCalConfig != NULL)
 382:Generated_Source\PSoC6\pdl\middleware\ble/cy_ble.c ****         {
 383:Generated_Source\PSoC6\pdl\middleware\ble/cy_ble.c ****             stackInitParam.stackConfig.paCalConfig = *cy_ble_configPtr->paCalConfig;
 384:Generated_Source\PSoC6\pdl\middleware\ble/cy_ble.c ****         }
 385:Generated_Source\PSoC6\pdl\middleware\ble/cy_ble.c ****         
 386:Generated_Source\PSoC6\pdl\middleware\ble/cy_ble.c ****         /* Initialize the BLE Stack */
 387:Generated_Source\PSoC6\pdl\middleware\ble/cy_ble.c ****         apiResult = Cy_BLE_StackInit(&stackInitParam);
 388:Generated_Source\PSoC6\pdl\middleware\ble/cy_ble.c **** 
 389:Generated_Source\PSoC6\pdl\middleware\ble/cy_ble.c ****     #if (CY_BLE_MODE_PROFILE)
 390:Generated_Source\PSoC6\pdl\middleware\ble/cy_ble.c ****         if(apiResult == CY_BLE_SUCCESS)
 391:Generated_Source\PSoC6\pdl\middleware\ble/cy_ble.c ****         {
 392:Generated_Source\PSoC6\pdl\middleware\ble/cy_ble.c ****             Cy_BLE_SetState(CY_BLE_STATE_INITIALIZING);
 393:Generated_Source\PSoC6\pdl\middleware\ble/cy_ble.c **** 
 394:Generated_Source\PSoC6\pdl\middleware\ble/cy_ble.c ****         #if (CY_BLE_GAP_ROLE_CENTRAL || CY_BLE_GAP_ROLE_PERIPHERAL)
 395:Generated_Source\PSoC6\pdl\middleware\ble/cy_ble.c ****             (void)memset(&cy_ble_connState, 0, sizeof(cy_ble_connState));
 396:Generated_Source\PSoC6\pdl\middleware\ble/cy_ble.c ****         #endif /* (CY_BLE_GAP_ROLE_CENTRAL || CY_BLE_GAP_ROLE_PERIPHERAL) */
 397:Generated_Source\PSoC6\pdl\middleware\ble/cy_ble.c **** 
 398:Generated_Source\PSoC6\pdl\middleware\ble/cy_ble.c ****         #if (CY_BLE_GAP_ROLE_PERIPHERAL || CY_BLE_GAP_ROLE_BROADCASTER)
 399:Generated_Source\PSoC6\pdl\middleware\ble/cy_ble.c ****             Cy_BLE_SetAdvertisementState(CY_BLE_ADV_STATE_STOPPED);
 400:Generated_Source\PSoC6\pdl\middleware\ble/cy_ble.c ****         #endif  /* (CY_BLE_GAP_ROLE_PERIPHERAL || CY_BLE_GAP_ROLE_BROADCASTER) */
 401:Generated_Source\PSoC6\pdl\middleware\ble/cy_ble.c **** 
 402:Generated_Source\PSoC6\pdl\middleware\ble/cy_ble.c ****         #if (CY_BLE_GAP_ROLE_CENTRAL || CY_BLE_GAP_ROLE_OBSERVER)
 403:Generated_Source\PSoC6\pdl\middleware\ble/cy_ble.c ****             Cy_BLE_SetScanState(CY_BLE_SCAN_STATE_STOPPED);
 404:Generated_Source\PSoC6\pdl\middleware\ble/cy_ble.c ****         #endif /* (CY_BLE_GAP_ROLE_CENTRAL || CY_BLE_GAP_ROLE_OBSERVER) */
 405:Generated_Source\PSoC6\pdl\middleware\ble/cy_ble.c **** 
 406:Generated_Source\PSoC6\pdl\middleware\ble/cy_ble.c ****         #if (CY_BLE_GATT_ROLE_SERVER)
 407:Generated_Source\PSoC6\pdl\middleware\ble/cy_ble.c ****             {
 408:Generated_Source\PSoC6\pdl\middleware\ble/cy_ble.c ****                 cy_stc_ble_gatts_db_info_t dbInfoParam =
 409:Generated_Source\PSoC6\pdl\middleware\ble/cy_ble.c ****                 {
 410:Generated_Source\PSoC6\pdl\middleware\ble/cy_ble.c ****                     .gattDbPtr          = (const cy_stc_ble_gatts_db_t*)cy_ble_configPtr->gattDB,
 411:Generated_Source\PSoC6\pdl\middleware\ble/cy_ble.c ****                     .gattDbTotalEntries = cy_ble_configPtr->params->gattDbIndexCount,
 412:Generated_Source\PSoC6\pdl\middleware\ble/cy_ble.c ****                     .gattDbMaxValue     = CY_BLE_GATT_DB_MAX_VALUE_LEN
 413:Generated_Source\PSoC6\pdl\middleware\ble/cy_ble.c ****                 };
 414:Generated_Source\PSoC6\pdl\middleware\ble/cy_ble.c **** 
 415:Generated_Source\PSoC6\pdl\middleware\ble/cy_ble.c ****                 apiResult = Cy_BLE_GATTS_DbRegister(&dbInfoParam);
 416:Generated_Source\PSoC6\pdl\middleware\ble/cy_ble.c ****             }
 417:Generated_Source\PSoC6\pdl\middleware\ble/cy_ble.c ****         #endif /* CY_BLE_GATT_ROLE_SERVER */
 418:Generated_Source\PSoC6\pdl\middleware\ble/cy_ble.c ****         }
 419:Generated_Source\PSoC6\pdl\middleware\ble/cy_ble.c ****         cy_ble_cmdStatus = 0u;
 420:Generated_Source\PSoC6\pdl\middleware\ble/cy_ble.c ****     #endif /* (CY_BLE_MODE_PROFILE) */
 421:Generated_Source\PSoC6\pdl\middleware\ble/cy_ble.c ****     }
 422:Generated_Source\PSoC6\pdl\middleware\ble/cy_ble.c **** 
 423:Generated_Source\PSoC6\pdl\middleware\ble/cy_ble.c ****     return(apiResult);
 424:Generated_Source\PSoC6\pdl\middleware\ble/cy_ble.c **** }
 425:Generated_Source\PSoC6\pdl\middleware\ble/cy_ble.c **** 
 426:Generated_Source\PSoC6\pdl\middleware\ble/cy_ble.c **** 
 427:Generated_Source\PSoC6\pdl\middleware\ble/cy_ble.c **** /******************************************************************************
 428:Generated_Source\PSoC6\pdl\middleware\ble/cy_ble.c **** * Function Name: Cy_BLE_Disable
 429:Generated_Source\PSoC6\pdl\middleware\ble/cy_ble.c **** ***************************************************************************//**
ARM GAS  C:\Users\hkmnt\AppData\Local\Temp\ccXcTUuf.s 			page 9


 430:Generated_Source\PSoC6\pdl\middleware\ble/cy_ble.c **** *
 431:Generated_Source\PSoC6\pdl\middleware\ble/cy_ble.c **** *  This function stops any ongoing operation in the BLE Stack and forces the
 432:Generated_Source\PSoC6\pdl\middleware\ble/cy_ble.c **** *  BLE Stack to shut down.
 433:Generated_Source\PSoC6\pdl\middleware\ble/cy_ble.c **** *
 434:Generated_Source\PSoC6\pdl\middleware\ble/cy_ble.c **** *  Calling this function results in generation of a 
 435:Generated_Source\PSoC6\pdl\middleware\ble/cy_ble.c **** *  #CY_BLE_EVT_STACK_SHUTDOWN_COMPLETE event on a successful stack shutdown.
 436:Generated_Source\PSoC6\pdl\middleware\ble/cy_ble.c **** *
 437:Generated_Source\PSoC6\pdl\middleware\ble/cy_ble.c **** *  For HCI mode:
 438:Generated_Source\PSoC6\pdl\middleware\ble/cy_ble.c **** *  This is a blocking function and no event is generated.
 439:Generated_Source\PSoC6\pdl\middleware\ble/cy_ble.c **** *  Only #CY_BLE_SUCCESS will be returned and other error codes are not applicable.
 440:Generated_Source\PSoC6\pdl\middleware\ble/cy_ble.c **** *  UART interface will be stopped and UART data will not be processed by stack
 441:Generated_Source\PSoC6\pdl\middleware\ble/cy_ble.c **** *  until Cy_BLE_Enable() is invoked.
 442:Generated_Source\PSoC6\pdl\middleware\ble/cy_ble.c **** *
 443:Generated_Source\PSoC6\pdl\middleware\ble/cy_ble.c **** * \return
 444:Generated_Source\PSoC6\pdl\middleware\ble/cy_ble.c **** * \ref cy_en_ble_api_result_t : Return value indicates if the function succeeded or
 445:Generated_Source\PSoC6\pdl\middleware\ble/cy_ble.c **** *  failed. The following are possible error codes.
 446:Generated_Source\PSoC6\pdl\middleware\ble/cy_ble.c **** *
 447:Generated_Source\PSoC6\pdl\middleware\ble/cy_ble.c **** *  <table>
 448:Generated_Source\PSoC6\pdl\middleware\ble/cy_ble.c **** *    <tr>
 449:Generated_Source\PSoC6\pdl\middleware\ble/cy_ble.c **** *      <th>Error codes</th>
 450:Generated_Source\PSoC6\pdl\middleware\ble/cy_ble.c **** *      <th>Description</th>
 451:Generated_Source\PSoC6\pdl\middleware\ble/cy_ble.c **** *    </tr>
 452:Generated_Source\PSoC6\pdl\middleware\ble/cy_ble.c **** *    <tr>
 453:Generated_Source\PSoC6\pdl\middleware\ble/cy_ble.c **** *      <td>CY_BLE_SUCCESS</td>
 454:Generated_Source\PSoC6\pdl\middleware\ble/cy_ble.c **** *      <td>On successful operation.</td>
 455:Generated_Source\PSoC6\pdl\middleware\ble/cy_ble.c **** *    </tr>
 456:Generated_Source\PSoC6\pdl\middleware\ble/cy_ble.c **** *    <tr>
 457:Generated_Source\PSoC6\pdl\middleware\ble/cy_ble.c **** *      <td>CY_BLE_ERROR_INVALID_OPERATION</td>
 458:Generated_Source\PSoC6\pdl\middleware\ble/cy_ble.c **** *      <td>On calling Cy_BLE_Disable before calling Cy_BLE_Enable() 
 459:Generated_Source\PSoC6\pdl\middleware\ble/cy_ble.c **** *          or on Controller core.</td>
 460:Generated_Source\PSoC6\pdl\middleware\ble/cy_ble.c **** *    </tr>
 461:Generated_Source\PSoC6\pdl\middleware\ble/cy_ble.c **** *  </table>
 462:Generated_Source\PSoC6\pdl\middleware\ble/cy_ble.c **** *
 463:Generated_Source\PSoC6\pdl\middleware\ble/cy_ble.c **** ******************************************************************************/
 464:Generated_Source\PSoC6\pdl\middleware\ble/cy_ble.c **** cy_en_ble_api_result_t Cy_BLE_Disable(void)
 465:Generated_Source\PSoC6\pdl\middleware\ble/cy_ble.c **** {
 466:Generated_Source\PSoC6\pdl\middleware\ble/cy_ble.c ****     cy_en_ble_api_result_t apiResult;
 467:Generated_Source\PSoC6\pdl\middleware\ble/cy_ble.c **** 
 468:Generated_Source\PSoC6\pdl\middleware\ble/cy_ble.c **** #if (CY_BLE_STACK_IPC_CONTR_CORE)
 469:Generated_Source\PSoC6\pdl\middleware\ble/cy_ble.c ****     /* To stop Controller call Cy_BLE_Disable() function on Host core */
 470:Generated_Source\PSoC6\pdl\middleware\ble/cy_ble.c ****     apiResult = CY_BLE_SUCCESS;             
 471:Generated_Source\PSoC6\pdl\middleware\ble/cy_ble.c **** #else
 472:Generated_Source\PSoC6\pdl\middleware\ble/cy_ble.c ****     /* Stops all ongoing activities */
 473:Generated_Source\PSoC6\pdl\middleware\ble/cy_ble.c ****     apiResult = Cy_BLE_StackShutdown();
 474:Generated_Source\PSoC6\pdl\middleware\ble/cy_ble.c ****     
 475:Generated_Source\PSoC6\pdl\middleware\ble/cy_ble.c ****     #if (CY_BLE_SHARING_MODE_EXPORT)
 476:Generated_Source\PSoC6\pdl\middleware\ble/cy_ble.c ****     if(cy_ble_stackMemoryRam != NULL)
 477:Generated_Source\PSoC6\pdl\middleware\ble/cy_ble.c ****     {
 478:Generated_Source\PSoC6\pdl\middleware\ble/cy_ble.c ****         free(cy_ble_stackMemoryRam);
 479:Generated_Source\PSoC6\pdl\middleware\ble/cy_ble.c ****     }
 480:Generated_Source\PSoC6\pdl\middleware\ble/cy_ble.c ****     #endif /* CY_BLE_SHARING_MODE_EXPORT */
 481:Generated_Source\PSoC6\pdl\middleware\ble/cy_ble.c **** #endif     /* CY_BLE_STACK_IPC_CONTR_CORE */
 482:Generated_Source\PSoC6\pdl\middleware\ble/cy_ble.c **** 
 483:Generated_Source\PSoC6\pdl\middleware\ble/cy_ble.c ****     return(apiResult);
 484:Generated_Source\PSoC6\pdl\middleware\ble/cy_ble.c **** }
 485:Generated_Source\PSoC6\pdl\middleware\ble/cy_ble.c **** 
 486:Generated_Source\PSoC6\pdl\middleware\ble/cy_ble.c **** 
ARM GAS  C:\Users\hkmnt\AppData\Local\Temp\ccXcTUuf.s 			page 10


 487:Generated_Source\PSoC6\pdl\middleware\ble/cy_ble.c **** /*******************************************************************************
 488:Generated_Source\PSoC6\pdl\middleware\ble/cy_ble.c **** * Function Name: Cy_BLE_ConfigureExtPA
 489:Generated_Source\PSoC6\pdl\middleware\ble/cy_ble.c **** ****************************************************************************//**
 490:Generated_Source\PSoC6\pdl\middleware\ble/cy_ble.c **** *
 491:Generated_Source\PSoC6\pdl\middleware\ble/cy_ble.c **** *  This function controls the external Power Amplifier and Low Noise Amplifier
 492:Generated_Source\PSoC6\pdl\middleware\ble/cy_ble.c **** *  outputs.
 493:Generated_Source\PSoC6\pdl\middleware\ble/cy_ble.c **** *
 494:Generated_Source\PSoC6\pdl\middleware\ble/cy_ble.c **** * \param controlValue Enables and controls polarity of the outputs.
 495:Generated_Source\PSoC6\pdl\middleware\ble/cy_ble.c **** *   To control external PA and LNA, the following mask defines are used:
 496:Generated_Source\PSoC6\pdl\middleware\ble/cy_ble.c **** *
 497:Generated_Source\PSoC6\pdl\middleware\ble/cy_ble.c **** *   - BLE_BLESS_EXT_PA_LNA_CTRL_ENABLE_EXT_PA_LNA_Msk - When set to 1, enables
 498:Generated_Source\PSoC6\pdl\middleware\ble/cy_ble.c **** *       the external PA & LNA and BLESS power profile for energy profiler
 499:Generated_Source\PSoC6\pdl\middleware\ble/cy_ble.c **** *   - BLE_BLESS_EXT_PA_LNA_CTRL_CHIP_EN_POL_Msk - Controls the polarity of the 
 500:Generated_Source\PSoC6\pdl\middleware\ble/cy_ble.c **** *       chip-enable control signal:
 501:Generated_Source\PSoC6\pdl\middleware\ble/cy_ble.c **** *       * 0 - High enable, Low disable
 502:Generated_Source\PSoC6\pdl\middleware\ble/cy_ble.c **** *       * 1 - Low enable, High disable, Incorrect power profile
 503:Generated_Source\PSoC6\pdl\middleware\ble/cy_ble.c **** *   - BLE_BLESS_EXT_PA_LNA_CTRL_PA_CTRL_POL_Msk - Controls the polarity of the PA
 504:Generated_Source\PSoC6\pdl\middleware\ble/cy_ble.c **** *       control signal:
 505:Generated_Source\PSoC6\pdl\middleware\ble/cy_ble.c **** *       * 0 - High enable, Low disable
 506:Generated_Source\PSoC6\pdl\middleware\ble/cy_ble.c **** *       * 1 - Low enable, High disable, Incorrect power profile
 507:Generated_Source\PSoC6\pdl\middleware\ble/cy_ble.c **** *   - BLE_BLESS_EXT_PA_LNA_CTRL_LNA_CTRL_POL_Msk - Controls the polarity of the LNA
 508:Generated_Source\PSoC6\pdl\middleware\ble/cy_ble.c **** *       control signal:
 509:Generated_Source\PSoC6\pdl\middleware\ble/cy_ble.c **** *       * 0 - High enable, Low disable
 510:Generated_Source\PSoC6\pdl\middleware\ble/cy_ble.c **** *       * 1 - Low enable, High disable, Incorrect power profile
 511:Generated_Source\PSoC6\pdl\middleware\ble/cy_ble.c **** *   - BLE_BLESS_EXT_PA_LNA_CTRL_OUT_EN_DRIVE_VAL_Msk  - Configures the drive value
 512:Generated_Source\PSoC6\pdl\middleware\ble/cy_ble.c **** *       on the output enables of PA, LNA and CHI_EN signals
 513:Generated_Source\PSoC6\pdl\middleware\ble/cy_ble.c **** *       * 0 - drive 0 on the output enable signals
 514:Generated_Source\PSoC6\pdl\middleware\ble/cy_ble.c **** *       * 1 - drive 1 on the output enable signals
 515:Generated_Source\PSoC6\pdl\middleware\ble/cy_ble.c **** *
 516:Generated_Source\PSoC6\pdl\middleware\ble/cy_ble.c **** * \return
 517:Generated_Source\PSoC6\pdl\middleware\ble/cy_ble.c **** *  None
 518:Generated_Source\PSoC6\pdl\middleware\ble/cy_ble.c **** *
 519:Generated_Source\PSoC6\pdl\middleware\ble/cy_ble.c **** *******************************************************************************/
 520:Generated_Source\PSoC6\pdl\middleware\ble/cy_ble.c **** void Cy_BLE_ConfigureExtPA(uint32_t controlValue)
 521:Generated_Source\PSoC6\pdl\middleware\ble/cy_ble.c **** {
 522:Generated_Source\PSoC6\pdl\middleware\ble/cy_ble.c ****     BLE->BLESS.EXT_PA_LNA_CTRL = controlValue;
 523:Generated_Source\PSoC6\pdl\middleware\ble/cy_ble.c **** }
 524:Generated_Source\PSoC6\pdl\middleware\ble/cy_ble.c **** 
 525:Generated_Source\PSoC6\pdl\middleware\ble/cy_ble.c **** #if (CY_BLE_INTR_NOTIFY_FEATURE_ENABLED) && (CY_BLE_HOST_CORE)
 526:Generated_Source\PSoC6\pdl\middleware\ble/cy_ble.c **** /*******************************************************************************
 527:Generated_Source\PSoC6\pdl\middleware\ble/cy_ble.c **** * Function Name: Cy_BLE_RegisterInterruptCallback
 528:Generated_Source\PSoC6\pdl\middleware\ble/cy_ble.c **** ****************************************************************************//**
 529:Generated_Source\PSoC6\pdl\middleware\ble/cy_ble.c **** *
 530:Generated_Source\PSoC6\pdl\middleware\ble/cy_ble.c **** *  This function registers a callback to expose BLE interrupt notifications to an 
 531:Generated_Source\PSoC6\pdl\middleware\ble/cy_ble.c **** *  application that indicates a different link layer and radio state transition
 532:Generated_Source\PSoC6\pdl\middleware\ble/cy_ble.c **** *  to the user from the BLESS interrupt context. This callback is triggered at 
 533:Generated_Source\PSoC6\pdl\middleware\ble/cy_ble.c **** *  the beginning of a received BLESS interrupt (based on the registered 
 534:Generated_Source\PSoC6\pdl\middleware\ble/cy_ble.c **** *  interrupt mask).
 535:Generated_Source\PSoC6\pdl\middleware\ble/cy_ble.c **** *
 536:Generated_Source\PSoC6\pdl\middleware\ble/cy_ble.c **** *  An application can use an interrupt callback to know when: 
 537:Generated_Source\PSoC6\pdl\middleware\ble/cy_ble.c **** *  * the RF activity is about to begin/end; 
 538:Generated_Source\PSoC6\pdl\middleware\ble/cy_ble.c **** *  * the BLE device changes its state from advertising to connected; 
 539:Generated_Source\PSoC6\pdl\middleware\ble/cy_ble.c **** *  * BLESS transits between active and low-power modes.
 540:Generated_Source\PSoC6\pdl\middleware\ble/cy_ble.c **** *    
 541:Generated_Source\PSoC6\pdl\middleware\ble/cy_ble.c **** *  These BLESS real-time states can be used to synchronize
 542:Generated_Source\PSoC6\pdl\middleware\ble/cy_ble.c **** *  an application with the BLESS or prevent radio interference with other 
 543:Generated_Source\PSoC6\pdl\middleware\ble/cy_ble.c **** *  peripherals, etc.
ARM GAS  C:\Users\hkmnt\AppData\Local\Temp\ccXcTUuf.s 			page 11


 544:Generated_Source\PSoC6\pdl\middleware\ble/cy_ble.c **** *    
 545:Generated_Source\PSoC6\pdl\middleware\ble/cy_ble.c **** *  BLE interrupt notifications feature enables via define in cy_ble_config.h:
 546:Generated_Source\PSoC6\pdl\middleware\ble/cy_ble.c **** *  \code   
 547:Generated_Source\PSoC6\pdl\middleware\ble/cy_ble.c **** *  #define CY_BLE_INTR_NOTIFY_FEATURE_ENABLE       (1u)
 548:Generated_Source\PSoC6\pdl\middleware\ble/cy_ble.c **** *  \endcode    
 549:Generated_Source\PSoC6\pdl\middleware\ble/cy_ble.c **** *
 550:Generated_Source\PSoC6\pdl\middleware\ble/cy_ble.c **** *  BLE Dual mode requires an additional define IPC channel and IPC Interrupt 
 551:Generated_Source\PSoC6\pdl\middleware\ble/cy_ble.c **** *  structure to send notifications from the controller core to host core. 
 552:Generated_Source\PSoC6\pdl\middleware\ble/cy_ble.c **** *  Use the following defines:
 553:Generated_Source\PSoC6\pdl\middleware\ble/cy_ble.c **** *  \code    
 554:Generated_Source\PSoC6\pdl\middleware\ble/cy_ble.c **** *  #define CY_BLE_INTR_NOTIFY_IPC_CHAN             (9..15)
 555:Generated_Source\PSoC6\pdl\middleware\ble/cy_ble.c **** *  #define CY_BLE_INTR_NOTIFY_IPC_INTR             (9..15)
 556:Generated_Source\PSoC6\pdl\middleware\ble/cy_ble.c **** *  #define CY_BLE_INTR_NOTIFY_IPC_INTR_PRIOR       (0..7)  
 557:Generated_Source\PSoC6\pdl\middleware\ble/cy_ble.c **** *  \endcode
 558:Generated_Source\PSoC6\pdl\middleware\ble/cy_ble.c **** *    
 559:Generated_Source\PSoC6\pdl\middleware\ble/cy_ble.c **** *  \param intrMask
 560:Generated_Source\PSoC6\pdl\middleware\ble/cy_ble.c **** *  All interrupts masks are specified in the #cy_en_ble_interrupt_callback_feature_t
 561:Generated_Source\PSoC6\pdl\middleware\ble/cy_ble.c **** *  enumeration.
 562:Generated_Source\PSoC6\pdl\middleware\ble/cy_ble.c **** *    
 563:Generated_Source\PSoC6\pdl\middleware\ble/cy_ble.c **** *  \param CallBack
 564:Generated_Source\PSoC6\pdl\middleware\ble/cy_ble.c **** *  The pointer to an application notify callback.
 565:Generated_Source\PSoC6\pdl\middleware\ble/cy_ble.c **** *
 566:Generated_Source\PSoC6\pdl\middleware\ble/cy_ble.c **** * \return
 567:Generated_Source\PSoC6\pdl\middleware\ble/cy_ble.c **** * \ref cy_en_ble_api_result_t : The return value indicates if the function succeeded or
 568:Generated_Source\PSoC6\pdl\middleware\ble/cy_ble.c **** *  failed. The possible error codes:
 569:Generated_Source\PSoC6\pdl\middleware\ble/cy_ble.c **** *
 570:Generated_Source\PSoC6\pdl\middleware\ble/cy_ble.c **** *    Errors codes                   | Description
 571:Generated_Source\PSoC6\pdl\middleware\ble/cy_ble.c **** *    ------------                   | -----------
 572:Generated_Source\PSoC6\pdl\middleware\ble/cy_ble.c **** *    CY_BLE_SUCCESS                 | The callback is registered successfully.
 573:Generated_Source\PSoC6\pdl\middleware\ble/cy_ble.c **** *    CY_BLE_ERROR_INVALID_PARAMETER | Validation of the input parameters failed.
 574:Generated_Source\PSoC6\pdl\middleware\ble/cy_ble.c **** *    CY_BLE_ERROR_INVALID_OPERATION | The IPC channel is busy (Dual core mode only).
 575:Generated_Source\PSoC6\pdl\middleware\ble/cy_ble.c **** *
 576:Generated_Source\PSoC6\pdl\middleware\ble/cy_ble.c **** *******************************************************************************/   
 577:Generated_Source\PSoC6\pdl\middleware\ble/cy_ble.c **** cy_en_ble_api_result_t Cy_BLE_RegisterInterruptCallback(uint32_t intrMask, cy_ble_intr_callback_t C
 578:Generated_Source\PSoC6\pdl\middleware\ble/cy_ble.c **** { 
 579:Generated_Source\PSoC6\pdl\middleware\ble/cy_ble.c ****     cy_en_ble_api_result_t apiResult = CY_BLE_SUCCESS;
 580:Generated_Source\PSoC6\pdl\middleware\ble/cy_ble.c ****     
 581:Generated_Source\PSoC6\pdl\middleware\ble/cy_ble.c ****     if(CallBack != NULL)
 582:Generated_Source\PSoC6\pdl\middleware\ble/cy_ble.c ****     {
 583:Generated_Source\PSoC6\pdl\middleware\ble/cy_ble.c ****         /* Store the application callback and interrupt mask */
 584:Generated_Source\PSoC6\pdl\middleware\ble/cy_ble.c ****         Cy_BLE_InterruptCallback = CallBack;
 585:Generated_Source\PSoC6\pdl\middleware\ble/cy_ble.c ****         intrNotify.mask = intrMask;
 586:Generated_Source\PSoC6\pdl\middleware\ble/cy_ble.c ****         
 587:Generated_Source\PSoC6\pdl\middleware\ble/cy_ble.c ****         /* Set up the IPC for Dual Stack mode */
 588:Generated_Source\PSoC6\pdl\middleware\ble/cy_ble.c ****         #if(CY_BLE_STACK_MODE_HOST_IPC)
 589:Generated_Source\PSoC6\pdl\middleware\ble/cy_ble.c ****         {  
 590:Generated_Source\PSoC6\pdl\middleware\ble/cy_ble.c ****             if(!intrNotify.configFlag)
 591:Generated_Source\PSoC6\pdl\middleware\ble/cy_ble.c ****             {
 592:Generated_Source\PSoC6\pdl\middleware\ble/cy_ble.c ****                 uint32_t rTimeout = 2000u; /* us */
 593:Generated_Source\PSoC6\pdl\middleware\ble/cy_ble.c ****                 cy_en_ipc_pipe_status_t ipcStatus;
 594:Generated_Source\PSoC6\pdl\middleware\ble/cy_ble.c ****                 cy_stc_sysint_t intrConfig =
 595:Generated_Source\PSoC6\pdl\middleware\ble/cy_ble.c ****                 {
 596:Generated_Source\PSoC6\pdl\middleware\ble/cy_ble.c ****                     .intrPriority = (uint32_t)CY_BLE_INTR_NOTIFY_IPC_INTR_PRIOR,
 597:Generated_Source\PSoC6\pdl\middleware\ble/cy_ble.c ****                     .intrSrc      = (IRQn_Type)CY_IPC_INTR_NUM_TO_VECT((int32_t)CY_BLE_INTR_NOTIFY_
 598:Generated_Source\PSoC6\pdl\middleware\ble/cy_ble.c ****                 };
 599:Generated_Source\PSoC6\pdl\middleware\ble/cy_ble.c ****             
 600:Generated_Source\PSoC6\pdl\middleware\ble/cy_ble.c ****                 /* Initialize the interrupt controller for CM4 and IPC Interrupt */
ARM GAS  C:\Users\hkmnt\AppData\Local\Temp\ccXcTUuf.s 			page 12


 601:Generated_Source\PSoC6\pdl\middleware\ble/cy_ble.c ****                 (void)Cy_SysInt_Init(&intrConfig, &Cy_BLE_HAL_IntrNotifyIpcHandler);
 602:Generated_Source\PSoC6\pdl\middleware\ble/cy_ble.c ****                 NVIC_EnableIRQ(intrConfig.intrSrc);
 603:Generated_Source\PSoC6\pdl\middleware\ble/cy_ble.c ****         
 604:Generated_Source\PSoC6\pdl\middleware\ble/cy_ble.c ****                 /* Do not bring up an IPC release interrupt here, only set up a notify interrupt */
 605:Generated_Source\PSoC6\pdl\middleware\ble/cy_ble.c ****                 Cy_IPC_Drv_SetInterruptMask(Cy_IPC_Drv_GetIntrBaseAddr(CY_BLE_INTR_NOTIFY_IPC_INTR)
 606:Generated_Source\PSoC6\pdl\middleware\ble/cy_ble.c ****                                             CY_IPC_NO_NOTIFICATION, (1uL << CY_BLE_INTR_NOTIFY_IPC_
 607:Generated_Source\PSoC6\pdl\middleware\ble/cy_ble.c ****                 
 608:Generated_Source\PSoC6\pdl\middleware\ble/cy_ble.c ****                 /* 
 609:Generated_Source\PSoC6\pdl\middleware\ble/cy_ble.c ****                  * Send the address of the intrNotify structure to the controller core via CyPipe
 610:Generated_Source\PSoC6\pdl\middleware\ble/cy_ble.c ****                  * The IPC Pipe can be busy, then try sending a message during 2 ms. 
 611:Generated_Source\PSoC6\pdl\middleware\ble/cy_ble.c ****                  */
 612:Generated_Source\PSoC6\pdl\middleware\ble/cy_ble.c ****                 do
 613:Generated_Source\PSoC6\pdl\middleware\ble/cy_ble.c ****                 {
 614:Generated_Source\PSoC6\pdl\middleware\ble/cy_ble.c ****                     ipcStatus = Cy_IPC_Pipe_SendMessage(CY_BLE_IPC_CONTROLLER_ADDR, CY_BLE_IPC_HOST
 615:Generated_Source\PSoC6\pdl\middleware\ble/cy_ble.c ****                                                         (void *)&intrNotify, NULL);
 616:Generated_Source\PSoC6\pdl\middleware\ble/cy_ble.c ****                     Cy_SysLib_DelayUs(1u);
 617:Generated_Source\PSoC6\pdl\middleware\ble/cy_ble.c ****                     rTimeout--;
 618:Generated_Source\PSoC6\pdl\middleware\ble/cy_ble.c ****                 }while((ipcStatus != CY_IPC_PIPE_SUCCESS) && (rTimeout != 0u));
 619:Generated_Source\PSoC6\pdl\middleware\ble/cy_ble.c ****               
 620:Generated_Source\PSoC6\pdl\middleware\ble/cy_ble.c ****                 if(ipcStatus != CY_IPC_PIPE_SUCCESS)
 621:Generated_Source\PSoC6\pdl\middleware\ble/cy_ble.c ****                 {
 622:Generated_Source\PSoC6\pdl\middleware\ble/cy_ble.c ****                     apiResult = CY_BLE_ERROR_INVALID_OPERATION;
 623:Generated_Source\PSoC6\pdl\middleware\ble/cy_ble.c ****                 }
 624:Generated_Source\PSoC6\pdl\middleware\ble/cy_ble.c ****             }
 625:Generated_Source\PSoC6\pdl\middleware\ble/cy_ble.c ****         }
 626:Generated_Source\PSoC6\pdl\middleware\ble/cy_ble.c ****         #else 
 627:Generated_Source\PSoC6\pdl\middleware\ble/cy_ble.c ****             intrNotifyPtr = &intrNotify; 
 628:Generated_Source\PSoC6\pdl\middleware\ble/cy_ble.c ****         #endif /* CY_BLE_STACK_MODE_HOST_IPC */
 629:Generated_Source\PSoC6\pdl\middleware\ble/cy_ble.c ****        
 630:Generated_Source\PSoC6\pdl\middleware\ble/cy_ble.c ****     }
 631:Generated_Source\PSoC6\pdl\middleware\ble/cy_ble.c ****     else
 632:Generated_Source\PSoC6\pdl\middleware\ble/cy_ble.c ****     {
 633:Generated_Source\PSoC6\pdl\middleware\ble/cy_ble.c ****         apiResult = CY_BLE_ERROR_INVALID_PARAMETER;
 634:Generated_Source\PSoC6\pdl\middleware\ble/cy_ble.c ****     }
 635:Generated_Source\PSoC6\pdl\middleware\ble/cy_ble.c ****     return apiResult; 
 636:Generated_Source\PSoC6\pdl\middleware\ble/cy_ble.c **** }
 637:Generated_Source\PSoC6\pdl\middleware\ble/cy_ble.c **** 
 638:Generated_Source\PSoC6\pdl\middleware\ble/cy_ble.c **** 
 639:Generated_Source\PSoC6\pdl\middleware\ble/cy_ble.c **** /*******************************************************************************
 640:Generated_Source\PSoC6\pdl\middleware\ble/cy_ble.c **** * Function Name: Cy_BLE_UnRegisterInterruptCallback
 641:Generated_Source\PSoC6\pdl\middleware\ble/cy_ble.c **** ****************************************************************************//**
 642:Generated_Source\PSoC6\pdl\middleware\ble/cy_ble.c **** *
 643:Generated_Source\PSoC6\pdl\middleware\ble/cy_ble.c **** *  This function un-registers callback which exposed BLE interrupt 
 644:Generated_Source\PSoC6\pdl\middleware\ble/cy_ble.c **** *  notifications to the application. 
 645:Generated_Source\PSoC6\pdl\middleware\ble/cy_ble.c **** *
 646:Generated_Source\PSoC6\pdl\middleware\ble/cy_ble.c **** * \return
 647:Generated_Source\PSoC6\pdl\middleware\ble/cy_ble.c **** * \ref cy_en_ble_api_result_t : Return value indicates if the function succeeded or
 648:Generated_Source\PSoC6\pdl\middleware\ble/cy_ble.c **** *  failed. The following are possible error codes.
 649:Generated_Source\PSoC6\pdl\middleware\ble/cy_ble.c **** *    
 650:Generated_Source\PSoC6\pdl\middleware\ble/cy_ble.c **** *    Errors codes                   | Description
 651:Generated_Source\PSoC6\pdl\middleware\ble/cy_ble.c **** *    ------------                   | -----------
 652:Generated_Source\PSoC6\pdl\middleware\ble/cy_ble.c **** *    CY_BLE_SUCCESS                 | The callback is registered successfully.
 653:Generated_Source\PSoC6\pdl\middleware\ble/cy_ble.c **** *    CY_BLE_ERROR_INVALID_OPERATION | The IPC channel is busy (Dual core mode only).
 654:Generated_Source\PSoC6\pdl\middleware\ble/cy_ble.c **** *
 655:Generated_Source\PSoC6\pdl\middleware\ble/cy_ble.c **** *******************************************************************************/
 656:Generated_Source\PSoC6\pdl\middleware\ble/cy_ble.c **** cy_en_ble_api_result_t Cy_BLE_UnRegisterInterruptCallback(void)
 657:Generated_Source\PSoC6\pdl\middleware\ble/cy_ble.c **** {
ARM GAS  C:\Users\hkmnt\AppData\Local\Temp\ccXcTUuf.s 			page 13


 658:Generated_Source\PSoC6\pdl\middleware\ble/cy_ble.c ****     cy_en_ble_api_result_t apiResult = CY_BLE_SUCCESS;
 659:Generated_Source\PSoC6\pdl\middleware\ble/cy_ble.c ****     if(Cy_BLE_InterruptCallback != NULL)
 660:Generated_Source\PSoC6\pdl\middleware\ble/cy_ble.c ****     {
 661:Generated_Source\PSoC6\pdl\middleware\ble/cy_ble.c ****         /* Clean interrupt mask */
 662:Generated_Source\PSoC6\pdl\middleware\ble/cy_ble.c ****         apiResult = Cy_BLE_RegisterInterruptCallback((uint32_t)CY_BLE_INTR_CALLBACK_NONE, 
 663:Generated_Source\PSoC6\pdl\middleware\ble/cy_ble.c ****                                                      Cy_BLE_InterruptCallback);
 664:Generated_Source\PSoC6\pdl\middleware\ble/cy_ble.c ****         if(apiResult == CY_BLE_SUCCESS)
 665:Generated_Source\PSoC6\pdl\middleware\ble/cy_ble.c ****         {
 666:Generated_Source\PSoC6\pdl\middleware\ble/cy_ble.c ****             /* Clean callback pointer */
 667:Generated_Source\PSoC6\pdl\middleware\ble/cy_ble.c ****             Cy_BLE_InterruptCallback = NULL;
 668:Generated_Source\PSoC6\pdl\middleware\ble/cy_ble.c ****         }
 669:Generated_Source\PSoC6\pdl\middleware\ble/cy_ble.c ****     }
 670:Generated_Source\PSoC6\pdl\middleware\ble/cy_ble.c ****     return(apiResult);    
 671:Generated_Source\PSoC6\pdl\middleware\ble/cy_ble.c **** }
 672:Generated_Source\PSoC6\pdl\middleware\ble/cy_ble.c **** 
 673:Generated_Source\PSoC6\pdl\middleware\ble/cy_ble.c **** #endif /* (CY_BLE_INTR_NOTIFY_FEATURE_ENABLED) && (CY_BLE_HOST_CORE) */
 674:Generated_Source\PSoC6\pdl\middleware\ble/cy_ble.c **** 
 675:Generated_Source\PSoC6\pdl\middleware\ble/cy_ble.c **** 
 676:Generated_Source\PSoC6\pdl\middleware\ble/cy_ble.c **** #if (CY_BLE_MODE_PROFILE)
 677:Generated_Source\PSoC6\pdl\middleware\ble/cy_ble.c **** 
 678:Generated_Source\PSoC6\pdl\middleware\ble/cy_ble.c **** /*******************************************************************************
 679:Generated_Source\PSoC6\pdl\middleware\ble/cy_ble.c **** * Function Name: Cy_BLE_RegisterAppHostCallback
 680:Generated_Source\PSoC6\pdl\middleware\ble/cy_ble.c **** ****************************************************************************//**
 681:Generated_Source\PSoC6\pdl\middleware\ble/cy_ble.c **** *
 682:Generated_Source\PSoC6\pdl\middleware\ble/cy_ble.c **** * This function registers an application Host callback (BLE RTOS hook). 
 683:Generated_Source\PSoC6\pdl\middleware\ble/cy_ble.c **** * The user can trigger an RTOS BLE task if the application Host callback was
 684:Generated_Source\PSoC6\pdl\middleware\ble/cy_ble.c **** * called.
 685:Generated_Source\PSoC6\pdl\middleware\ble/cy_ble.c **** * 
 686:Generated_Source\PSoC6\pdl\middleware\ble/cy_ble.c **** * Theory of operation:
 687:Generated_Source\PSoC6\pdl\middleware\ble/cy_ble.c **** * The BLE Middleware triggers this callback when the BLE Stack controller needs
 688:Generated_Source\PSoC6\pdl\middleware\ble/cy_ble.c **** * to process pending Stack events (by calling Cy_BLE_ProcessEvents()). This
 689:Generated_Source\PSoC6\pdl\middleware\ble/cy_ble.c **** * callback executes from within an ISR and must be very short.  
 690:Generated_Source\PSoC6\pdl\middleware\ble/cy_ble.c **** *    
 691:Generated_Source\PSoC6\pdl\middleware\ble/cy_ble.c **** * \note The application Host callback is called from the context of a high-
 692:Generated_Source\PSoC6\pdl\middleware\ble/cy_ble.c **** * priority ISR. Some RTOS (e.g. FreeRTOS) have restrictions on calling the RTOS
 693:Generated_Source\PSoC6\pdl\middleware\ble/cy_ble.c **** * functions from a high-priority ISR. The user application is responsible for
 694:Generated_Source\PSoC6\pdl\middleware\ble/cy_ble.c **** * integration of the BLE RTOS hook and RTOS functions and must insure that RTOS 
 695:Generated_Source\PSoC6\pdl\middleware\ble/cy_ble.c **** * allows to call RTOS API from BLE interrupt context.  
 696:Generated_Source\PSoC6\pdl\middleware\ble/cy_ble.c **** * If direct call is forbidden one of the possible solutions is to trig a 
 697:Generated_Source\PSoC6\pdl\middleware\ble/cy_ble.c **** * low-priority interrupt from the application Host callback and then call the
 698:Generated_Source\PSoC6\pdl\middleware\ble/cy_ble.c **** * RTOS functions from a low-priority interrupt. For details refer to specific
 699:Generated_Source\PSoC6\pdl\middleware\ble/cy_ble.c **** * RTOS documentation.
 700:Generated_Source\PSoC6\pdl\middleware\ble/cy_ble.c **** *   
 701:Generated_Source\PSoC6\pdl\middleware\ble/cy_ble.c **** * \param CallBack
 702:Generated_Source\PSoC6\pdl\middleware\ble/cy_ble.c **** * The pointer to the application Host callback.
 703:Generated_Source\PSoC6\pdl\middleware\ble/cy_ble.c **** *
 704:Generated_Source\PSoC6\pdl\middleware\ble/cy_ble.c **** * \return
 705:Generated_Source\PSoC6\pdl\middleware\ble/cy_ble.c **** *  Error Codes                        | Description
 706:Generated_Source\PSoC6\pdl\middleware\ble/cy_ble.c **** *  ------------                       | -----------
 707:Generated_Source\PSoC6\pdl\middleware\ble/cy_ble.c **** *   CY_BLE_SUCCESS                    | The callback was registered successfully.
 708:Generated_Source\PSoC6\pdl\middleware\ble/cy_ble.c **** *   CY_BLE_ERROR_INVALID_PARAMETER    | On specifying NULL as the input parameter.
 709:Generated_Source\PSoC6\pdl\middleware\ble/cy_ble.c **** *
 710:Generated_Source\PSoC6\pdl\middleware\ble/cy_ble.c **** *******************************************************************************/
 711:Generated_Source\PSoC6\pdl\middleware\ble/cy_ble.c **** cy_en_ble_api_result_t Cy_BLE_RegisterAppHostCallback(cy_ble_app_notify_callback_t CallBack)
 712:Generated_Source\PSoC6\pdl\middleware\ble/cy_ble.c **** {
 713:Generated_Source\PSoC6\pdl\middleware\ble/cy_ble.c ****     cy_en_ble_api_result_t apiResult = CY_BLE_SUCCESS;
 714:Generated_Source\PSoC6\pdl\middleware\ble/cy_ble.c ****     
ARM GAS  C:\Users\hkmnt\AppData\Local\Temp\ccXcTUuf.s 			page 14


 715:Generated_Source\PSoC6\pdl\middleware\ble/cy_ble.c ****     if(CallBack != NULL)
 716:Generated_Source\PSoC6\pdl\middleware\ble/cy_ble.c ****     {
 717:Generated_Source\PSoC6\pdl\middleware\ble/cy_ble.c ****         Cy_BLE_HostRegisteredCallback = CallBack;
 718:Generated_Source\PSoC6\pdl\middleware\ble/cy_ble.c ****     }
 719:Generated_Source\PSoC6\pdl\middleware\ble/cy_ble.c ****     else
 720:Generated_Source\PSoC6\pdl\middleware\ble/cy_ble.c ****     {
 721:Generated_Source\PSoC6\pdl\middleware\ble/cy_ble.c ****         apiResult = CY_BLE_ERROR_INVALID_PARAMETER;
 722:Generated_Source\PSoC6\pdl\middleware\ble/cy_ble.c ****     }   
 723:Generated_Source\PSoC6\pdl\middleware\ble/cy_ble.c ****     return apiResult;
 724:Generated_Source\PSoC6\pdl\middleware\ble/cy_ble.c **** }
 725:Generated_Source\PSoC6\pdl\middleware\ble/cy_ble.c **** 
 726:Generated_Source\PSoC6\pdl\middleware\ble/cy_ble.c **** /*******************************************************************************
 727:Generated_Source\PSoC6\pdl\middleware\ble/cy_ble.c **** * Function Name: Cy_BLE_UnRegisterAppHostCallback
 728:Generated_Source\PSoC6\pdl\middleware\ble/cy_ble.c **** ****************************************************************************//**
 729:Generated_Source\PSoC6\pdl\middleware\ble/cy_ble.c **** *
 730:Generated_Source\PSoC6\pdl\middleware\ble/cy_ble.c **** * This function un-registers an application Host callback (BLE RTOS hook). 
 731:Generated_Source\PSoC6\pdl\middleware\ble/cy_ble.c **** *
 732:Generated_Source\PSoC6\pdl\middleware\ble/cy_ble.c **** *******************************************************************************/
 733:Generated_Source\PSoC6\pdl\middleware\ble/cy_ble.c **** void Cy_BLE_UnRegisterAppHostCallback(void)
 734:Generated_Source\PSoC6\pdl\middleware\ble/cy_ble.c **** {
 735:Generated_Source\PSoC6\pdl\middleware\ble/cy_ble.c ****     Cy_BLE_HostRegisteredCallback = NULL;
 736:Generated_Source\PSoC6\pdl\middleware\ble/cy_ble.c **** }
 737:Generated_Source\PSoC6\pdl\middleware\ble/cy_ble.c **** #endif /* (CY_BLE_MODE_PROFILE) */
 738:Generated_Source\PSoC6\pdl\middleware\ble/cy_ble.c **** 
 739:Generated_Source\PSoC6\pdl\middleware\ble/cy_ble.c **** 
 740:Generated_Source\PSoC6\pdl\middleware\ble/cy_ble.c **** #if (CY_BLE_USE_DEEP_SLEEP != 0u)
 741:Generated_Source\PSoC6\pdl\middleware\ble/cy_ble.c **** /*******************************************************************************
 742:Generated_Source\PSoC6\pdl\middleware\ble/cy_ble.c **** * Function Name: Cy_BLE_DeepSleepCallback
 743:Generated_Source\PSoC6\pdl\middleware\ble/cy_ble.c **** ****************************************************************************//**
 744:Generated_Source\PSoC6\pdl\middleware\ble/cy_ble.c **** *
 745:Generated_Source\PSoC6\pdl\middleware\ble/cy_ble.c **** * This function requests the BLE Stack to put Bluetooth Low Energy Sub-System
 746:Generated_Source\PSoC6\pdl\middleware\ble/cy_ble.c **** * (BLESS) to DeepSleep mode.
 747:Generated_Source\PSoC6\pdl\middleware\ble/cy_ble.c **** *
 748:Generated_Source\PSoC6\pdl\middleware\ble/cy_ble.c **** * It is registered to the system power mode by Cy_SysPm_RegisterCallback()
 749:Generated_Source\PSoC6\pdl\middleware\ble/cy_ble.c **** * function with CY_SYSPM_DEEPSLEEP type. After registration it is called by
 750:Generated_Source\PSoC6\pdl\middleware\ble/cy_ble.c **** * Cy_SysPm_DeepSleep() function prior entering the core into the Deep Sleep
 751:Generated_Source\PSoC6\pdl\middleware\ble/cy_ble.c **** * power mode.
 752:Generated_Source\PSoC6\pdl\middleware\ble/cy_ble.c **** *
 753:Generated_Source\PSoC6\pdl\middleware\ble/cy_ble.c **** * When it is called with the enMode parameter set to CY_SYSPM_CHECK_READY,
 754:Generated_Source\PSoC6\pdl\middleware\ble/cy_ble.c **** * function enters BLESS to CY_BLE_BLESS_DEEPSLEEP mode. It also checks the
 755:Generated_Source\PSoC6\pdl\middleware\ble/cy_ble.c **** * BLE Subsystem's current operational mode. When the
 756:Generated_Source\PSoC6\pdl\middleware\ble/cy_ble.c **** * Cy_BLE_StackGetBleSsState() function returns CY_BLE_BLESS_STATE_ECO_ON or
 757:Generated_Source\PSoC6\pdl\middleware\ble/cy_ble.c **** * CY_BLE_BLESS_STATE_DEEPSLEEP state, this function returns CY_SYSPM_PASS and
 758:Generated_Source\PSoC6\pdl\middleware\ble/cy_ble.c **** * allows to put the core into the Deep Sleep power mode.
 759:Generated_Source\PSoC6\pdl\middleware\ble/cy_ble.c **** * At all other times, the function tries to enter core into sleep mode.
 760:Generated_Source\PSoC6\pdl\middleware\ble/cy_ble.c **** *
 761:Generated_Source\PSoC6\pdl\middleware\ble/cy_ble.c **** * This function is available only when BLE low power mode is enabled in the
 762:Generated_Source\PSoC6\pdl\middleware\ble/cy_ble.c **** * Advanced tab of customizer.
 763:Generated_Source\PSoC6\pdl\middleware\ble/cy_ble.c **** *
 764:Generated_Source\PSoC6\pdl\middleware\ble/cy_ble.c **** * \param
 765:Generated_Source\PSoC6\pdl\middleware\ble/cy_ble.c **** * callbackParams  pointer to the structure with the syspm callback parameters
 766:Generated_Source\PSoC6\pdl\middleware\ble/cy_ble.c **** *                 callbackParams->mode - the callback mode, see description 
 767:Generated_Source\PSoC6\pdl\middleware\ble/cy_ble.c **** *                 of the cy_en_syspm_callback_mode_t type.
 768:Generated_Source\PSoC6\pdl\middleware\ble/cy_ble.c **** *
 769:Generated_Source\PSoC6\pdl\middleware\ble/cy_ble.c **** * \return
 770:Generated_Source\PSoC6\pdl\middleware\ble/cy_ble.c **** * * CY_SYSPM_SUCCESS  - Entered and exited from DeepSleep
 771:Generated_Source\PSoC6\pdl\middleware\ble/cy_ble.c **** * * CY_SYSPM_FAIL     - DeepSleep not entered.
ARM GAS  C:\Users\hkmnt\AppData\Local\Temp\ccXcTUuf.s 			page 15


 772:Generated_Source\PSoC6\pdl\middleware\ble/cy_ble.c **** *
 773:Generated_Source\PSoC6\pdl\middleware\ble/cy_ble.c **** *******************************************************************************/
 774:Generated_Source\PSoC6\pdl\middleware\ble/cy_ble.c **** #if (CY_SYSPM_DRV_VERSION_MAJOR < 4)
 775:Generated_Source\PSoC6\pdl\middleware\ble/cy_ble.c **** cy_en_syspm_status_t Cy_BLE_DeepSleepCallback(cy_stc_syspm_callback_params_t *callbackParams)
 776:Generated_Source\PSoC6\pdl\middleware\ble/cy_ble.c **** #else
 777:Generated_Source\PSoC6\pdl\middleware\ble/cy_ble.c **** cy_en_syspm_status_t Cy_BLE_DeepSleepCallback(cy_stc_syspm_callback_params_t *callbackParams,
 778:Generated_Source\PSoC6\pdl\middleware\ble/cy_ble.c ****                                               cy_en_syspm_callback_mode_t mode)
 779:Generated_Source\PSoC6\pdl\middleware\ble/cy_ble.c **** #endif /* (CY_SYSPM_DRV_VERSION_MAJOR < 4) */
 780:Generated_Source\PSoC6\pdl\middleware\ble/cy_ble.c **** 
 781:Generated_Source\PSoC6\pdl\middleware\ble/cy_ble.c **** {
  28              		.loc 1 781 0
  29              		.cfi_startproc
  30              		@ args = 0, pretend = 0, frame = 0
  31              		@ frame_needed = 0, uses_anonymous_args = 0
  32              	.LVL0:
  33 0000 70B5     		push	{r4, r5, r6, lr}
  34              		.cfi_def_cfa_offset 16
  35              		.cfi_offset 4, -16
  36              		.cfi_offset 5, -12
  37              		.cfi_offset 6, -8
  38              		.cfi_offset 14, -4
 782:Generated_Source\PSoC6\pdl\middleware\ble/cy_ble.c ****     cy_en_syspm_status_t retVal;
 783:Generated_Source\PSoC6\pdl\middleware\ble/cy_ble.c ****     static uint32_t interruptState = 0u;
 784:Generated_Source\PSoC6\pdl\middleware\ble/cy_ble.c ****     cy_en_ble_bless_state_t blessState;
 785:Generated_Source\PSoC6\pdl\middleware\ble/cy_ble.c ****     
 786:Generated_Source\PSoC6\pdl\middleware\ble/cy_ble.c ****     /* Local variable to store the status of BLESS Hardware block */
 787:Generated_Source\PSoC6\pdl\middleware\ble/cy_ble.c ****     cy_en_ble_lp_mode_t sleepMode;
 788:Generated_Source\PSoC6\pdl\middleware\ble/cy_ble.c **** 
 789:Generated_Source\PSoC6\pdl\middleware\ble/cy_ble.c **** #if (CY_SYSPM_DRV_VERSION_MAJOR < 4)
 790:Generated_Source\PSoC6\pdl\middleware\ble/cy_ble.c ****     switch(callbackParams->mode)
 791:Generated_Source\PSoC6\pdl\middleware\ble/cy_ble.c **** #else
 792:Generated_Source\PSoC6\pdl\middleware\ble/cy_ble.c ****     switch(mode)
  39              		.loc 1 792 0
  40 0002 0129     		cmp	r1, #1
  41 0004 02D0     		beq	.L3
  42 0006 0829     		cmp	r1, #8
  43 0008 40D0     		beq	.L4
  44 000a 45E0     		b	.L16
  45              	.L3:
 793:Generated_Source\PSoC6\pdl\middleware\ble/cy_ble.c **** #endif /* (CY_SYSPM_DRV_VERSION_MAJOR < 4) */
 794:Generated_Source\PSoC6\pdl\middleware\ble/cy_ble.c ****     {
 795:Generated_Source\PSoC6\pdl\middleware\ble/cy_ble.c ****         case (CY_SYSPM_CHECK_READY):
 796:Generated_Source\PSoC6\pdl\middleware\ble/cy_ble.c ****         #if (CY_BLE_MODE_PROFILE)
 797:Generated_Source\PSoC6\pdl\middleware\ble/cy_ble.c ****             if(Cy_BLE_GetState() == CY_BLE_STATE_INITIALIZING)
 798:Generated_Source\PSoC6\pdl\middleware\ble/cy_ble.c ****             {
 799:Generated_Source\PSoC6\pdl\middleware\ble/cy_ble.c ****                 retVal = CY_SYSPM_FAIL;
 800:Generated_Source\PSoC6\pdl\middleware\ble/cy_ble.c ****             }
 801:Generated_Source\PSoC6\pdl\middleware\ble/cy_ble.c ****             else
 802:Generated_Source\PSoC6\pdl\middleware\ble/cy_ble.c ****         #endif  /*(CY_BLE_MODE_PROFILE) */
 803:Generated_Source\PSoC6\pdl\middleware\ble/cy_ble.c ****             
 804:Generated_Source\PSoC6\pdl\middleware\ble/cy_ble.c ****             if(Cy_IPC_Sema_Status(CY_BLE_SEMA) == CY_IPC_SEMA_STATUS_LOCKED)
  46              		.loc 1 804 0
  47 000c 0320     		movs	r0, #3
  48              	.LVL1:
  49 000e FFF7FEFF 		bl	Cy_IPC_Sema_Status
  50              	.LVL2:
  51 0012 254B     		ldr	r3, .L17
ARM GAS  C:\Users\hkmnt\AppData\Local\Temp\ccXcTUuf.s 			page 16


  52 0014 9842     		cmp	r0, r3
  53 0016 41D0     		beq	.L9
 805:Generated_Source\PSoC6\pdl\middleware\ble/cy_ble.c ****             {
 806:Generated_Source\PSoC6\pdl\middleware\ble/cy_ble.c ****                 /* System do not enter deepsleep if BLE Host start write operation */
 807:Generated_Source\PSoC6\pdl\middleware\ble/cy_ble.c ****                 retVal = CY_SYSPM_FAIL;
 808:Generated_Source\PSoC6\pdl\middleware\ble/cy_ble.c ****             }
 809:Generated_Source\PSoC6\pdl\middleware\ble/cy_ble.c ****             else
 810:Generated_Source\PSoC6\pdl\middleware\ble/cy_ble.c **** 
 811:Generated_Source\PSoC6\pdl\middleware\ble/cy_ble.c ****         #if(CY_BLE_STACK_CONTR_CORE)       
 812:Generated_Source\PSoC6\pdl\middleware\ble/cy_ble.c ****             if (Cy_BLE_HAL_IsEcoCpuClockSrc() == 1u)
  54              		.loc 1 812 0
  55 0018 FFF7FEFF 		bl	Cy_BLE_HAL_IsEcoCpuClockSrc
  56              	.LVL3:
  57 001c 0128     		cmp	r0, #1
  58 001e 3FD0     		beq	.L10
  59              	.LBB2:
 813:Generated_Source\PSoC6\pdl\middleware\ble/cy_ble.c ****             {            
 814:Generated_Source\PSoC6\pdl\middleware\ble/cy_ble.c ****                 /* System never enters deepsleep if BLE ECO is CPU source */
 815:Generated_Source\PSoC6\pdl\middleware\ble/cy_ble.c ****                 retVal = CY_SYSPM_FAIL;
 816:Generated_Source\PSoC6\pdl\middleware\ble/cy_ble.c ****             }
 817:Generated_Source\PSoC6\pdl\middleware\ble/cy_ble.c ****             else
 818:Generated_Source\PSoC6\pdl\middleware\ble/cy_ble.c ****         #endif /* (CY_BLE_STACK_CONTR_CORE) */
 819:Generated_Source\PSoC6\pdl\middleware\ble/cy_ble.c ****             {        
 820:Generated_Source\PSoC6\pdl\middleware\ble/cy_ble.c ****         #if(!CY_BLE_STACK_MODE_HOST_IPC)
 821:Generated_Source\PSoC6\pdl\middleware\ble/cy_ble.c ****                 cy_en_ble_api_result_t retIsControllerActive;
 822:Generated_Source\PSoC6\pdl\middleware\ble/cy_ble.c ****         #endif /* !CY_BLE_STACK_MODE_HOST_IPC */   
 823:Generated_Source\PSoC6\pdl\middleware\ble/cy_ble.c ****         
 824:Generated_Source\PSoC6\pdl\middleware\ble/cy_ble.c ****         #if(CY_BLE_STACK_MODE_HOST_IPC)
 825:Generated_Source\PSoC6\pdl\middleware\ble/cy_ble.c ****                 /* Disable global interrupt to prevent changes from any other interrupt ISR */
 826:Generated_Source\PSoC6\pdl\middleware\ble/cy_ble.c ****                 interruptState = Cy_SysLib_EnterCriticalSection();
 827:Generated_Source\PSoC6\pdl\middleware\ble/cy_ble.c ****         #endif /* CY_BLE_STACK_MODE_HOST_IPC */
 828:Generated_Source\PSoC6\pdl\middleware\ble/cy_ble.c ****                
 829:Generated_Source\PSoC6\pdl\middleware\ble/cy_ble.c ****                 /* Put BLESS into Deep Sleep and check the return status */
 830:Generated_Source\PSoC6\pdl\middleware\ble/cy_ble.c ****                 sleepMode = Cy_BLE_StackEnterLPM(CY_BLE_BLESS_DEEPSLEEP);
  60              		.loc 1 830 0
  61 0020 0220     		movs	r0, #2
  62 0022 FFF7FEFF 		bl	Cy_BLE_StackEnterLPM
  63              	.LVL4:
  64 0026 0500     		movs	r5, r0
  65              	.LVL5:
 831:Generated_Source\PSoC6\pdl\middleware\ble/cy_ble.c **** 
 832:Generated_Source\PSoC6\pdl\middleware\ble/cy_ble.c ****         #if(!CY_BLE_STACK_MODE_HOST_IPC)
 833:Generated_Source\PSoC6\pdl\middleware\ble/cy_ble.c ****                 /* Disable global interrupt to prevent changes from any other interrupt ISR */
 834:Generated_Source\PSoC6\pdl\middleware\ble/cy_ble.c ****                 interruptState = Cy_SysLib_EnterCriticalSection();
  66              		.loc 1 834 0
  67 0028 FFF7FEFF 		bl	Cy_SysLib_EnterCriticalSection
  68              	.LVL6:
  69 002c 1F4B     		ldr	r3, .L17+4
  70 002e 1860     		str	r0, [r3]
 835:Generated_Source\PSoC6\pdl\middleware\ble/cy_ble.c ****         #endif /* !CY_BLE_STACK_MODE_HOST_IPC */
 836:Generated_Source\PSoC6\pdl\middleware\ble/cy_ble.c **** 
 837:Generated_Source\PSoC6\pdl\middleware\ble/cy_ble.c ****                 /* Check the Status of BLESS */
 838:Generated_Source\PSoC6\pdl\middleware\ble/cy_ble.c ****                 blessState = Cy_BLE_StackGetBleSsState();
  71              		.loc 1 838 0
  72 0030 FFF7FEFF 		bl	Cy_BLE_StackGetBleSsState
  73              	.LVL7:
  74 0034 0400     		movs	r4, r0
ARM GAS  C:\Users\hkmnt\AppData\Local\Temp\ccXcTUuf.s 			page 17


  75              	.LVL8:
 839:Generated_Source\PSoC6\pdl\middleware\ble/cy_ble.c **** 
 840:Generated_Source\PSoC6\pdl\middleware\ble/cy_ble.c ****                 #if(!CY_BLE_STACK_MODE_HOST_IPC)
 841:Generated_Source\PSoC6\pdl\middleware\ble/cy_ble.c ****                 if(blessState == CY_BLE_BLESS_STATE_STOPPED)
  76              		.loc 1 841 0
  77 0036 0628     		cmp	r0, #6
  78 0038 17D0     		beq	.L11
 842:Generated_Source\PSoC6\pdl\middleware\ble/cy_ble.c ****                 {
 843:Generated_Source\PSoC6\pdl\middleware\ble/cy_ble.c ****                     retVal = CY_SYSPM_SUCCESS;
 844:Generated_Source\PSoC6\pdl\middleware\ble/cy_ble.c ****                 }
 845:Generated_Source\PSoC6\pdl\middleware\ble/cy_ble.c ****                 else
 846:Generated_Source\PSoC6\pdl\middleware\ble/cy_ble.c ****                 #endif /* (!CY_BLE_STACK_MODE_HOST_IPC)*/
 847:Generated_Source\PSoC6\pdl\middleware\ble/cy_ble.c ****                 if(sleepMode == CY_BLE_BLESS_DEEPSLEEP)
  79              		.loc 1 847 0
  80 003a 022D     		cmp	r5, #2
  81 003c 0AD1     		bne	.L6
 848:Generated_Source\PSoC6\pdl\middleware\ble/cy_ble.c ****                 {
 849:Generated_Source\PSoC6\pdl\middleware\ble/cy_ble.c **** 
 850:Generated_Source\PSoC6\pdl\middleware\ble/cy_ble.c ****                     #if(!CY_BLE_STACK_MODE_HOST_IPC)
 851:Generated_Source\PSoC6\pdl\middleware\ble/cy_ble.c ****                     retIsControllerActive = Cy_BLE_IsControllerActive(CY_BLE_CONTROLLER_SLEEP_MODE_
  82              		.loc 1 851 0
  83 003e 0220     		movs	r0, #2
  84              	.LVL9:
  85 0040 FFF7FEFF 		bl	Cy_BLE_IsControllerActive
  86              	.LVL10:
 852:Generated_Source\PSoC6\pdl\middleware\ble/cy_ble.c ****                     #endif /* !CY_BLE_STACK_MODE_HOST_IPC */
 853:Generated_Source\PSoC6\pdl\middleware\ble/cy_ble.c **** 
 854:Generated_Source\PSoC6\pdl\middleware\ble/cy_ble.c ****                     if(((blessState == CY_BLE_BLESS_STATE_ECO_ON) || (blessState == CY_BLE_BLESS_ST
  87              		.loc 1 854 0
  88 0044 032C     		cmp	r4, #3
  89 0046 01D0     		beq	.L7
  90              		.loc 1 854 0 is_stmt 0 discriminator 1
  91 0048 052C     		cmp	r4, #5
  92 004a 10D1     		bne	.L12
  93              	.L7:
 855:Generated_Source\PSoC6\pdl\middleware\ble/cy_ble.c ****                     #if(!CY_BLE_STACK_MODE_HOST_IPC)
 856:Generated_Source\PSoC6\pdl\middleware\ble/cy_ble.c ****                         && (retIsControllerActive == CY_BLE_SUCCESS)
  94              		.loc 1 856 0 is_stmt 1
  95 004c 0028     		cmp	r0, #0
  96 004e 10D0     		beq	.L13
 857:Generated_Source\PSoC6\pdl\middleware\ble/cy_ble.c ****                     #endif /* !CY_BLE_STACK_MODE_HOST_IPC */                    
 858:Generated_Source\PSoC6\pdl\middleware\ble/cy_ble.c ****                         )
 859:Generated_Source\PSoC6\pdl\middleware\ble/cy_ble.c ****                     {
 860:Generated_Source\PSoC6\pdl\middleware\ble/cy_ble.c ****                         /* Enter device deep sleep */
 861:Generated_Source\PSoC6\pdl\middleware\ble/cy_ble.c ****                         retVal = CY_SYSPM_SUCCESS;
 862:Generated_Source\PSoC6\pdl\middleware\ble/cy_ble.c ****                     }
 863:Generated_Source\PSoC6\pdl\middleware\ble/cy_ble.c ****                     else
 864:Generated_Source\PSoC6\pdl\middleware\ble/cy_ble.c ****                     {
 865:Generated_Source\PSoC6\pdl\middleware\ble/cy_ble.c ****                         /* The BLESS hardware block cannot go to Deep Sleep, try sleep mode */
 866:Generated_Source\PSoC6\pdl\middleware\ble/cy_ble.c ****                         retVal = CY_SYSPM_FAIL;
  97              		.loc 1 866 0
  98 0050 174C     		ldr	r4, .L17+8
  99              	.LVL11:
 100 0052 13E0     		b	.L5
 101              	.LVL12:
 102              	.L6:
 867:Generated_Source\PSoC6\pdl\middleware\ble/cy_ble.c ****                     }
ARM GAS  C:\Users\hkmnt\AppData\Local\Temp\ccXcTUuf.s 			page 18


 868:Generated_Source\PSoC6\pdl\middleware\ble/cy_ble.c ****                 }
 869:Generated_Source\PSoC6\pdl\middleware\ble/cy_ble.c ****                 else
 870:Generated_Source\PSoC6\pdl\middleware\ble/cy_ble.c ****                 {
 871:Generated_Source\PSoC6\pdl\middleware\ble/cy_ble.c ****                 #if(!CY_BLE_STACK_MODE_HOST_IPC)
 872:Generated_Source\PSoC6\pdl\middleware\ble/cy_ble.c ****                     retIsControllerActive = Cy_BLE_IsControllerActive(CY_BLE_CONTROLLER_SLEEP_MODE_
 103              		.loc 1 872 0
 104 0054 0120     		movs	r0, #1
 105              	.LVL13:
 106 0056 FFF7FEFF 		bl	Cy_BLE_IsControllerActive
 107              	.LVL14:
 873:Generated_Source\PSoC6\pdl\middleware\ble/cy_ble.c **** 
 874:Generated_Source\PSoC6\pdl\middleware\ble/cy_ble.c ****                     if((blessState != CY_BLE_BLESS_STATE_EVENT_CLOSE) && 
 108              		.loc 1 874 0
 109 005a 022C     		cmp	r4, #2
 110 005c 0BD0     		beq	.L14
 111              		.loc 1 874 0 is_stmt 0 discriminator 1
 112 005e 0028     		cmp	r0, #0
 113 0060 0BD1     		bne	.L15
 875:Generated_Source\PSoC6\pdl\middleware\ble/cy_ble.c ****                        (retIsControllerActive == CY_BLE_SUCCESS))
 876:Generated_Source\PSoC6\pdl\middleware\ble/cy_ble.c ****                     {
 877:Generated_Source\PSoC6\pdl\middleware\ble/cy_ble.c ****                         /* If the BLESS hardware block cannot go to Deep Sleep and BLE Event has no
 878:Generated_Source\PSoC6\pdl\middleware\ble/cy_ble.c ****                          * closed yet, then place CPU to Sleep */
 879:Generated_Source\PSoC6\pdl\middleware\ble/cy_ble.c ****                         (void)Cy_SysPm_Sleep(CY_SYSPM_WAIT_FOR_INTERRUPT);
 114              		.loc 1 879 0 is_stmt 1
 115 0062 FFF7FEFF 		bl	Cy_SysPm_CpuEnterSleep
 116              	.LVL15:
 880:Generated_Source\PSoC6\pdl\middleware\ble/cy_ble.c ****                     }
 881:Generated_Source\PSoC6\pdl\middleware\ble/cy_ble.c ****                 #endif /* !CY_BLE_STACK_MODE_HOST_IPC */
 882:Generated_Source\PSoC6\pdl\middleware\ble/cy_ble.c ****                     retVal = CY_SYSPM_FAIL;
 117              		.loc 1 882 0
 118 0066 124C     		ldr	r4, .L17+8
 119              	.LVL16:
 120 0068 08E0     		b	.L5
 121              	.LVL17:
 122              	.L11:
 843:Generated_Source\PSoC6\pdl\middleware\ble/cy_ble.c ****                 }
 123              		.loc 1 843 0
 124 006a 0024     		movs	r4, #0
 125 006c 06E0     		b	.L5
 126              	.LVL18:
 127              	.L12:
 866:Generated_Source\PSoC6\pdl\middleware\ble/cy_ble.c ****                     }
 128              		.loc 1 866 0
 129 006e 104C     		ldr	r4, .L17+8
 130              	.LVL19:
 131 0070 04E0     		b	.L5
 132              	.LVL20:
 133              	.L13:
 861:Generated_Source\PSoC6\pdl\middleware\ble/cy_ble.c ****                     }
 134              		.loc 1 861 0
 135 0072 0024     		movs	r4, #0
 136              	.LVL21:
 137 0074 02E0     		b	.L5
 138              	.LVL22:
 139              	.L14:
 140              		.loc 1 882 0
 141 0076 0E4C     		ldr	r4, .L17+8
ARM GAS  C:\Users\hkmnt\AppData\Local\Temp\ccXcTUuf.s 			page 19


 142              	.LVL23:
 143 0078 00E0     		b	.L5
 144              	.LVL24:
 145              	.L15:
 146 007a 0D4C     		ldr	r4, .L17+8
 147              	.LVL25:
 148              	.L5:
 883:Generated_Source\PSoC6\pdl\middleware\ble/cy_ble.c ****                 }
 884:Generated_Source\PSoC6\pdl\middleware\ble/cy_ble.c ****                 if(retVal == CY_SYSPM_FAIL)
 149              		.loc 1 884 0
 150 007c 0C4B     		ldr	r3, .L17+8
 151 007e 9C42     		cmp	r4, r3
 152 0080 0FD1     		bne	.L2
 885:Generated_Source\PSoC6\pdl\middleware\ble/cy_ble.c ****                 {
 886:Generated_Source\PSoC6\pdl\middleware\ble/cy_ble.c ****                     /* Enable interrupts after failing check */
 887:Generated_Source\PSoC6\pdl\middleware\ble/cy_ble.c ****                     Cy_SysLib_ExitCriticalSection(interruptState);
 153              		.loc 1 887 0
 154 0082 0A4B     		ldr	r3, .L17+4
 155 0084 1868     		ldr	r0, [r3]
 156 0086 FFF7FEFF 		bl	Cy_SysLib_ExitCriticalSection
 157              	.LVL26:
 158 008a 0AE0     		b	.L2
 159              	.LVL27:
 160              	.L4:
 161              	.LBE2:
 888:Generated_Source\PSoC6\pdl\middleware\ble/cy_ble.c ****                 }
 889:Generated_Source\PSoC6\pdl\middleware\ble/cy_ble.c ****             }
 890:Generated_Source\PSoC6\pdl\middleware\ble/cy_ble.c ****             break;
 891:Generated_Source\PSoC6\pdl\middleware\ble/cy_ble.c **** 
 892:Generated_Source\PSoC6\pdl\middleware\ble/cy_ble.c ****         /* Enable interrupts after wakeup */
 893:Generated_Source\PSoC6\pdl\middleware\ble/cy_ble.c ****         case (CY_SYSPM_AFTER_TRANSITION):
 894:Generated_Source\PSoC6\pdl\middleware\ble/cy_ble.c ****             Cy_SysLib_ExitCriticalSection(interruptState);
 162              		.loc 1 894 0
 163 008c 074B     		ldr	r3, .L17+4
 164 008e 1868     		ldr	r0, [r3]
 165              	.LVL28:
 166 0090 FFF7FEFF 		bl	Cy_SysLib_ExitCriticalSection
 167              	.LVL29:
 895:Generated_Source\PSoC6\pdl\middleware\ble/cy_ble.c ****             retVal = CY_SYSPM_SUCCESS;
 168              		.loc 1 895 0
 169 0094 0024     		movs	r4, #0
 896:Generated_Source\PSoC6\pdl\middleware\ble/cy_ble.c ****             break;
 170              		.loc 1 896 0
 171 0096 04E0     		b	.L2
 172              	.LVL30:
 173              	.L16:
 897:Generated_Source\PSoC6\pdl\middleware\ble/cy_ble.c **** 
 898:Generated_Source\PSoC6\pdl\middleware\ble/cy_ble.c ****         default:
 899:Generated_Source\PSoC6\pdl\middleware\ble/cy_ble.c ****             retVal = CY_SYSPM_FAIL;
 174              		.loc 1 899 0
 175 0098 054C     		ldr	r4, .L17+8
 176 009a 02E0     		b	.L2
 177              	.LVL31:
 178              	.L9:
 807:Generated_Source\PSoC6\pdl\middleware\ble/cy_ble.c ****             }
 179              		.loc 1 807 0
 180 009c 044C     		ldr	r4, .L17+8
ARM GAS  C:\Users\hkmnt\AppData\Local\Temp\ccXcTUuf.s 			page 20


 181 009e 00E0     		b	.L2
 182              	.L10:
 815:Generated_Source\PSoC6\pdl\middleware\ble/cy_ble.c ****             }
 183              		.loc 1 815 0
 184 00a0 034C     		ldr	r4, .L17+8
 185              	.L2:
 186              	.LVL32:
 900:Generated_Source\PSoC6\pdl\middleware\ble/cy_ble.c ****             break;
 901:Generated_Source\PSoC6\pdl\middleware\ble/cy_ble.c ****     }
 902:Generated_Source\PSoC6\pdl\middleware\ble/cy_ble.c **** 
 903:Generated_Source\PSoC6\pdl\middleware\ble/cy_ble.c ****     return(retVal);
 904:Generated_Source\PSoC6\pdl\middleware\ble/cy_ble.c **** }
 187              		.loc 1 904 0
 188 00a2 2000     		movs	r0, r4
 189              		@ sp needed
 190              	.LVL33:
 191 00a4 70BD     		pop	{r4, r5, r6, pc}
 192              	.L18:
 193 00a6 C046     		.align	2
 194              	.L17:
 195 00a8 01018800 		.word	8913153
 196 00ac 00000000 		.word	.LANCHOR0
 197 00b0 FF004200 		.word	4325631
 198              		.cfi_endproc
 199              	.LFE162:
 200              		.size	Cy_BLE_DeepSleepCallback, .-Cy_BLE_DeepSleepCallback
 201              		.section	.text.Cy_BLE_UnregisterHostPMCallbacks,"ax",%progbits
 202              		.align	2
 203              		.global	Cy_BLE_UnregisterHostPMCallbacks
 204              		.code	16
 205              		.thumb_func
 206              		.type	Cy_BLE_UnregisterHostPMCallbacks, %function
 207              	Cy_BLE_UnregisterHostPMCallbacks:
 208              	.LFB157:
  96:Generated_Source\PSoC6\pdl\middleware\ble/cy_ble.c ****     #if (CY_BLE_USE_DEEP_SLEEP != 0u)
 209              		.loc 1 96 0
 210              		.cfi_startproc
 211              		@ args = 0, pretend = 0, frame = 0
 212              		@ frame_needed = 0, uses_anonymous_args = 0
 213 0000 10B5     		push	{r4, lr}
 214              		.cfi_def_cfa_offset 8
 215              		.cfi_offset 4, -8
 216              		.cfi_offset 14, -4
  99:Generated_Source\PSoC6\pdl\middleware\ble/cy_ble.c ****         
 217              		.loc 1 99 0
 218 0002 0248     		ldr	r0, .L20
 219 0004 FFF7FEFF 		bl	Cy_SysPm_UnregisterCallback
 220              	.LVL34:
 107:Generated_Source\PSoC6\pdl\middleware\ble/cy_ble.c **** 
 221              		.loc 1 107 0
 222              		@ sp needed
 223 0008 10BD     		pop	{r4, pc}
 224              	.L21:
 225 000a C046     		.align	2
 226              	.L20:
 227 000c 00000000 		.word	.LANCHOR1
 228              		.cfi_endproc
ARM GAS  C:\Users\hkmnt\AppData\Local\Temp\ccXcTUuf.s 			page 21


 229              	.LFE157:
 230              		.size	Cy_BLE_UnregisterHostPMCallbacks, .-Cy_BLE_UnregisterHostPMCallbacks
 231              		.section	.text.Cy_BLE_Init,"ax",%progbits
 232              		.align	2
 233              		.global	Cy_BLE_Init
 234              		.code	16
 235              		.thumb_func
 236              		.type	Cy_BLE_Init, %function
 237              	Cy_BLE_Init:
 238              	.LFB158:
 134:Generated_Source\PSoC6\pdl\middleware\ble/cy_ble.c ****     cy_en_ble_api_result_t apiResult = CY_BLE_SUCCESS;
 239              		.loc 1 134 0
 240              		.cfi_startproc
 241              		@ args = 0, pretend = 0, frame = 0
 242              		@ frame_needed = 0, uses_anonymous_args = 0
 243              		@ link register save eliminated.
 244              	.LVL35:
 137:Generated_Source\PSoC6\pdl\middleware\ble/cy_ble.c ****     {
 245              		.loc 1 137 0
 246 0000 0028     		cmp	r0, #0
 247 0002 03D0     		beq	.L24
 144:Generated_Source\PSoC6\pdl\middleware\ble/cy_ble.c **** 
 248              		.loc 1 144 0
 249 0004 024B     		ldr	r3, .L25
 250 0006 5860     		str	r0, [r3, #4]
 135:Generated_Source\PSoC6\pdl\middleware\ble/cy_ble.c **** 
 251              		.loc 1 135 0
 252 0008 0020     		movs	r0, #0
 253              	.LVL36:
 254 000a 00E0     		b	.L23
 255              	.LVL37:
 256              	.L24:
 139:Generated_Source\PSoC6\pdl\middleware\ble/cy_ble.c ****     }
 257              		.loc 1 139 0
 258 000c 0148     		ldr	r0, .L25+4
 259              	.LVL38:
 260              	.L23:
 190:Generated_Source\PSoC6\pdl\middleware\ble/cy_ble.c **** /** @} */
 261              		.loc 1 190 0
 262              		@ sp needed
 263 000e 7047     		bx	lr
 264              	.L26:
 265              		.align	2
 266              	.L25:
 267 0010 00000000 		.word	.LANCHOR0
 268 0014 01001600 		.word	1441793
 269              		.cfi_endproc
 270              	.LFE158:
 271              		.size	Cy_BLE_Init, .-Cy_BLE_Init
 272              		.section	.text.Cy_BLE_Enable,"ax",%progbits
 273              		.align	2
 274              		.global	Cy_BLE_Enable
 275              		.code	16
 276              		.thumb_func
 277              		.type	Cy_BLE_Enable, %function
 278              	Cy_BLE_Enable:
 279              	.LFB159:
ARM GAS  C:\Users\hkmnt\AppData\Local\Temp\ccXcTUuf.s 			page 22


 270:Generated_Source\PSoC6\pdl\middleware\ble/cy_ble.c ****     cy_en_ble_api_result_t apiResult = CY_BLE_SUCCESS;
 280              		.loc 1 270 0
 281              		.cfi_startproc
 282              		@ args = 0, pretend = 0, frame = 80
 283              		@ frame_needed = 0, uses_anonymous_args = 0
 284 0000 10B5     		push	{r4, lr}
 285              		.cfi_def_cfa_offset 8
 286              		.cfi_offset 4, -8
 287              		.cfi_offset 14, -4
 288 0002 94B0     		sub	sp, sp, #80
 289              		.cfi_def_cfa_offset 88
 290              	.LVL39:
 285:Generated_Source\PSoC6\pdl\middleware\ble/cy_ble.c ****     {
 291              		.loc 1 285 0
 292 0004 01AC     		add	r4, sp, #4
 293 0006 4C22     		movs	r2, #76
 294 0008 0021     		movs	r1, #0
 295 000a 2000     		movs	r0, r4
 296 000c FFF7FEFF 		bl	memset
 297              	.LVL40:
 298 0010 D723     		movs	r3, #215
 299 0012 1B01     		lsls	r3, r3, #4
 300 0014 A381     		strh	r3, [r4, #12]
 301 0016 1B23     		movs	r3, #27
 302 0018 2383     		strh	r3, [r4, #24]
 303 001a 6383     		strh	r3, [r4, #26]
 304 001c 183B     		subs	r3, r3, #24
 305 001e 2377     		strb	r3, [r4, #28]
 306 0020 0133     		adds	r3, r3, #1
 307 0022 6377     		strb	r3, [r4, #29]
 308 0024 0C33     		adds	r3, r3, #12
 309 0026 E377     		strb	r3, [r4, #31]
 310 0028 2122     		movs	r2, #33
 311 002a A354     		strb	r3, [r4, r2]
 312 002c 4132     		adds	r2, r2, #65
 313 002e 3433     		adds	r3, r3, #52
 314 0030 E252     		strh	r2, [r4, r3]
 315 0032 613A     		subs	r2, r2, #97
 316 0034 0433     		adds	r3, r3, #4
 317 0036 E254     		strb	r2, [r4, r3]
 337:Generated_Source\PSoC6\pdl\middleware\ble/cy_ble.c ****     
 318              		.loc 1 337 0
 319 0038 0D48     		ldr	r0, .L30
 320 003a FFF7FEFF 		bl	Cy_SysPm_RegisterCallback
 321              	.LVL41:
 366:Generated_Source\PSoC6\pdl\middleware\ble/cy_ble.c ****     #endif /* CY_BLE_LL_PRIVACY_FEATURE_ENABLED */
 322              		.loc 1 366 0
 323 003e FFF7FEFF 		bl	Cy_BLE_EnablePrivacyFeature
 324              	.LVL42:
 373:Generated_Source\PSoC6\pdl\middleware\ble/cy_ble.c ****     }
 325              		.loc 1 373 0
 326 0042 07A8     		add	r0, sp, #28
 327 0044 FFF7FEFF 		bl	Cy_BLE_StackSetFeatureConfig
 328              	.LVL43:
 376:Generated_Source\PSoC6\pdl\middleware\ble/cy_ble.c ****     {
 329              		.loc 1 376 0
 330 0048 0028     		cmp	r0, #0
ARM GAS  C:\Users\hkmnt\AppData\Local\Temp\ccXcTUuf.s 			page 23


 331 004a 0ED1     		bne	.L28
 378:Generated_Source\PSoC6\pdl\middleware\ble/cy_ble.c **** 
 332              		.loc 1 378 0
 333 004c 094B     		ldr	r3, .L30+4
 334 004e 0293     		str	r3, [sp, #8]
 381:Generated_Source\PSoC6\pdl\middleware\ble/cy_ble.c ****         {
 335              		.loc 1 381 0
 336 0050 094B     		ldr	r3, .L30+8
 337 0052 5B68     		ldr	r3, [r3, #4]
 338 0054 5968     		ldr	r1, [r3, #4]
 339 0056 0029     		cmp	r1, #0
 340 0058 04D0     		beq	.L29
 383:Generated_Source\PSoC6\pdl\middleware\ble/cy_ble.c ****         }
 341              		.loc 1 383 0
 342 005a 2222     		movs	r2, #34
 343 005c 2630     		adds	r0, r0, #38
 344              	.LVL44:
 345 005e 6844     		add	r0, r0, sp
 346              	.LVL45:
 347 0060 FFF7FEFF 		bl	memcpy
 348              	.LVL46:
 349              	.L29:
 387:Generated_Source\PSoC6\pdl\middleware\ble/cy_ble.c **** 
 350              		.loc 1 387 0
 351 0064 01A8     		add	r0, sp, #4
 352 0066 FFF7FEFF 		bl	Cy_BLE_StackInit
 353              	.LVL47:
 354              	.L28:
 424:Generated_Source\PSoC6\pdl\middleware\ble/cy_ble.c **** 
 355              		.loc 1 424 0
 356 006a 14B0     		add	sp, sp, #80
 357              		@ sp needed
 358 006c 10BD     		pop	{r4, pc}
 359              	.L31:
 360 006e C046     		.align	2
 361              	.L30:
 362 0070 00000000 		.word	.LANCHOR1
 363 0074 00000000 		.word	.LANCHOR2
 364 0078 00000000 		.word	.LANCHOR0
 365              		.cfi_endproc
 366              	.LFE159:
 367              		.size	Cy_BLE_Enable, .-Cy_BLE_Enable
 368              		.section	.text.Cy_BLE_Disable,"ax",%progbits
 369              		.align	2
 370              		.global	Cy_BLE_Disable
 371              		.code	16
 372              		.thumb_func
 373              		.type	Cy_BLE_Disable, %function
 374              	Cy_BLE_Disable:
 375              	.LFB160:
 465:Generated_Source\PSoC6\pdl\middleware\ble/cy_ble.c ****     cy_en_ble_api_result_t apiResult;
 376              		.loc 1 465 0
 377              		.cfi_startproc
 378              		@ args = 0, pretend = 0, frame = 0
 379              		@ frame_needed = 0, uses_anonymous_args = 0
 380              		@ link register save eliminated.
 381              	.LVL48:
ARM GAS  C:\Users\hkmnt\AppData\Local\Temp\ccXcTUuf.s 			page 24


 484:Generated_Source\PSoC6\pdl\middleware\ble/cy_ble.c **** 
 382              		.loc 1 484 0
 383 0000 0020     		movs	r0, #0
 384              		@ sp needed
 385 0002 7047     		bx	lr
 386              		.cfi_endproc
 387              	.LFE160:
 388              		.size	Cy_BLE_Disable, .-Cy_BLE_Disable
 389              		.section	.text.Cy_BLE_ConfigureExtPA,"ax",%progbits
 390              		.align	2
 391              		.global	Cy_BLE_ConfigureExtPA
 392              		.code	16
 393              		.thumb_func
 394              		.type	Cy_BLE_ConfigureExtPA, %function
 395              	Cy_BLE_ConfigureExtPA:
 396              	.LFB161:
 521:Generated_Source\PSoC6\pdl\middleware\ble/cy_ble.c ****     BLE->BLESS.EXT_PA_LNA_CTRL = controlValue;
 397              		.loc 1 521 0
 398              		.cfi_startproc
 399              		@ args = 0, pretend = 0, frame = 0
 400              		@ frame_needed = 0, uses_anonymous_args = 0
 401              		@ link register save eliminated.
 402              	.LVL49:
 522:Generated_Source\PSoC6\pdl\middleware\ble/cy_ble.c **** }
 403              		.loc 1 522 0
 404 0000 014B     		ldr	r3, .L34
 405 0002 024A     		ldr	r2, .L34+4
 406 0004 D050     		str	r0, [r2, r3]
 523:Generated_Source\PSoC6\pdl\middleware\ble/cy_ble.c **** 
 407              		.loc 1 523 0
 408              		@ sp needed
 409 0006 7047     		bx	lr
 410              	.L35:
 411              		.align	2
 412              	.L34:
 413 0008 78F00100 		.word	127096
 414 000c 00003C40 		.word	1077673984
 415              		.cfi_endproc
 416              	.LFE161:
 417              		.size	Cy_BLE_ConfigureExtPA, .-Cy_BLE_ConfigureExtPA
 418              		.global	cy_ble_configPtr
 419              		.global	cy_ble_stackMemoryRam
 420              		.data
 421              		.align	2
 422              		.set	.LANCHOR1,. + 0
 423              		.type	bleDeepSleepCallback, %object
 424              		.size	bleDeepSleepCallback, 24
 425              	bleDeepSleepCallback:
 426 0000 00000000 		.word	Cy_BLE_DeepSleepCallback
 427 0004 01       		.byte	1
 428 0005 000000   		.space	3
 429 0008 06000000 		.word	6
 430 000c 08000000 		.word	bleDeepSleepCallbackParams
 431 0010 00000000 		.space	8
 431      00000000 
 432              		.section	.noinit,"aw",%progbits
 433              		.align	2
ARM GAS  C:\Users\hkmnt\AppData\Local\Temp\ccXcTUuf.s 			page 25


 434              		.set	.LANCHOR2,. + 0
 435              		.type	cy_ble_stackMemoryRam, %object
 436              		.size	cy_ble_stackMemoryRam, 3440
 437              	cy_ble_stackMemoryRam:
 438 0000 00000000 		.space	3440
 438      00000000 
 438      00000000 
 438      00000000 
 438      00000000 
 439              		.bss
 440              		.align	2
 441              		.set	.LANCHOR0,. + 0
 442              		.type	interruptState.13294, %object
 443              		.size	interruptState.13294, 4
 444              	interruptState.13294:
 445 0000 00000000 		.space	4
 446              		.type	cy_ble_configPtr, %object
 447              		.size	cy_ble_configPtr, 4
 448              	cy_ble_configPtr:
 449 0004 00000000 		.space	4
 450              		.type	bleDeepSleepCallbackParams, %object
 451              		.size	bleDeepSleepCallbackParams, 8
 452              	bleDeepSleepCallbackParams:
 453 0008 00000000 		.space	8
 453      00000000 
 454              		.text
 455              	.Letext0:
 456              		.file 2 "c:\\program files (x86)\\cypress\\psoc creator\\4.4\\psoc creator\\import\\gnu\\arm\\5.4.
 457              		.file 3 "c:\\program files (x86)\\cypress\\psoc creator\\4.4\\psoc creator\\import\\gnu\\arm\\5.4.
 458              		.file 4 "Generated_Source\\PSoC6\\pdl\\drivers/peripheral/device/cy_device.h"
 459              		.file 5 "Generated_Source\\PSoC6\\pdl\\devices/psoc6/include/cyble_416045_02.h"
 460              		.file 6 "Generated_Source\\PSoC6\\pdl\\devices/psoc6/include/ip/cyip_ble.h"
 461              		.file 7 "Generated_Source\\PSoC6\\pdl\\devices/psoc6/include/psoc6_01_config.h"
 462              		.file 8 "Generated_Source\\PSoC6\\pdl\\drivers/peripheral/sysint/cy_sysint.h"
 463              		.file 9 "Generated_Source\\PSoC6\\pdl\\drivers/peripheral/syspm/cy_syspm.h"
 464              		.file 10 "Generated_Source\\PSoC6\\pdl\\middleware\\ble\\cy_ble_stack.h"
 465              		.file 11 "Generated_Source\\PSoC6\\pdl\\middleware\\ble\\cy_ble.h"
 466              		.file 12 "Generated_Source\\PSoC6\\pdl\\drivers/peripheral/ipc/cy_ipc_sema.h"
 467              		.file 13 "Generated_Source\\PSoC6\\pdl\\drivers/peripheral/syslib/cy_syslib.h"
 468              		.file 14 "Generated_Source\\PSoC6\\pdl\\middleware\\ble\\cy_ble_clk.h"