ARM GAS  C:\Users\hkmnt\AppData\Local\Temp\cc5kZCpV.s 			page 1


   1              		.syntax unified
   2              		.cpu cortex-m0plus
   3              		.fpu softvfp
   4              		.eabi_attribute 20, 1
   5              		.eabi_attribute 21, 1
   6              		.eabi_attribute 23, 3
   7              		.eabi_attribute 24, 1
   8              		.eabi_attribute 25, 1
   9              		.eabi_attribute 26, 1
  10              		.eabi_attribute 30, 1
  11              		.eabi_attribute 34, 0
  12              		.eabi_attribute 18, 4
  13              		.thumb
  14              		.syntax unified
  15              		.file	"cy_mcwdt.c"
  16              		.text
  17              	.Ltext0:
  18              		.cfi_sections	.debug_frame
  19              		.section	.text.Cy_MCWDT_Init,"ax",%progbits
  20              		.align	2
  21              		.global	Cy_MCWDT_Init
  22              		.code	16
  23              		.thumb_func
  24              		.type	Cy_MCWDT_Init, %function
  25              	Cy_MCWDT_Init:
  26              	.LFB69:
  27              		.file 1 "Generated_Source\\PSoC6\\pdl\\drivers\\peripheral\\mcwdt\\cy_mcwdt.c"
   1:Generated_Source\PSoC6\pdl\drivers\peripheral\mcwdt/cy_mcwdt.c **** /***************************************************************************//**
   2:Generated_Source\PSoC6\pdl\drivers\peripheral\mcwdt/cy_mcwdt.c **** * \file cy_mcwdt.c
   3:Generated_Source\PSoC6\pdl\drivers\peripheral\mcwdt/cy_mcwdt.c **** * \version 1.20
   4:Generated_Source\PSoC6\pdl\drivers\peripheral\mcwdt/cy_mcwdt.c **** *
   5:Generated_Source\PSoC6\pdl\drivers\peripheral\mcwdt/cy_mcwdt.c **** *  Description:
   6:Generated_Source\PSoC6\pdl\drivers\peripheral\mcwdt/cy_mcwdt.c **** *   Provides a system API for the MCWDT driver.
   7:Generated_Source\PSoC6\pdl\drivers\peripheral\mcwdt/cy_mcwdt.c **** *
   8:Generated_Source\PSoC6\pdl\drivers\peripheral\mcwdt/cy_mcwdt.c **** ********************************************************************************
   9:Generated_Source\PSoC6\pdl\drivers\peripheral\mcwdt/cy_mcwdt.c **** * Copyright 2016-2018, Cypress Semiconductor Corporation. All rights reserved.
  10:Generated_Source\PSoC6\pdl\drivers\peripheral\mcwdt/cy_mcwdt.c **** * You may use this file only in accordance with the license, terms, conditions,
  11:Generated_Source\PSoC6\pdl\drivers\peripheral\mcwdt/cy_mcwdt.c **** * disclaimers, and limitations in the end user license agreement accompanying
  12:Generated_Source\PSoC6\pdl\drivers\peripheral\mcwdt/cy_mcwdt.c **** * the software package with which this file was provided.
  13:Generated_Source\PSoC6\pdl\drivers\peripheral\mcwdt/cy_mcwdt.c **** *******************************************************************************/
  14:Generated_Source\PSoC6\pdl\drivers\peripheral\mcwdt/cy_mcwdt.c **** 
  15:Generated_Source\PSoC6\pdl\drivers\peripheral\mcwdt/cy_mcwdt.c **** #include "cy_mcwdt.h"
  16:Generated_Source\PSoC6\pdl\drivers\peripheral\mcwdt/cy_mcwdt.c **** 
  17:Generated_Source\PSoC6\pdl\drivers\peripheral\mcwdt/cy_mcwdt.c **** #ifdef CY_IP_MXS40SRSS_MCWDT
  18:Generated_Source\PSoC6\pdl\drivers\peripheral\mcwdt/cy_mcwdt.c **** 
  19:Generated_Source\PSoC6\pdl\drivers\peripheral\mcwdt/cy_mcwdt.c **** #if defined(__cplusplus)
  20:Generated_Source\PSoC6\pdl\drivers\peripheral\mcwdt/cy_mcwdt.c **** extern "C" {
  21:Generated_Source\PSoC6\pdl\drivers\peripheral\mcwdt/cy_mcwdt.c **** #endif
  22:Generated_Source\PSoC6\pdl\drivers\peripheral\mcwdt/cy_mcwdt.c **** 
  23:Generated_Source\PSoC6\pdl\drivers\peripheral\mcwdt/cy_mcwdt.c **** /*******************************************************************************
  24:Generated_Source\PSoC6\pdl\drivers\peripheral\mcwdt/cy_mcwdt.c **** * Function Name: Cy_MCWDT_Init
  25:Generated_Source\PSoC6\pdl\drivers\peripheral\mcwdt/cy_mcwdt.c **** ****************************************************************************//**
  26:Generated_Source\PSoC6\pdl\drivers\peripheral\mcwdt/cy_mcwdt.c **** *
  27:Generated_Source\PSoC6\pdl\drivers\peripheral\mcwdt/cy_mcwdt.c **** * Initializes the MCWDT block.
  28:Generated_Source\PSoC6\pdl\drivers\peripheral\mcwdt/cy_mcwdt.c **** *
  29:Generated_Source\PSoC6\pdl\drivers\peripheral\mcwdt/cy_mcwdt.c **** *  \param base
  30:Generated_Source\PSoC6\pdl\drivers\peripheral\mcwdt/cy_mcwdt.c **** *  The base pointer to a structure that describes the registers.
ARM GAS  C:\Users\hkmnt\AppData\Local\Temp\cc5kZCpV.s 			page 2


  31:Generated_Source\PSoC6\pdl\drivers\peripheral\mcwdt/cy_mcwdt.c **** *
  32:Generated_Source\PSoC6\pdl\drivers\peripheral\mcwdt/cy_mcwdt.c **** *  \param config
  33:Generated_Source\PSoC6\pdl\drivers\peripheral\mcwdt/cy_mcwdt.c **** *  The pointer to a structure that contains component configuration data.
  34:Generated_Source\PSoC6\pdl\drivers\peripheral\mcwdt/cy_mcwdt.c **** *
  35:Generated_Source\PSoC6\pdl\drivers\peripheral\mcwdt/cy_mcwdt.c **** * \return cy_en_mcwdt_status_t
  36:Generated_Source\PSoC6\pdl\drivers\peripheral\mcwdt/cy_mcwdt.c **** *     *base checking result. If the pointer is NULL, returns error.
  37:Generated_Source\PSoC6\pdl\drivers\peripheral\mcwdt/cy_mcwdt.c **** *
  38:Generated_Source\PSoC6\pdl\drivers\peripheral\mcwdt/cy_mcwdt.c **** *  \note
  39:Generated_Source\PSoC6\pdl\drivers\peripheral\mcwdt/cy_mcwdt.c **** *  This API should not be called when the counters are running. Prior to calling
  40:Generated_Source\PSoC6\pdl\drivers\peripheral\mcwdt/cy_mcwdt.c **** *  this API the counter should be disabled.
  41:Generated_Source\PSoC6\pdl\drivers\peripheral\mcwdt/cy_mcwdt.c **** *
  42:Generated_Source\PSoC6\pdl\drivers\peripheral\mcwdt/cy_mcwdt.c **** *******************************************************************************/
  43:Generated_Source\PSoC6\pdl\drivers\peripheral\mcwdt/cy_mcwdt.c **** cy_en_mcwdt_status_t Cy_MCWDT_Init(MCWDT_STRUCT_Type *base, cy_stc_mcwdt_config_t const *config)
  44:Generated_Source\PSoC6\pdl\drivers\peripheral\mcwdt/cy_mcwdt.c **** {
  28              		.loc 1 44 0
  29              		.cfi_startproc
  30              		@ args = 0, pretend = 0, frame = 0
  31              		@ frame_needed = 0, uses_anonymous_args = 0
  32              	.LVL0:
  33 0000 70B5     		push	{r4, r5, r6, lr}
  34              		.cfi_def_cfa_offset 16
  35              		.cfi_offset 4, -16
  36              		.cfi_offset 5, -12
  37              		.cfi_offset 6, -8
  38              		.cfi_offset 14, -4
  39 0002 0500     		movs	r5, r0
  40 0004 0C00     		movs	r4, r1
  41              	.LVL1:
  45:Generated_Source\PSoC6\pdl\drivers\peripheral\mcwdt/cy_mcwdt.c ****     cy_en_mcwdt_status_t ret = CY_MCWDT_BAD_PARAM;
  46:Generated_Source\PSoC6\pdl\drivers\peripheral\mcwdt/cy_mcwdt.c **** 
  47:Generated_Source\PSoC6\pdl\drivers\peripheral\mcwdt/cy_mcwdt.c ****     if ((base != NULL) && (config != NULL))
  42              		.loc 1 47 0
  43 0006 0028     		cmp	r0, #0
  44 0008 73D0     		beq	.L13
  45              		.loc 1 47 0 is_stmt 0 discriminator 1
  46 000a 0029     		cmp	r1, #0
  47 000c 73D0     		beq	.L14
  48:Generated_Source\PSoC6\pdl\drivers\peripheral\mcwdt/cy_mcwdt.c ****     {
  49:Generated_Source\PSoC6\pdl\drivers\peripheral\mcwdt/cy_mcwdt.c ****         CY_ASSERT_L2(CY_MCWDT_IS_MATCH_VALID(config->c0ClearOnMatch, config->c0Match));
  48              		.loc 1 49 0 is_stmt 1
  49 000e 0B7A     		ldrb	r3, [r1, #8]
  50 0010 002B     		cmp	r3, #0
  51 0012 03D0     		beq	.L3
  52              		.loc 1 49 0 is_stmt 0 discriminator 1
  53 0014 0B88     		ldrh	r3, [r1]
  54 0016 5A42     		rsbs	r2, r3, #0
  55 0018 5341     		adcs	r3, r3, r2
  56 001a DBB2     		uxtb	r3, r3
  57              	.L3:
  58              		.loc 1 49 0 discriminator 4
  59 001c 002B     		cmp	r3, #0
  60 001e 03D0     		beq	.L4
  61              		.loc 1 49 0 discriminator 5
  62 0020 3121     		movs	r1, #49
  63              	.LVL2:
  64 0022 3648     		ldr	r0, .L17
  65              	.LVL3:
ARM GAS  C:\Users\hkmnt\AppData\Local\Temp\cc5kZCpV.s 			page 3


  66 0024 FFF7FEFF 		bl	Cy_SysLib_AssertFailed
  67              	.LVL4:
  68              	.L4:
  50:Generated_Source\PSoC6\pdl\drivers\peripheral\mcwdt/cy_mcwdt.c ****         CY_ASSERT_L2(CY_MCWDT_IS_MATCH_VALID(config->c1ClearOnMatch, config->c1Match));
  69              		.loc 1 50 0 is_stmt 1
  70 0028 637A     		ldrb	r3, [r4, #9]
  71 002a 002B     		cmp	r3, #0
  72 002c 03D0     		beq	.L5
  73              		.loc 1 50 0 is_stmt 0 discriminator 1
  74 002e 6388     		ldrh	r3, [r4, #2]
  75 0030 5A42     		rsbs	r2, r3, #0
  76 0032 5341     		adcs	r3, r3, r2
  77 0034 DBB2     		uxtb	r3, r3
  78              	.L5:
  79              		.loc 1 50 0 discriminator 4
  80 0036 002B     		cmp	r3, #0
  81 0038 03D0     		beq	.L6
  82              		.loc 1 50 0 discriminator 5
  83 003a 3221     		movs	r1, #50
  84 003c 2F48     		ldr	r0, .L17
  85 003e FFF7FEFF 		bl	Cy_SysLib_AssertFailed
  86              	.LVL5:
  87              	.L6:
  51:Generated_Source\PSoC6\pdl\drivers\peripheral\mcwdt/cy_mcwdt.c ****         CY_ASSERT_L2(CY_MCWDT_IS_BIT_VALID(config->c2ToggleBit));
  88              		.loc 1 51 0 is_stmt 1
  89 0042 A379     		ldrb	r3, [r4, #6]
  90 0044 1F2B     		cmp	r3, #31
  91 0046 03D9     		bls	.L7
  92              		.loc 1 51 0 is_stmt 0 discriminator 1
  93 0048 3321     		movs	r1, #51
  94 004a 2C48     		ldr	r0, .L17
  95 004c FFF7FEFF 		bl	Cy_SysLib_AssertFailed
  96              	.LVL6:
  97              	.L7:
  52:Generated_Source\PSoC6\pdl\drivers\peripheral\mcwdt/cy_mcwdt.c ****         CY_ASSERT_L3(CY_MCWDT_IS_MODE_VALID((cy_en_mcwdtmode_t)config->c0Mode));
  98              		.loc 1 52 0 is_stmt 1
  99 0050 2379     		ldrb	r3, [r4, #4]
 100 0052 032B     		cmp	r3, #3
 101 0054 03D9     		bls	.L8
 102              		.loc 1 52 0 is_stmt 0 discriminator 1
 103 0056 3421     		movs	r1, #52
 104 0058 2848     		ldr	r0, .L17
 105 005a FFF7FEFF 		bl	Cy_SysLib_AssertFailed
 106              	.LVL7:
 107              	.L8:
  53:Generated_Source\PSoC6\pdl\drivers\peripheral\mcwdt/cy_mcwdt.c ****         CY_ASSERT_L3(CY_MCWDT_IS_MODE_VALID((cy_en_mcwdtmode_t)config->c1Mode));
 108              		.loc 1 53 0 is_stmt 1
 109 005e 6379     		ldrb	r3, [r4, #5]
 110 0060 032B     		cmp	r3, #3
 111 0062 03D9     		bls	.L9
 112              		.loc 1 53 0 is_stmt 0 discriminator 1
 113 0064 3521     		movs	r1, #53
 114 0066 2548     		ldr	r0, .L17
 115 0068 FFF7FEFF 		bl	Cy_SysLib_AssertFailed
 116              	.LVL8:
 117              	.L9:
  54:Generated_Source\PSoC6\pdl\drivers\peripheral\mcwdt/cy_mcwdt.c ****         CY_ASSERT_L3(CY_MCWDT_IS_MODE_VALID((cy_en_mcwdtmode_t)config->c2Mode));
ARM GAS  C:\Users\hkmnt\AppData\Local\Temp\cc5kZCpV.s 			page 4


 118              		.loc 1 54 0 is_stmt 1
 119 006c E379     		ldrb	r3, [r4, #7]
 120 006e 032B     		cmp	r3, #3
 121 0070 03D9     		bls	.L10
 122              		.loc 1 54 0 is_stmt 0 discriminator 1
 123 0072 3621     		movs	r1, #54
 124 0074 2148     		ldr	r0, .L17
 125 0076 FFF7FEFF 		bl	Cy_SysLib_AssertFailed
 126              	.LVL9:
 127              	.L10:
  55:Generated_Source\PSoC6\pdl\drivers\peripheral\mcwdt/cy_mcwdt.c **** 
  56:Generated_Source\PSoC6\pdl\drivers\peripheral\mcwdt/cy_mcwdt.c ****         MCWDT_STRUCT_MCWDT_MATCH(base) = _VAL2FLD(MCWDT_STRUCT_MCWDT_MATCH_WDT_MATCH1, config->c1Ma
 128              		.loc 1 56 0 is_stmt 1
 129 007a 6388     		ldrh	r3, [r4, #2]
 130 007c 1B04     		lsls	r3, r3, #16
  57:Generated_Source\PSoC6\pdl\drivers\peripheral\mcwdt/cy_mcwdt.c ****                                          _VAL2FLD(MCWDT_STRUCT_MCWDT_MATCH_WDT_MATCH0, config->c0Ma
 131              		.loc 1 57 0
 132 007e 2288     		ldrh	r2, [r4]
  56:Generated_Source\PSoC6\pdl\drivers\peripheral\mcwdt/cy_mcwdt.c ****                                          _VAL2FLD(MCWDT_STRUCT_MCWDT_MATCH_WDT_MATCH0, config->c0Ma
 133              		.loc 1 56 0
 134 0080 1343     		orrs	r3, r2
 135 0082 EB60     		str	r3, [r5, #12]
  58:Generated_Source\PSoC6\pdl\drivers\peripheral\mcwdt/cy_mcwdt.c **** 
  59:Generated_Source\PSoC6\pdl\drivers\peripheral\mcwdt/cy_mcwdt.c ****         MCWDT_STRUCT_MCWDT_CONFIG(base) = _VAL2FLD(MCWDT_STRUCT_MCWDT_CONFIG_WDT_BITS2, config->c2T
 136              		.loc 1 59 0
 137 0084 A079     		ldrb	r0, [r4, #6]
 138 0086 0006     		lsls	r0, r0, #24
 139 0088 F822     		movs	r2, #248
 140 008a 5205     		lsls	r2, r2, #21
 141 008c 1040     		ands	r0, r2
  60:Generated_Source\PSoC6\pdl\drivers\peripheral\mcwdt/cy_mcwdt.c ****                                        _VAL2FLD(MCWDT_STRUCT_MCWDT_CONFIG_WDT_MODE2, config->c2Mode
 142              		.loc 1 60 0
 143 008e E379     		ldrb	r3, [r4, #7]
 144 0090 1B04     		lsls	r3, r3, #16
 145 0092 8022     		movs	r2, #128
 146 0094 5202     		lsls	r2, r2, #9
 147 0096 1340     		ands	r3, r2
  59:Generated_Source\PSoC6\pdl\drivers\peripheral\mcwdt/cy_mcwdt.c ****                                        _VAL2FLD(MCWDT_STRUCT_MCWDT_CONFIG_WDT_MODE2, config->c2Mode
 148              		.loc 1 59 0
 149 0098 0343     		orrs	r3, r0
  61:Generated_Source\PSoC6\pdl\drivers\peripheral\mcwdt/cy_mcwdt.c ****                                        _VAL2FLD(MCWDT_STRUCT_MCWDT_CONFIG_WDT_CLEAR0, config->c0Cle
 150              		.loc 1 61 0
 151 009a 227A     		ldrb	r2, [r4, #8]
 152 009c 9200     		lsls	r2, r2, #2
 153 009e 0420     		movs	r0, #4
 154 00a0 0240     		ands	r2, r0
  60:Generated_Source\PSoC6\pdl\drivers\peripheral\mcwdt/cy_mcwdt.c ****                                        _VAL2FLD(MCWDT_STRUCT_MCWDT_CONFIG_WDT_MODE2, config->c2Mode
 155              		.loc 1 60 0
 156 00a2 1343     		orrs	r3, r2
 157 00a4 1800     		movs	r0, r3
  62:Generated_Source\PSoC6\pdl\drivers\peripheral\mcwdt/cy_mcwdt.c ****                                        _VAL2FLD(MCWDT_STRUCT_MCWDT_CONFIG_WDT_CLEAR1, config->c1Cle
 158              		.loc 1 62 0
 159 00a6 637A     		ldrb	r3, [r4, #9]
 160 00a8 9B02     		lsls	r3, r3, #10
 161 00aa 8021     		movs	r1, #128
 162 00ac C900     		lsls	r1, r1, #3
 163 00ae 0B40     		ands	r3, r1
ARM GAS  C:\Users\hkmnt\AppData\Local\Temp\cc5kZCpV.s 			page 5


 164 00b0 1A00     		movs	r2, r3
  61:Generated_Source\PSoC6\pdl\drivers\peripheral\mcwdt/cy_mcwdt.c ****                                        _VAL2FLD(MCWDT_STRUCT_MCWDT_CONFIG_WDT_CLEAR0, config->c0Cle
 165              		.loc 1 61 0
 166 00b2 0300     		movs	r3, r0
 167 00b4 1343     		orrs	r3, r2
  63:Generated_Source\PSoC6\pdl\drivers\peripheral\mcwdt/cy_mcwdt.c ****                                        (config->c1c2Cascade ? MCWDT_STRUCT_MCWDT_CONFIG_WDT_CASCADE
 168              		.loc 1 63 0
 169 00b6 E27A     		ldrb	r2, [r4, #11]
 170 00b8 002A     		cmp	r2, #0
 171 00ba 02D0     		beq	.L15
 172 00bc 8020     		movs	r0, #128
 173 00be 0001     		lsls	r0, r0, #4
 174 00c0 00E0     		b	.L11
 175              	.L15:
 176 00c2 0020     		movs	r0, #0
 177              	.L11:
  62:Generated_Source\PSoC6\pdl\drivers\peripheral\mcwdt/cy_mcwdt.c ****                                        _VAL2FLD(MCWDT_STRUCT_MCWDT_CONFIG_WDT_CLEAR1, config->c1Cle
 178              		.loc 1 62 0
 179 00c4 1843     		orrs	r0, r3
  64:Generated_Source\PSoC6\pdl\drivers\peripheral\mcwdt/cy_mcwdt.c ****                                        _VAL2FLD(MCWDT_STRUCT_MCWDT_CONFIG_WDT_MODE1, config->c1Mode
 180              		.loc 1 64 0
 181 00c6 6379     		ldrb	r3, [r4, #5]
 182 00c8 1B02     		lsls	r3, r3, #8
 183 00ca C021     		movs	r1, #192
 184 00cc 8900     		lsls	r1, r1, #2
 185 00ce 0B40     		ands	r3, r1
 186 00d0 1A00     		movs	r2, r3
  63:Generated_Source\PSoC6\pdl\drivers\peripheral\mcwdt/cy_mcwdt.c ****                                        (config->c1c2Cascade ? MCWDT_STRUCT_MCWDT_CONFIG_WDT_CASCADE
 187              		.loc 1 63 0
 188 00d2 0300     		movs	r3, r0
 189 00d4 1343     		orrs	r3, r2
  65:Generated_Source\PSoC6\pdl\drivers\peripheral\mcwdt/cy_mcwdt.c ****                                        (config->c0c1Cascade ? MCWDT_STRUCT_MCWDT_CONFIG_WDT_CASCADE
 190              		.loc 1 65 0
 191 00d6 A27A     		ldrb	r2, [r4, #10]
 192 00d8 002A     		cmp	r2, #0
 193 00da 01D0     		beq	.L16
 194 00dc 0822     		movs	r2, #8
 195 00de 00E0     		b	.L12
 196              	.L16:
 197 00e0 0022     		movs	r2, #0
 198              	.L12:
  64:Generated_Source\PSoC6\pdl\drivers\peripheral\mcwdt/cy_mcwdt.c ****                                        _VAL2FLD(MCWDT_STRUCT_MCWDT_CONFIG_WDT_MODE1, config->c1Mode
 199              		.loc 1 64 0
 200 00e2 1343     		orrs	r3, r2
  66:Generated_Source\PSoC6\pdl\drivers\peripheral\mcwdt/cy_mcwdt.c ****                                        _VAL2FLD(MCWDT_STRUCT_MCWDT_CONFIG_WDT_MODE0, config->c0Mode
 201              		.loc 1 66 0
 202 00e4 2279     		ldrb	r2, [r4, #4]
 203 00e6 0321     		movs	r1, #3
 204 00e8 0A40     		ands	r2, r1
  65:Generated_Source\PSoC6\pdl\drivers\peripheral\mcwdt/cy_mcwdt.c ****                                        (config->c0c1Cascade ? MCWDT_STRUCT_MCWDT_CONFIG_WDT_CASCADE
 205              		.loc 1 65 0
 206 00ea 1343     		orrs	r3, r2
  59:Generated_Source\PSoC6\pdl\drivers\peripheral\mcwdt/cy_mcwdt.c ****                                        _VAL2FLD(MCWDT_STRUCT_MCWDT_CONFIG_WDT_MODE2, config->c2Mode
 207              		.loc 1 59 0
 208 00ec 2B61     		str	r3, [r5, #16]
 209              	.LVL10:
  67:Generated_Source\PSoC6\pdl\drivers\peripheral\mcwdt/cy_mcwdt.c ****                            
ARM GAS  C:\Users\hkmnt\AppData\Local\Temp\cc5kZCpV.s 			page 6


  68:Generated_Source\PSoC6\pdl\drivers\peripheral\mcwdt/cy_mcwdt.c ****         ret = CY_MCWDT_SUCCESS;
 210              		.loc 1 68 0
 211 00ee 0020     		movs	r0, #0
 212 00f0 02E0     		b	.L2
 213              	.LVL11:
 214              	.L13:
  45:Generated_Source\PSoC6\pdl\drivers\peripheral\mcwdt/cy_mcwdt.c **** 
 215              		.loc 1 45 0
 216 00f2 0348     		ldr	r0, .L17+4
 217              	.LVL12:
 218 00f4 00E0     		b	.L2
 219              	.LVL13:
 220              	.L14:
 221 00f6 0248     		ldr	r0, .L17+4
 222              	.LVL14:
 223              	.L2:
  69:Generated_Source\PSoC6\pdl\drivers\peripheral\mcwdt/cy_mcwdt.c ****     }
  70:Generated_Source\PSoC6\pdl\drivers\peripheral\mcwdt/cy_mcwdt.c ****                            
  71:Generated_Source\PSoC6\pdl\drivers\peripheral\mcwdt/cy_mcwdt.c ****     return (ret);
  72:Generated_Source\PSoC6\pdl\drivers\peripheral\mcwdt/cy_mcwdt.c **** }
 224              		.loc 1 72 0
 225              		@ sp needed
 226              	.LVL15:
 227              	.LVL16:
 228 00f8 70BD     		pop	{r4, r5, r6, pc}
 229              	.L18:
 230 00fa C046     		.align	2
 231              	.L17:
 232 00fc 00000000 		.word	.LC0
 233 0100 0100D600 		.word	14024705
 234              		.cfi_endproc
 235              	.LFE69:
 236              		.size	Cy_MCWDT_Init, .-Cy_MCWDT_Init
 237              		.section	.text.Cy_MCWDT_DeInit,"ax",%progbits
 238              		.align	2
 239              		.global	Cy_MCWDT_DeInit
 240              		.code	16
 241              		.thumb_func
 242              		.type	Cy_MCWDT_DeInit, %function
 243              	Cy_MCWDT_DeInit:
 244              	.LFB70:
  73:Generated_Source\PSoC6\pdl\drivers\peripheral\mcwdt/cy_mcwdt.c **** 
  74:Generated_Source\PSoC6\pdl\drivers\peripheral\mcwdt/cy_mcwdt.c **** 
  75:Generated_Source\PSoC6\pdl\drivers\peripheral\mcwdt/cy_mcwdt.c **** /*******************************************************************************
  76:Generated_Source\PSoC6\pdl\drivers\peripheral\mcwdt/cy_mcwdt.c **** * Function Name: Cy_MCWDT_DeInit
  77:Generated_Source\PSoC6\pdl\drivers\peripheral\mcwdt/cy_mcwdt.c **** ****************************************************************************//**
  78:Generated_Source\PSoC6\pdl\drivers\peripheral\mcwdt/cy_mcwdt.c **** *
  79:Generated_Source\PSoC6\pdl\drivers\peripheral\mcwdt/cy_mcwdt.c **** *  De-initializes the MCWDT block, returns register values to their default state.
  80:Generated_Source\PSoC6\pdl\drivers\peripheral\mcwdt/cy_mcwdt.c **** *
  81:Generated_Source\PSoC6\pdl\drivers\peripheral\mcwdt/cy_mcwdt.c **** *  \param base
  82:Generated_Source\PSoC6\pdl\drivers\peripheral\mcwdt/cy_mcwdt.c **** *  The base pointer to a structure that describes the registers.
  83:Generated_Source\PSoC6\pdl\drivers\peripheral\mcwdt/cy_mcwdt.c **** *
  84:Generated_Source\PSoC6\pdl\drivers\peripheral\mcwdt/cy_mcwdt.c **** *  \note
  85:Generated_Source\PSoC6\pdl\drivers\peripheral\mcwdt/cy_mcwdt.c **** *  This API should not be called when the counters are running. Prior to calling
  86:Generated_Source\PSoC6\pdl\drivers\peripheral\mcwdt/cy_mcwdt.c **** *  this API the counter should be disabled.
  87:Generated_Source\PSoC6\pdl\drivers\peripheral\mcwdt/cy_mcwdt.c **** *
  88:Generated_Source\PSoC6\pdl\drivers\peripheral\mcwdt/cy_mcwdt.c **** *******************************************************************************/
ARM GAS  C:\Users\hkmnt\AppData\Local\Temp\cc5kZCpV.s 			page 7


  89:Generated_Source\PSoC6\pdl\drivers\peripheral\mcwdt/cy_mcwdt.c **** void Cy_MCWDT_DeInit(MCWDT_STRUCT_Type *base)
  90:Generated_Source\PSoC6\pdl\drivers\peripheral\mcwdt/cy_mcwdt.c **** {
 245              		.loc 1 90 0
 246              		.cfi_startproc
 247              		@ args = 0, pretend = 0, frame = 0
 248              		@ frame_needed = 0, uses_anonymous_args = 0
 249              	.LVL17:
 250 0000 10B5     		push	{r4, lr}
 251              		.cfi_def_cfa_offset 8
 252              		.cfi_offset 4, -8
 253              		.cfi_offset 14, -4
 254 0002 0400     		movs	r4, r0
 255              	.LVL18:
 256              	.LBB4:
 257              	.LBB5:
 258              		.file 2 "Generated_Source\\PSoC6\\pdl\\drivers\\peripheral\\mcwdt\\cy_mcwdt.h"
   1:Generated_Source\PSoC6\pdl\drivers\peripheral\mcwdt/cy_mcwdt.h **** /***************************************************************************//**
   2:Generated_Source\PSoC6\pdl\drivers\peripheral\mcwdt/cy_mcwdt.h **** * \file cy_mcwdt.h
   3:Generated_Source\PSoC6\pdl\drivers\peripheral\mcwdt/cy_mcwdt.h **** * \version 1.20
   4:Generated_Source\PSoC6\pdl\drivers\peripheral\mcwdt/cy_mcwdt.h **** *
   5:Generated_Source\PSoC6\pdl\drivers\peripheral\mcwdt/cy_mcwdt.h **** * Provides an API declaration of the Cypress PDL 3.0 MCWDT driver
   6:Generated_Source\PSoC6\pdl\drivers\peripheral\mcwdt/cy_mcwdt.h **** *
   7:Generated_Source\PSoC6\pdl\drivers\peripheral\mcwdt/cy_mcwdt.h **** ********************************************************************************
   8:Generated_Source\PSoC6\pdl\drivers\peripheral\mcwdt/cy_mcwdt.h **** * \copyright
   9:Generated_Source\PSoC6\pdl\drivers\peripheral\mcwdt/cy_mcwdt.h **** * Copyright 2016-2018, Cypress Semiconductor Corporation.  All rights reserved.
  10:Generated_Source\PSoC6\pdl\drivers\peripheral\mcwdt/cy_mcwdt.h **** * You may use this file only in accordance with the license, terms, conditions,
  11:Generated_Source\PSoC6\pdl\drivers\peripheral\mcwdt/cy_mcwdt.h **** * disclaimers, and limitations in the end user license agreement accompanying
  12:Generated_Source\PSoC6\pdl\drivers\peripheral\mcwdt/cy_mcwdt.h **** * the software package with which this file was provided.
  13:Generated_Source\PSoC6\pdl\drivers\peripheral\mcwdt/cy_mcwdt.h **** *******************************************************************************/
  14:Generated_Source\PSoC6\pdl\drivers\peripheral\mcwdt/cy_mcwdt.h **** 
  15:Generated_Source\PSoC6\pdl\drivers\peripheral\mcwdt/cy_mcwdt.h **** /**
  16:Generated_Source\PSoC6\pdl\drivers\peripheral\mcwdt/cy_mcwdt.h **** * \addtogroup group_mcwdt
  17:Generated_Source\PSoC6\pdl\drivers\peripheral\mcwdt/cy_mcwdt.h **** * \{
  18:Generated_Source\PSoC6\pdl\drivers\peripheral\mcwdt/cy_mcwdt.h **** * A MCWDT has two 16-bit counters and one 32-bit counter.
  19:Generated_Source\PSoC6\pdl\drivers\peripheral\mcwdt/cy_mcwdt.h **** *
  20:Generated_Source\PSoC6\pdl\drivers\peripheral\mcwdt/cy_mcwdt.h **** * The functions and other declarations used in this driver are in cy_mcwdt.h. 
  21:Generated_Source\PSoC6\pdl\drivers\peripheral\mcwdt/cy_mcwdt.h **** * You can include cy_pdl.h (ModusToolbox only) to get access to all functions 
  22:Generated_Source\PSoC6\pdl\drivers\peripheral\mcwdt/cy_mcwdt.h **** * and declarations in the PDL. 
  23:Generated_Source\PSoC6\pdl\drivers\peripheral\mcwdt/cy_mcwdt.h **** * 
  24:Generated_Source\PSoC6\pdl\drivers\peripheral\mcwdt/cy_mcwdt.h **** * You can use this driver to create a free-running
  25:Generated_Source\PSoC6\pdl\drivers\peripheral\mcwdt/cy_mcwdt.h **** * timer or generate periodic interrupts. The driver also
  26:Generated_Source\PSoC6\pdl\drivers\peripheral\mcwdt/cy_mcwdt.h **** * includes support for the watchdog function to recover from CPU or
  27:Generated_Source\PSoC6\pdl\drivers\peripheral\mcwdt/cy_mcwdt.h **** * firmware failures.
  28:Generated_Source\PSoC6\pdl\drivers\peripheral\mcwdt/cy_mcwdt.h **** *
  29:Generated_Source\PSoC6\pdl\drivers\peripheral\mcwdt/cy_mcwdt.h **** * There are two primary use cases for MCWDT: generating periodic CPU interrupts;
  30:Generated_Source\PSoC6\pdl\drivers\peripheral\mcwdt/cy_mcwdt.h **** * and implementing a free-running timer. Both have many applications in
  31:Generated_Source\PSoC6\pdl\drivers\peripheral\mcwdt/cy_mcwdt.h **** * embedded systems:
  32:Generated_Source\PSoC6\pdl\drivers\peripheral\mcwdt/cy_mcwdt.h **** * * Measuring time between events
  33:Generated_Source\PSoC6\pdl\drivers\peripheral\mcwdt/cy_mcwdt.h **** * * Generating periodic events
  34:Generated_Source\PSoC6\pdl\drivers\peripheral\mcwdt/cy_mcwdt.h **** * * Synchronizing actions
  35:Generated_Source\PSoC6\pdl\drivers\peripheral\mcwdt/cy_mcwdt.h **** * * Real-time clocking
  36:Generated_Source\PSoC6\pdl\drivers\peripheral\mcwdt/cy_mcwdt.h **** * * Polling
  37:Generated_Source\PSoC6\pdl\drivers\peripheral\mcwdt/cy_mcwdt.h **** *
  38:Generated_Source\PSoC6\pdl\drivers\peripheral\mcwdt/cy_mcwdt.h **** * An additional use case is to implement a watchdog used for recovering from a CPU or
  39:Generated_Source\PSoC6\pdl\drivers\peripheral\mcwdt/cy_mcwdt.h **** * firmware failure.
  40:Generated_Source\PSoC6\pdl\drivers\peripheral\mcwdt/cy_mcwdt.h **** * 
  41:Generated_Source\PSoC6\pdl\drivers\peripheral\mcwdt/cy_mcwdt.h **** * \section group_mcwdt_configuration Configuration Considerations
ARM GAS  C:\Users\hkmnt\AppData\Local\Temp\cc5kZCpV.s 			page 8


  42:Generated_Source\PSoC6\pdl\drivers\peripheral\mcwdt/cy_mcwdt.h **** *
  43:Generated_Source\PSoC6\pdl\drivers\peripheral\mcwdt/cy_mcwdt.h **** * Each MCWDT may be configured for a particular product. 
  44:Generated_Source\PSoC6\pdl\drivers\peripheral\mcwdt/cy_mcwdt.h **** * One MCWDT block can be associated with only one CPU during runtime. 
  45:Generated_Source\PSoC6\pdl\drivers\peripheral\mcwdt/cy_mcwdt.h **** * A single MCWDT is not intended to be used by multiple CPUs simultaneously. 
  46:Generated_Source\PSoC6\pdl\drivers\peripheral\mcwdt/cy_mcwdt.h **** * Each block contains three sub-counters, each of which can be configured for 
  47:Generated_Source\PSoC6\pdl\drivers\peripheral\mcwdt/cy_mcwdt.h **** * various system utility functions - free running counter, periodic interrupts, 
  48:Generated_Source\PSoC6\pdl\drivers\peripheral\mcwdt/cy_mcwdt.h **** * watchdog reset, or three interrupts followed by a watchdog reset.
  49:Generated_Source\PSoC6\pdl\drivers\peripheral\mcwdt/cy_mcwdt.h **** * All counters are clocked by either LFCLK (nominal 32 kHz) or by a cascaded 
  50:Generated_Source\PSoC6\pdl\drivers\peripheral\mcwdt/cy_mcwdt.h **** * counter.
  51:Generated_Source\PSoC6\pdl\drivers\peripheral\mcwdt/cy_mcwdt.h **** * A simplified diagram of the MCWDT hardware is shown below:
  52:Generated_Source\PSoC6\pdl\drivers\peripheral\mcwdt/cy_mcwdt.h **** * \image html mcwdt.png
  53:Generated_Source\PSoC6\pdl\drivers\peripheral\mcwdt/cy_mcwdt.h **** * The frequency of the periodic interrupts can be configured using the Match 
  54:Generated_Source\PSoC6\pdl\drivers\peripheral\mcwdt/cy_mcwdt.h **** * value with combining Clear on match option, which can be set individually 
  55:Generated_Source\PSoC6\pdl\drivers\peripheral\mcwdt/cy_mcwdt.h **** * for each counter using Cy_MCWDT_SetClearOnMatch(). When the Clear on match option 
  56:Generated_Source\PSoC6\pdl\drivers\peripheral\mcwdt/cy_mcwdt.h **** * is not set, the periodic interrupts of the C0 and C1 16-bit sub-counters occur 
  57:Generated_Source\PSoC6\pdl\drivers\peripheral\mcwdt/cy_mcwdt.h **** * after 65535 counts and the match value defines the shift between interrupts 
  58:Generated_Source\PSoC6\pdl\drivers\peripheral\mcwdt/cy_mcwdt.h **** * (see the figure below). The enabled Clear on match option 
  59:Generated_Source\PSoC6\pdl\drivers\peripheral\mcwdt/cy_mcwdt.h **** * resets the counter when the interrupt occurs.
  60:Generated_Source\PSoC6\pdl\drivers\peripheral\mcwdt/cy_mcwdt.h **** * \image html mcwdt_counters.png
  61:Generated_Source\PSoC6\pdl\drivers\peripheral\mcwdt/cy_mcwdt.h **** * 32-bit sub-counter C2 does not have Clear on match option. 
  62:Generated_Source\PSoC6\pdl\drivers\peripheral\mcwdt/cy_mcwdt.h **** * The interrupt of counter C2 occurs when the counts equal 
  63:Generated_Source\PSoC6\pdl\drivers\peripheral\mcwdt/cy_mcwdt.h **** * 2<sup>Toggle bit</sup> value.
  64:Generated_Source\PSoC6\pdl\drivers\peripheral\mcwdt/cy_mcwdt.h **** * \image html mcwdt_subcounters.png
  65:Generated_Source\PSoC6\pdl\drivers\peripheral\mcwdt/cy_mcwdt.h **** * To set up an MCWDT, provide the configuration parameters in the 
  66:Generated_Source\PSoC6\pdl\drivers\peripheral\mcwdt/cy_mcwdt.h **** * cy_stc_mcwdt_config_t structure. Then call  
  67:Generated_Source\PSoC6\pdl\drivers\peripheral\mcwdt/cy_mcwdt.h **** * Cy_MCWDT_Init() to initialize the driver. 
  68:Generated_Source\PSoC6\pdl\drivers\peripheral\mcwdt/cy_mcwdt.h **** * Call Cy_MCWDT_Enable() to enable all specified counters.
  69:Generated_Source\PSoC6\pdl\drivers\peripheral\mcwdt/cy_mcwdt.h **** *
  70:Generated_Source\PSoC6\pdl\drivers\peripheral\mcwdt/cy_mcwdt.h **** * You can also set the mode of operation for any counter. If you choose
  71:Generated_Source\PSoC6\pdl\drivers\peripheral\mcwdt/cy_mcwdt.h **** * interrupt mode, use Cy_MCWDT_SetInterruptMask() with the 
  72:Generated_Source\PSoC6\pdl\drivers\peripheral\mcwdt/cy_mcwdt.h **** * parameter for the masks described in Macro Section. All counter interrupts 
  73:Generated_Source\PSoC6\pdl\drivers\peripheral\mcwdt/cy_mcwdt.h **** * are OR'd together to from a single combined MCWDT interrupt.
  74:Generated_Source\PSoC6\pdl\drivers\peripheral\mcwdt/cy_mcwdt.h **** * Additionally, enable the Global interrupts and initialize the referenced 
  75:Generated_Source\PSoC6\pdl\drivers\peripheral\mcwdt/cy_mcwdt.h **** * interrupt by setting the priority and the interrupt vector using  
  76:Generated_Source\PSoC6\pdl\drivers\peripheral\mcwdt/cy_mcwdt.h **** * \ref Cy_SysInt_Init() of the sysint driver.
  77:Generated_Source\PSoC6\pdl\drivers\peripheral\mcwdt/cy_mcwdt.h **** * 
  78:Generated_Source\PSoC6\pdl\drivers\peripheral\mcwdt/cy_mcwdt.h **** * The values of the MCWDT counters can be monitored using 
  79:Generated_Source\PSoC6\pdl\drivers\peripheral\mcwdt/cy_mcwdt.h **** * Cy_MCWDT_GetCount().
  80:Generated_Source\PSoC6\pdl\drivers\peripheral\mcwdt/cy_mcwdt.h **** *
  81:Generated_Source\PSoC6\pdl\drivers\peripheral\mcwdt/cy_mcwdt.h **** * \note In addition to the MCWDTs, each device has a separate watchdog timer
  82:Generated_Source\PSoC6\pdl\drivers\peripheral\mcwdt/cy_mcwdt.h **** * (WDT) that can also be used to generate a watchdog reset or periodic
  83:Generated_Source\PSoC6\pdl\drivers\peripheral\mcwdt/cy_mcwdt.h **** * interrupts. For more information on the WDT, see the appropriate section
  84:Generated_Source\PSoC6\pdl\drivers\peripheral\mcwdt/cy_mcwdt.h **** * of the PDL.
  85:Generated_Source\PSoC6\pdl\drivers\peripheral\mcwdt/cy_mcwdt.h **** *
  86:Generated_Source\PSoC6\pdl\drivers\peripheral\mcwdt/cy_mcwdt.h **** * \section group_mcwdt_more_information More Information
  87:Generated_Source\PSoC6\pdl\drivers\peripheral\mcwdt/cy_mcwdt.h **** *
  88:Generated_Source\PSoC6\pdl\drivers\peripheral\mcwdt/cy_mcwdt.h **** * For more information on the MCWDT peripheral, refer to 
  89:Generated_Source\PSoC6\pdl\drivers\peripheral\mcwdt/cy_mcwdt.h **** * the technical reference manual (TRM).
  90:Generated_Source\PSoC6\pdl\drivers\peripheral\mcwdt/cy_mcwdt.h **** *
  91:Generated_Source\PSoC6\pdl\drivers\peripheral\mcwdt/cy_mcwdt.h **** * \section group_mcwdt_MISRA MISRA-C Compliance
  92:Generated_Source\PSoC6\pdl\drivers\peripheral\mcwdt/cy_mcwdt.h **** * The mcwdt driver does not have any specific deviations.
  93:Generated_Source\PSoC6\pdl\drivers\peripheral\mcwdt/cy_mcwdt.h **** *
  94:Generated_Source\PSoC6\pdl\drivers\peripheral\mcwdt/cy_mcwdt.h **** * \section group_mcwdt_changelog Changelog
  95:Generated_Source\PSoC6\pdl\drivers\peripheral\mcwdt/cy_mcwdt.h **** * <table class="doxtable">
  96:Generated_Source\PSoC6\pdl\drivers\peripheral\mcwdt/cy_mcwdt.h **** *   <tr><th>Version</th><th>Changes</th><th>Reason for Change</th></tr>
  97:Generated_Source\PSoC6\pdl\drivers\peripheral\mcwdt/cy_mcwdt.h **** *   <tr>
  98:Generated_Source\PSoC6\pdl\drivers\peripheral\mcwdt/cy_mcwdt.h **** *     <td rowspan="2">1.20</td>
ARM GAS  C:\Users\hkmnt\AppData\Local\Temp\cc5kZCpV.s 			page 9


  99:Generated_Source\PSoC6\pdl\drivers\peripheral\mcwdt/cy_mcwdt.h **** *     <td>Flattened the organization of the driver source code into the single 
 100:Generated_Source\PSoC6\pdl\drivers\peripheral\mcwdt/cy_mcwdt.h **** *         source directory and the single include directory.
 101:Generated_Source\PSoC6\pdl\drivers\peripheral\mcwdt/cy_mcwdt.h **** *     </td>
 102:Generated_Source\PSoC6\pdl\drivers\peripheral\mcwdt/cy_mcwdt.h **** *     <td>Driver library directory-structure simplification.</td>
 103:Generated_Source\PSoC6\pdl\drivers\peripheral\mcwdt/cy_mcwdt.h **** *   </tr>
 104:Generated_Source\PSoC6\pdl\drivers\peripheral\mcwdt/cy_mcwdt.h **** *   <tr>
 105:Generated_Source\PSoC6\pdl\drivers\peripheral\mcwdt/cy_mcwdt.h **** *     <td>Added register access layer. Use register access macros instead
 106:Generated_Source\PSoC6\pdl\drivers\peripheral\mcwdt/cy_mcwdt.h **** *         of direct register access using dereferenced pointers.</td>
 107:Generated_Source\PSoC6\pdl\drivers\peripheral\mcwdt/cy_mcwdt.h **** *     <td>Makes register access device-independent, so that the PDL does 
 108:Generated_Source\PSoC6\pdl\drivers\peripheral\mcwdt/cy_mcwdt.h **** *         not need to be recompiled for each supported part number.</td>
 109:Generated_Source\PSoC6\pdl\drivers\peripheral\mcwdt/cy_mcwdt.h **** *   </tr>
 110:Generated_Source\PSoC6\pdl\drivers\peripheral\mcwdt/cy_mcwdt.h **** *   <tr>
 111:Generated_Source\PSoC6\pdl\drivers\peripheral\mcwdt/cy_mcwdt.h **** *     <td>1.10.1</td>
 112:Generated_Source\PSoC6\pdl\drivers\peripheral\mcwdt/cy_mcwdt.h **** *     <td>Updated description of the \ref cy_stc_mcwdt_config_t structure type</td>
 113:Generated_Source\PSoC6\pdl\drivers\peripheral\mcwdt/cy_mcwdt.h **** *     <td>Documentation update and clarification</td>
 114:Generated_Source\PSoC6\pdl\drivers\peripheral\mcwdt/cy_mcwdt.h **** *   </tr>
 115:Generated_Source\PSoC6\pdl\drivers\peripheral\mcwdt/cy_mcwdt.h **** *   <tr>
 116:Generated_Source\PSoC6\pdl\drivers\peripheral\mcwdt/cy_mcwdt.h **** *     <td>1.10</td>
 117:Generated_Source\PSoC6\pdl\drivers\peripheral\mcwdt/cy_mcwdt.h **** *     <td>Added input parameter validation to the API functions.<br>
 118:Generated_Source\PSoC6\pdl\drivers\peripheral\mcwdt/cy_mcwdt.h **** *     Added API function GetCountCascaded()</td>
 119:Generated_Source\PSoC6\pdl\drivers\peripheral\mcwdt/cy_mcwdt.h **** *     <td></td>
 120:Generated_Source\PSoC6\pdl\drivers\peripheral\mcwdt/cy_mcwdt.h **** *   </tr>
 121:Generated_Source\PSoC6\pdl\drivers\peripheral\mcwdt/cy_mcwdt.h **** *   <tr>
 122:Generated_Source\PSoC6\pdl\drivers\peripheral\mcwdt/cy_mcwdt.h **** *     <td>1.0</td>
 123:Generated_Source\PSoC6\pdl\drivers\peripheral\mcwdt/cy_mcwdt.h **** *     <td>Initial version</td>
 124:Generated_Source\PSoC6\pdl\drivers\peripheral\mcwdt/cy_mcwdt.h **** *     <td></td>
 125:Generated_Source\PSoC6\pdl\drivers\peripheral\mcwdt/cy_mcwdt.h **** *   </tr>
 126:Generated_Source\PSoC6\pdl\drivers\peripheral\mcwdt/cy_mcwdt.h **** * </table>
 127:Generated_Source\PSoC6\pdl\drivers\peripheral\mcwdt/cy_mcwdt.h **** *
 128:Generated_Source\PSoC6\pdl\drivers\peripheral\mcwdt/cy_mcwdt.h **** * \defgroup group_mcwdt_macros Macros
 129:Generated_Source\PSoC6\pdl\drivers\peripheral\mcwdt/cy_mcwdt.h **** * \defgroup group_mcwdt_functions Functions
 130:Generated_Source\PSoC6\pdl\drivers\peripheral\mcwdt/cy_mcwdt.h **** * \defgroup group_mcwdt_data_structures Data Structures
 131:Generated_Source\PSoC6\pdl\drivers\peripheral\mcwdt/cy_mcwdt.h **** * \defgroup group_mcwdt_enums Enumerated Types
 132:Generated_Source\PSoC6\pdl\drivers\peripheral\mcwdt/cy_mcwdt.h **** */
 133:Generated_Source\PSoC6\pdl\drivers\peripheral\mcwdt/cy_mcwdt.h **** 
 134:Generated_Source\PSoC6\pdl\drivers\peripheral\mcwdt/cy_mcwdt.h **** #ifndef CY_MCWDT_H
 135:Generated_Source\PSoC6\pdl\drivers\peripheral\mcwdt/cy_mcwdt.h **** #define CY_MCWDT_H
 136:Generated_Source\PSoC6\pdl\drivers\peripheral\mcwdt/cy_mcwdt.h **** 
 137:Generated_Source\PSoC6\pdl\drivers\peripheral\mcwdt/cy_mcwdt.h **** #if defined(__cplusplus)
 138:Generated_Source\PSoC6\pdl\drivers\peripheral\mcwdt/cy_mcwdt.h **** extern "C" {
 139:Generated_Source\PSoC6\pdl\drivers\peripheral\mcwdt/cy_mcwdt.h **** #endif
 140:Generated_Source\PSoC6\pdl\drivers\peripheral\mcwdt/cy_mcwdt.h **** 
 141:Generated_Source\PSoC6\pdl\drivers\peripheral\mcwdt/cy_mcwdt.h **** #include <stdbool.h>
 142:Generated_Source\PSoC6\pdl\drivers\peripheral\mcwdt/cy_mcwdt.h **** #include <stddef.h>
 143:Generated_Source\PSoC6\pdl\drivers\peripheral\mcwdt/cy_mcwdt.h **** #include "cy_device_headers.h"
 144:Generated_Source\PSoC6\pdl\drivers\peripheral\mcwdt/cy_mcwdt.h **** #include "cy_device.h"
 145:Generated_Source\PSoC6\pdl\drivers\peripheral\mcwdt/cy_mcwdt.h **** #include "cy_syslib.h"
 146:Generated_Source\PSoC6\pdl\drivers\peripheral\mcwdt/cy_mcwdt.h **** 
 147:Generated_Source\PSoC6\pdl\drivers\peripheral\mcwdt/cy_mcwdt.h **** #ifdef CY_IP_MXS40SRSS_MCWDT
 148:Generated_Source\PSoC6\pdl\drivers\peripheral\mcwdt/cy_mcwdt.h **** 
 149:Generated_Source\PSoC6\pdl\drivers\peripheral\mcwdt/cy_mcwdt.h **** /**
 150:Generated_Source\PSoC6\pdl\drivers\peripheral\mcwdt/cy_mcwdt.h **** * \addtogroup group_mcwdt_data_structures
 151:Generated_Source\PSoC6\pdl\drivers\peripheral\mcwdt/cy_mcwdt.h **** * \{
 152:Generated_Source\PSoC6\pdl\drivers\peripheral\mcwdt/cy_mcwdt.h **** */
 153:Generated_Source\PSoC6\pdl\drivers\peripheral\mcwdt/cy_mcwdt.h **** 
 154:Generated_Source\PSoC6\pdl\drivers\peripheral\mcwdt/cy_mcwdt.h **** /** The MCWDT component configuration structure. */
 155:Generated_Source\PSoC6\pdl\drivers\peripheral\mcwdt/cy_mcwdt.h **** typedef struct
ARM GAS  C:\Users\hkmnt\AppData\Local\Temp\cc5kZCpV.s 			page 10


 156:Generated_Source\PSoC6\pdl\drivers\peripheral\mcwdt/cy_mcwdt.h **** {
 157:Generated_Source\PSoC6\pdl\drivers\peripheral\mcwdt/cy_mcwdt.h ****     uint16_t c0Match;        /**< The sub-counter#0 match comparison value, for interrupt or watchd
 158:Generated_Source\PSoC6\pdl\drivers\peripheral\mcwdt/cy_mcwdt.h ****                                   Range: 0 - 65535 for c0ClearOnMatch = 0 and 1 - 65535 for 
 159:Generated_Source\PSoC6\pdl\drivers\peripheral\mcwdt/cy_mcwdt.h ****                                   c0ClearOnMatch = 1. */
 160:Generated_Source\PSoC6\pdl\drivers\peripheral\mcwdt/cy_mcwdt.h ****     uint16_t c1Match;        /**< The sub-counter#1 match comparison value, for interrupt or watchd
 161:Generated_Source\PSoC6\pdl\drivers\peripheral\mcwdt/cy_mcwdt.h ****                                   Range: 0 - 65535 for c1ClearOnMatch = 0 and 1 - 65535 for 
 162:Generated_Source\PSoC6\pdl\drivers\peripheral\mcwdt/cy_mcwdt.h ****                                   c1ClearOnMatch = 1. */
 163:Generated_Source\PSoC6\pdl\drivers\peripheral\mcwdt/cy_mcwdt.h ****     uint8_t  c0Mode;         /**< The sub-counter#0 mode. It can have the following values: \ref CY
 164:Generated_Source\PSoC6\pdl\drivers\peripheral\mcwdt/cy_mcwdt.h ****                                   \ref CY_MCWDT_MODE_INT, \ref CY_MCWDT_MODE_RESET and \ref CY_MCWD
 165:Generated_Source\PSoC6\pdl\drivers\peripheral\mcwdt/cy_mcwdt.h ****     uint8_t  c1Mode;         /**< The sub-counter#1 mode.  It can have the following values: \ref C
 166:Generated_Source\PSoC6\pdl\drivers\peripheral\mcwdt/cy_mcwdt.h ****                                   \ref CY_MCWDT_MODE_INT, \ref CY_MCWDT_MODE_RESET and \ref CY_MCWD
 167:Generated_Source\PSoC6\pdl\drivers\peripheral\mcwdt/cy_mcwdt.h ****     uint8_t  c2ToggleBit;    /**< The sub-counter#2 Period / Toggle Bit value. 
 168:Generated_Source\PSoC6\pdl\drivers\peripheral\mcwdt/cy_mcwdt.h ****                                   Range: 0 - 31. */
 169:Generated_Source\PSoC6\pdl\drivers\peripheral\mcwdt/cy_mcwdt.h ****     uint8_t  c2Mode;         /**< The sub-counter#2 mode. It can have the following values: \ref CY
 170:Generated_Source\PSoC6\pdl\drivers\peripheral\mcwdt/cy_mcwdt.h ****                                   and \ref CY_MCWDT_MODE_INT. */
 171:Generated_Source\PSoC6\pdl\drivers\peripheral\mcwdt/cy_mcwdt.h ****     bool     c0ClearOnMatch; /**< The sub-counter#0 Clear On Match parameter enabled/disabled. */
 172:Generated_Source\PSoC6\pdl\drivers\peripheral\mcwdt/cy_mcwdt.h ****     bool     c1ClearOnMatch; /**< The sub-counter#1 Clear On Match parameter enabled/disabled. */
 173:Generated_Source\PSoC6\pdl\drivers\peripheral\mcwdt/cy_mcwdt.h ****     bool     c0c1Cascade;    /**< The sub-counter#1 is clocked by LFCLK or from sub-counter#0 casca
 174:Generated_Source\PSoC6\pdl\drivers\peripheral\mcwdt/cy_mcwdt.h ****     bool     c1c2Cascade;    /**< The sub-counter#2 is clocked by LFCLK or from sub-counter#1 casca
 175:Generated_Source\PSoC6\pdl\drivers\peripheral\mcwdt/cy_mcwdt.h **** } cy_stc_mcwdt_config_t;
 176:Generated_Source\PSoC6\pdl\drivers\peripheral\mcwdt/cy_mcwdt.h **** 
 177:Generated_Source\PSoC6\pdl\drivers\peripheral\mcwdt/cy_mcwdt.h **** /** \} group_mcwdt_data_structures */
 178:Generated_Source\PSoC6\pdl\drivers\peripheral\mcwdt/cy_mcwdt.h **** 
 179:Generated_Source\PSoC6\pdl\drivers\peripheral\mcwdt/cy_mcwdt.h **** /**
 180:Generated_Source\PSoC6\pdl\drivers\peripheral\mcwdt/cy_mcwdt.h **** * \addtogroup group_mcwdt_macros
 181:Generated_Source\PSoC6\pdl\drivers\peripheral\mcwdt/cy_mcwdt.h **** * \{
 182:Generated_Source\PSoC6\pdl\drivers\peripheral\mcwdt/cy_mcwdt.h **** */
 183:Generated_Source\PSoC6\pdl\drivers\peripheral\mcwdt/cy_mcwdt.h **** 
 184:Generated_Source\PSoC6\pdl\drivers\peripheral\mcwdt/cy_mcwdt.h **** /** Driver major version */
 185:Generated_Source\PSoC6\pdl\drivers\peripheral\mcwdt/cy_mcwdt.h **** #define CY_MCWDT_DRV_VERSION_MAJOR       1
 186:Generated_Source\PSoC6\pdl\drivers\peripheral\mcwdt/cy_mcwdt.h **** 
 187:Generated_Source\PSoC6\pdl\drivers\peripheral\mcwdt/cy_mcwdt.h **** /** Driver minor version */
 188:Generated_Source\PSoC6\pdl\drivers\peripheral\mcwdt/cy_mcwdt.h **** #define CY_MCWDT_DRV_VERSION_MINOR       20
 189:Generated_Source\PSoC6\pdl\drivers\peripheral\mcwdt/cy_mcwdt.h **** 
 190:Generated_Source\PSoC6\pdl\drivers\peripheral\mcwdt/cy_mcwdt.h **** /** \cond INTERNAL_MACROS */
 191:Generated_Source\PSoC6\pdl\drivers\peripheral\mcwdt/cy_mcwdt.h **** 
 192:Generated_Source\PSoC6\pdl\drivers\peripheral\mcwdt/cy_mcwdt.h **** /***************************************
 193:Generated_Source\PSoC6\pdl\drivers\peripheral\mcwdt/cy_mcwdt.h **** *        Registers Constants
 194:Generated_Source\PSoC6\pdl\drivers\peripheral\mcwdt/cy_mcwdt.h **** ***************************************/
 195:Generated_Source\PSoC6\pdl\drivers\peripheral\mcwdt/cy_mcwdt.h **** 
 196:Generated_Source\PSoC6\pdl\drivers\peripheral\mcwdt/cy_mcwdt.h **** #define CY_MCWDT_LOCK_CLR0      (1u)
 197:Generated_Source\PSoC6\pdl\drivers\peripheral\mcwdt/cy_mcwdt.h **** #define CY_MCWDT_LOCK_CLR1      (2u)
 198:Generated_Source\PSoC6\pdl\drivers\peripheral\mcwdt/cy_mcwdt.h **** #define CY_MCWDT_LOCK_SET01     (3u)
 199:Generated_Source\PSoC6\pdl\drivers\peripheral\mcwdt/cy_mcwdt.h **** 
 200:Generated_Source\PSoC6\pdl\drivers\peripheral\mcwdt/cy_mcwdt.h **** #define CY_MCWDT_BYTE_SHIFT     (8u)
 201:Generated_Source\PSoC6\pdl\drivers\peripheral\mcwdt/cy_mcwdt.h **** #define CY_MCWDT_C0C1_MODE_MASK (3u)
 202:Generated_Source\PSoC6\pdl\drivers\peripheral\mcwdt/cy_mcwdt.h **** #define CY_MCWDT_C2_MODE_MASK   (1u)
 203:Generated_Source\PSoC6\pdl\drivers\peripheral\mcwdt/cy_mcwdt.h **** 
 204:Generated_Source\PSoC6\pdl\drivers\peripheral\mcwdt/cy_mcwdt.h **** 
 205:Generated_Source\PSoC6\pdl\drivers\peripheral\mcwdt/cy_mcwdt.h **** /***************************************
 206:Generated_Source\PSoC6\pdl\drivers\peripheral\mcwdt/cy_mcwdt.h **** *            API Constants
 207:Generated_Source\PSoC6\pdl\drivers\peripheral\mcwdt/cy_mcwdt.h **** ***************************************/
 208:Generated_Source\PSoC6\pdl\drivers\peripheral\mcwdt/cy_mcwdt.h **** 
 209:Generated_Source\PSoC6\pdl\drivers\peripheral\mcwdt/cy_mcwdt.h **** #define CY_MCWDT_ALL_WDT_ENABLE_Msk (MCWDT_STRUCT_MCWDT_CTL_WDT_ENABLE0_Msk | MCWDT_STRUCT_MCWDT_CT
 210:Generated_Source\PSoC6\pdl\drivers\peripheral\mcwdt/cy_mcwdt.h ****                                   MCWDT_STRUCT_MCWDT_CTL_WDT_ENABLE2_Msk)
 211:Generated_Source\PSoC6\pdl\drivers\peripheral\mcwdt/cy_mcwdt.h ****                                   
 212:Generated_Source\PSoC6\pdl\drivers\peripheral\mcwdt/cy_mcwdt.h **** #define CY_MCWDT_CTR0_Pos (0u)
ARM GAS  C:\Users\hkmnt\AppData\Local\Temp\cc5kZCpV.s 			page 11


 213:Generated_Source\PSoC6\pdl\drivers\peripheral\mcwdt/cy_mcwdt.h **** #define CY_MCWDT_CTR1_Pos (1u)
 214:Generated_Source\PSoC6\pdl\drivers\peripheral\mcwdt/cy_mcwdt.h **** #define CY_MCWDT_CTR2_Pos (2u)
 215:Generated_Source\PSoC6\pdl\drivers\peripheral\mcwdt/cy_mcwdt.h **** #define CY_MCWDT_CTR_Pos  (0UL)
 216:Generated_Source\PSoC6\pdl\drivers\peripheral\mcwdt/cy_mcwdt.h **** 
 217:Generated_Source\PSoC6\pdl\drivers\peripheral\mcwdt/cy_mcwdt.h **** /** \endcond */
 218:Generated_Source\PSoC6\pdl\drivers\peripheral\mcwdt/cy_mcwdt.h **** 
 219:Generated_Source\PSoC6\pdl\drivers\peripheral\mcwdt/cy_mcwdt.h **** #define CY_MCWDT_ID       CY_PDL_DRV_ID(0x35u)                      /**< MCWDT PDL ID */
 220:Generated_Source\PSoC6\pdl\drivers\peripheral\mcwdt/cy_mcwdt.h **** 
 221:Generated_Source\PSoC6\pdl\drivers\peripheral\mcwdt/cy_mcwdt.h **** #define CY_MCWDT_CTR0     (1UL << CY_MCWDT_CTR0_Pos)                /**< The sub-counter#0 mask. Th
 222:Generated_Source\PSoC6\pdl\drivers\peripheral\mcwdt/cy_mcwdt.h ****                                                                    that handle multiple counters, i
 223:Generated_Source\PSoC6\pdl\drivers\peripheral\mcwdt/cy_mcwdt.h ****                                                                    Cy_MCWDT_Disable(), Cy_MCWDT_Cle
 224:Generated_Source\PSoC6\pdl\drivers\peripheral\mcwdt/cy_mcwdt.h **** #define CY_MCWDT_CTR1     (1UL << CY_MCWDT_CTR1_Pos)                /**< The sub-counter#1 mask. Th
 225:Generated_Source\PSoC6\pdl\drivers\peripheral\mcwdt/cy_mcwdt.h ****                                                                    that handle multiple counters, i
 226:Generated_Source\PSoC6\pdl\drivers\peripheral\mcwdt/cy_mcwdt.h ****                                                                    Cy_MCWDT_Disable(), Cy_MCWDT_Cle
 227:Generated_Source\PSoC6\pdl\drivers\peripheral\mcwdt/cy_mcwdt.h **** #define CY_MCWDT_CTR2     (1UL << CY_MCWDT_CTR2_Pos)                /**< The sub-counter#2 mask. Th
 228:Generated_Source\PSoC6\pdl\drivers\peripheral\mcwdt/cy_mcwdt.h ****                                                                    that handle multiple counters, i
 229:Generated_Source\PSoC6\pdl\drivers\peripheral\mcwdt/cy_mcwdt.h ****                                                                    Cy_MCWDT_Disable(), Cy_MCWDT_Cle
 230:Generated_Source\PSoC6\pdl\drivers\peripheral\mcwdt/cy_mcwdt.h **** #define CY_MCWDT_CTR_Msk  (CY_MCWDT_CTR0 | CY_MCWDT_CTR1 | CY_MCWDT_CTR2) /**< The mask for all sub
 231:Generated_Source\PSoC6\pdl\drivers\peripheral\mcwdt/cy_mcwdt.h ****                                                                    that handle multiple counters, i
 232:Generated_Source\PSoC6\pdl\drivers\peripheral\mcwdt/cy_mcwdt.h ****                                                                    Cy_MCWDT_Disable(), Cy_MCWDT_Cle
 233:Generated_Source\PSoC6\pdl\drivers\peripheral\mcwdt/cy_mcwdt.h **** 
 234:Generated_Source\PSoC6\pdl\drivers\peripheral\mcwdt/cy_mcwdt.h **** /** \} group_mcwdt_macros */
 235:Generated_Source\PSoC6\pdl\drivers\peripheral\mcwdt/cy_mcwdt.h **** 
 236:Generated_Source\PSoC6\pdl\drivers\peripheral\mcwdt/cy_mcwdt.h **** 
 237:Generated_Source\PSoC6\pdl\drivers\peripheral\mcwdt/cy_mcwdt.h **** /**
 238:Generated_Source\PSoC6\pdl\drivers\peripheral\mcwdt/cy_mcwdt.h **** * \addtogroup group_mcwdt_enums
 239:Generated_Source\PSoC6\pdl\drivers\peripheral\mcwdt/cy_mcwdt.h **** * \{
 240:Generated_Source\PSoC6\pdl\drivers\peripheral\mcwdt/cy_mcwdt.h **** */
 241:Generated_Source\PSoC6\pdl\drivers\peripheral\mcwdt/cy_mcwdt.h **** 
 242:Generated_Source\PSoC6\pdl\drivers\peripheral\mcwdt/cy_mcwdt.h **** /** The mcwdt sub-counter identifiers. */
 243:Generated_Source\PSoC6\pdl\drivers\peripheral\mcwdt/cy_mcwdt.h **** typedef enum
 244:Generated_Source\PSoC6\pdl\drivers\peripheral\mcwdt/cy_mcwdt.h **** {
 245:Generated_Source\PSoC6\pdl\drivers\peripheral\mcwdt/cy_mcwdt.h ****     CY_MCWDT_COUNTER0,  /**< Sub-counter#0 identifier. */
 246:Generated_Source\PSoC6\pdl\drivers\peripheral\mcwdt/cy_mcwdt.h ****     CY_MCWDT_COUNTER1,  /**< Sub-counter#1 identifier. */
 247:Generated_Source\PSoC6\pdl\drivers\peripheral\mcwdt/cy_mcwdt.h ****     CY_MCWDT_COUNTER2   /**< Sub-counter#2 identifier. */
 248:Generated_Source\PSoC6\pdl\drivers\peripheral\mcwdt/cy_mcwdt.h **** } cy_en_mcwdtctr_t;
 249:Generated_Source\PSoC6\pdl\drivers\peripheral\mcwdt/cy_mcwdt.h **** 
 250:Generated_Source\PSoC6\pdl\drivers\peripheral\mcwdt/cy_mcwdt.h **** /** The mcwdt modes. */
 251:Generated_Source\PSoC6\pdl\drivers\peripheral\mcwdt/cy_mcwdt.h **** typedef enum
 252:Generated_Source\PSoC6\pdl\drivers\peripheral\mcwdt/cy_mcwdt.h **** {
 253:Generated_Source\PSoC6\pdl\drivers\peripheral\mcwdt/cy_mcwdt.h ****     CY_MCWDT_MODE_NONE,      /**< The No action mode. It is used for Set/GetMode functions. */
 254:Generated_Source\PSoC6\pdl\drivers\peripheral\mcwdt/cy_mcwdt.h ****     CY_MCWDT_MODE_INT,       /**< The Interrupt mode. It is used for Set/GetMode functions. */
 255:Generated_Source\PSoC6\pdl\drivers\peripheral\mcwdt/cy_mcwdt.h ****     CY_MCWDT_MODE_RESET,     /**< The Reset mode. It is used for Set/GetMode functions. */
 256:Generated_Source\PSoC6\pdl\drivers\peripheral\mcwdt/cy_mcwdt.h ****     CY_MCWDT_MODE_INT_RESET  /**< The Three interrupts then watchdog reset mode. It is used for 
 257:Generated_Source\PSoC6\pdl\drivers\peripheral\mcwdt/cy_mcwdt.h ****                                Set/GetMode functions. */
 258:Generated_Source\PSoC6\pdl\drivers\peripheral\mcwdt/cy_mcwdt.h **** } cy_en_mcwdtmode_t;
 259:Generated_Source\PSoC6\pdl\drivers\peripheral\mcwdt/cy_mcwdt.h **** 
 260:Generated_Source\PSoC6\pdl\drivers\peripheral\mcwdt/cy_mcwdt.h **** /** The mcwdt cascading. */
 261:Generated_Source\PSoC6\pdl\drivers\peripheral\mcwdt/cy_mcwdt.h **** typedef enum
 262:Generated_Source\PSoC6\pdl\drivers\peripheral\mcwdt/cy_mcwdt.h **** {
 263:Generated_Source\PSoC6\pdl\drivers\peripheral\mcwdt/cy_mcwdt.h ****     CY_MCWDT_CASCADE_NONE,  /**< The cascading is disabled. It is used for Set/GetCascade functions
 264:Generated_Source\PSoC6\pdl\drivers\peripheral\mcwdt/cy_mcwdt.h ****     CY_MCWDT_CASCADE_C0C1,  /**< The sub-counter#1 is clocked by LFCLK or from sub-counter#0 cascad
 265:Generated_Source\PSoC6\pdl\drivers\peripheral\mcwdt/cy_mcwdt.h ****                               It is used for Set/GetCascade functions. */
 266:Generated_Source\PSoC6\pdl\drivers\peripheral\mcwdt/cy_mcwdt.h ****     CY_MCWDT_CASCADE_C1C2,  /**< The sub-counter#2 is clocked by LFCLK or from sub-counter#1 cascad
 267:Generated_Source\PSoC6\pdl\drivers\peripheral\mcwdt/cy_mcwdt.h ****                               It is used for Set/GetCascade functions. */
 268:Generated_Source\PSoC6\pdl\drivers\peripheral\mcwdt/cy_mcwdt.h ****     CY_MCWDT_CASCADE_BOTH   /**< The sub-counter#1 is clocked by LFCLK or from sub-counter#0 cascad
 269:Generated_Source\PSoC6\pdl\drivers\peripheral\mcwdt/cy_mcwdt.h ****                               and the sub-counter#2 is clocked by LFCLK or from sub-counter#1 casca
ARM GAS  C:\Users\hkmnt\AppData\Local\Temp\cc5kZCpV.s 			page 12


 270:Generated_Source\PSoC6\pdl\drivers\peripheral\mcwdt/cy_mcwdt.h ****                               It is used for Set/GetCascade functions. */
 271:Generated_Source\PSoC6\pdl\drivers\peripheral\mcwdt/cy_mcwdt.h **** } cy_en_mcwdtcascade_t;
 272:Generated_Source\PSoC6\pdl\drivers\peripheral\mcwdt/cy_mcwdt.h **** 
 273:Generated_Source\PSoC6\pdl\drivers\peripheral\mcwdt/cy_mcwdt.h **** /** The MCWDT error codes. */
 274:Generated_Source\PSoC6\pdl\drivers\peripheral\mcwdt/cy_mcwdt.h **** typedef enum 
 275:Generated_Source\PSoC6\pdl\drivers\peripheral\mcwdt/cy_mcwdt.h **** {
 276:Generated_Source\PSoC6\pdl\drivers\peripheral\mcwdt/cy_mcwdt.h ****     CY_MCWDT_SUCCESS = 0x00u,                                            /**< Successful */
 277:Generated_Source\PSoC6\pdl\drivers\peripheral\mcwdt/cy_mcwdt.h ****     CY_MCWDT_BAD_PARAM = CY_MCWDT_ID | CY_PDL_STATUS_ERROR | 0x01u,     /**< One or more invalid pa
 278:Generated_Source\PSoC6\pdl\drivers\peripheral\mcwdt/cy_mcwdt.h **** } cy_en_mcwdt_status_t;
 279:Generated_Source\PSoC6\pdl\drivers\peripheral\mcwdt/cy_mcwdt.h **** 
 280:Generated_Source\PSoC6\pdl\drivers\peripheral\mcwdt/cy_mcwdt.h **** /** \} group_mcwdt_enums */
 281:Generated_Source\PSoC6\pdl\drivers\peripheral\mcwdt/cy_mcwdt.h **** 
 282:Generated_Source\PSoC6\pdl\drivers\peripheral\mcwdt/cy_mcwdt.h **** 
 283:Generated_Source\PSoC6\pdl\drivers\peripheral\mcwdt/cy_mcwdt.h **** /** \cond PARAM_CHECK_MACROS */
 284:Generated_Source\PSoC6\pdl\drivers\peripheral\mcwdt/cy_mcwdt.h **** 
 285:Generated_Source\PSoC6\pdl\drivers\peripheral\mcwdt/cy_mcwdt.h **** /** Parameter check macros */ 
 286:Generated_Source\PSoC6\pdl\drivers\peripheral\mcwdt/cy_mcwdt.h **** #define CY_MCWDT_IS_CNTS_MASK_VALID(counters)  (0U == ((counters) & (uint32_t)~CY_MCWDT_CTR_Msk)) 
 287:Generated_Source\PSoC6\pdl\drivers\peripheral\mcwdt/cy_mcwdt.h ****                                                
 288:Generated_Source\PSoC6\pdl\drivers\peripheral\mcwdt/cy_mcwdt.h **** #define CY_MCWDT_IS_CNT_NUM_VALID(counter)    ((CY_MCWDT_COUNTER0 == (counter)) || \
 289:Generated_Source\PSoC6\pdl\drivers\peripheral\mcwdt/cy_mcwdt.h ****                                                (CY_MCWDT_COUNTER1 == (counter)) || \
 290:Generated_Source\PSoC6\pdl\drivers\peripheral\mcwdt/cy_mcwdt.h ****                                                (CY_MCWDT_COUNTER2 == (counter)))
 291:Generated_Source\PSoC6\pdl\drivers\peripheral\mcwdt/cy_mcwdt.h **** 
 292:Generated_Source\PSoC6\pdl\drivers\peripheral\mcwdt/cy_mcwdt.h **** #define CY_MCWDT_IS_MODE_VALID(mode)          ((CY_MCWDT_MODE_NONE == (mode)) || \
 293:Generated_Source\PSoC6\pdl\drivers\peripheral\mcwdt/cy_mcwdt.h ****                                                (CY_MCWDT_MODE_INT == (mode)) || \
 294:Generated_Source\PSoC6\pdl\drivers\peripheral\mcwdt/cy_mcwdt.h ****                                                (CY_MCWDT_MODE_RESET == (mode)) || \
 295:Generated_Source\PSoC6\pdl\drivers\peripheral\mcwdt/cy_mcwdt.h ****                                                (CY_MCWDT_MODE_INT_RESET == (mode)))
 296:Generated_Source\PSoC6\pdl\drivers\peripheral\mcwdt/cy_mcwdt.h **** 
 297:Generated_Source\PSoC6\pdl\drivers\peripheral\mcwdt/cy_mcwdt.h **** #define CY_MCWDT_IS_ENABLE_VALID(enable)      (1UL >= (enable))
 298:Generated_Source\PSoC6\pdl\drivers\peripheral\mcwdt/cy_mcwdt.h **** 
 299:Generated_Source\PSoC6\pdl\drivers\peripheral\mcwdt/cy_mcwdt.h **** 
 300:Generated_Source\PSoC6\pdl\drivers\peripheral\mcwdt/cy_mcwdt.h **** #define CY_MCWDT_IS_CASCADE_VALID(cascade)    ((CY_MCWDT_CASCADE_NONE == (cascade)) || \
 301:Generated_Source\PSoC6\pdl\drivers\peripheral\mcwdt/cy_mcwdt.h ****                                                (CY_MCWDT_CASCADE_C0C1 == (cascade)) || \
 302:Generated_Source\PSoC6\pdl\drivers\peripheral\mcwdt/cy_mcwdt.h ****                                                (CY_MCWDT_CASCADE_C1C2 == (cascade)) || \
 303:Generated_Source\PSoC6\pdl\drivers\peripheral\mcwdt/cy_mcwdt.h ****                                                (CY_MCWDT_CASCADE_BOTH == (cascade)))
 304:Generated_Source\PSoC6\pdl\drivers\peripheral\mcwdt/cy_mcwdt.h ****                                                
 305:Generated_Source\PSoC6\pdl\drivers\peripheral\mcwdt/cy_mcwdt.h **** #define CY_MCWDT_IS_MATCH_VALID(clearOnMatch, match)  ((clearOnMatch) ? (1UL <= (match)) : true)
 306:Generated_Source\PSoC6\pdl\drivers\peripheral\mcwdt/cy_mcwdt.h **** 
 307:Generated_Source\PSoC6\pdl\drivers\peripheral\mcwdt/cy_mcwdt.h **** #define CY_MCWDT_IS_BIT_VALID(bit)            (31UL >= (bit))                                      
 308:Generated_Source\PSoC6\pdl\drivers\peripheral\mcwdt/cy_mcwdt.h **** 
 309:Generated_Source\PSoC6\pdl\drivers\peripheral\mcwdt/cy_mcwdt.h ****                                           
 310:Generated_Source\PSoC6\pdl\drivers\peripheral\mcwdt/cy_mcwdt.h **** /** \endcond */
 311:Generated_Source\PSoC6\pdl\drivers\peripheral\mcwdt/cy_mcwdt.h **** 
 312:Generated_Source\PSoC6\pdl\drivers\peripheral\mcwdt/cy_mcwdt.h **** 
 313:Generated_Source\PSoC6\pdl\drivers\peripheral\mcwdt/cy_mcwdt.h **** /*******************************************************************************
 314:Generated_Source\PSoC6\pdl\drivers\peripheral\mcwdt/cy_mcwdt.h **** *        Function Prototypes
 315:Generated_Source\PSoC6\pdl\drivers\peripheral\mcwdt/cy_mcwdt.h **** *******************************************************************************/
 316:Generated_Source\PSoC6\pdl\drivers\peripheral\mcwdt/cy_mcwdt.h **** 
 317:Generated_Source\PSoC6\pdl\drivers\peripheral\mcwdt/cy_mcwdt.h **** /**
 318:Generated_Source\PSoC6\pdl\drivers\peripheral\mcwdt/cy_mcwdt.h **** * \addtogroup group_mcwdt_functions
 319:Generated_Source\PSoC6\pdl\drivers\peripheral\mcwdt/cy_mcwdt.h **** * \{
 320:Generated_Source\PSoC6\pdl\drivers\peripheral\mcwdt/cy_mcwdt.h **** */
 321:Generated_Source\PSoC6\pdl\drivers\peripheral\mcwdt/cy_mcwdt.h **** cy_en_mcwdt_status_t     Cy_MCWDT_Init(MCWDT_STRUCT_Type *base, cy_stc_mcwdt_config_t const *config
 322:Generated_Source\PSoC6\pdl\drivers\peripheral\mcwdt/cy_mcwdt.h ****                 void     Cy_MCWDT_DeInit(MCWDT_STRUCT_Type *base);
 323:Generated_Source\PSoC6\pdl\drivers\peripheral\mcwdt/cy_mcwdt.h **** __STATIC_INLINE void     Cy_MCWDT_Enable(MCWDT_STRUCT_Type *base, uint32_t counters, uint16_t waitU
 324:Generated_Source\PSoC6\pdl\drivers\peripheral\mcwdt/cy_mcwdt.h **** __STATIC_INLINE void     Cy_MCWDT_Disable(MCWDT_STRUCT_Type *base, uint32_t counters, uint16_t wait
 325:Generated_Source\PSoC6\pdl\drivers\peripheral\mcwdt/cy_mcwdt.h **** __STATIC_INLINE uint32_t Cy_MCWDT_GetEnabledStatus(MCWDT_STRUCT_Type const *base, cy_en_mcwdtctr_t 
 326:Generated_Source\PSoC6\pdl\drivers\peripheral\mcwdt/cy_mcwdt.h **** __STATIC_INLINE void     Cy_MCWDT_Lock(MCWDT_STRUCT_Type *base);
ARM GAS  C:\Users\hkmnt\AppData\Local\Temp\cc5kZCpV.s 			page 13


 327:Generated_Source\PSoC6\pdl\drivers\peripheral\mcwdt/cy_mcwdt.h **** __STATIC_INLINE void     Cy_MCWDT_Unlock(MCWDT_STRUCT_Type *base);
 328:Generated_Source\PSoC6\pdl\drivers\peripheral\mcwdt/cy_mcwdt.h **** __STATIC_INLINE uint32_t Cy_MCWDT_GetLockedStatus(MCWDT_STRUCT_Type const *base);
 329:Generated_Source\PSoC6\pdl\drivers\peripheral\mcwdt/cy_mcwdt.h **** __STATIC_INLINE void     Cy_MCWDT_SetMode(MCWDT_STRUCT_Type *base, cy_en_mcwdtctr_t counter, cy_en_
 330:Generated_Source\PSoC6\pdl\drivers\peripheral\mcwdt/cy_mcwdt.h **** __STATIC_INLINE cy_en_mcwdtmode_t Cy_MCWDT_GetMode(MCWDT_STRUCT_Type const *base, cy_en_mcwdtctr_t 
 331:Generated_Source\PSoC6\pdl\drivers\peripheral\mcwdt/cy_mcwdt.h **** __STATIC_INLINE void     Cy_MCWDT_SetClearOnMatch(MCWDT_STRUCT_Type *base, cy_en_mcwdtctr_t counter
 332:Generated_Source\PSoC6\pdl\drivers\peripheral\mcwdt/cy_mcwdt.h **** __STATIC_INLINE uint32_t Cy_MCWDT_GetClearOnMatch(MCWDT_STRUCT_Type const *base, cy_en_mcwdtctr_t c
 333:Generated_Source\PSoC6\pdl\drivers\peripheral\mcwdt/cy_mcwdt.h **** __STATIC_INLINE void     Cy_MCWDT_SetCascade(MCWDT_STRUCT_Type *base, cy_en_mcwdtcascade_t cascade)
 334:Generated_Source\PSoC6\pdl\drivers\peripheral\mcwdt/cy_mcwdt.h **** __STATIC_INLINE cy_en_mcwdtcascade_t Cy_MCWDT_GetCascade(MCWDT_STRUCT_Type const *base);
 335:Generated_Source\PSoC6\pdl\drivers\peripheral\mcwdt/cy_mcwdt.h **** __STATIC_INLINE void     Cy_MCWDT_SetMatch(MCWDT_STRUCT_Type *base, cy_en_mcwdtctr_t counter, uint3
 336:Generated_Source\PSoC6\pdl\drivers\peripheral\mcwdt/cy_mcwdt.h **** __STATIC_INLINE uint32_t Cy_MCWDT_GetMatch(MCWDT_STRUCT_Type const *base, cy_en_mcwdtctr_t counter)
 337:Generated_Source\PSoC6\pdl\drivers\peripheral\mcwdt/cy_mcwdt.h **** __STATIC_INLINE void     Cy_MCWDT_SetToggleBit(MCWDT_STRUCT_Type *base, uint32_t bit);
 338:Generated_Source\PSoC6\pdl\drivers\peripheral\mcwdt/cy_mcwdt.h **** __STATIC_INLINE uint32_t Cy_MCWDT_GetToggleBit(MCWDT_STRUCT_Type const *base);
 339:Generated_Source\PSoC6\pdl\drivers\peripheral\mcwdt/cy_mcwdt.h **** __STATIC_INLINE uint32_t Cy_MCWDT_GetCount(MCWDT_STRUCT_Type const *base, cy_en_mcwdtctr_t counter)
 340:Generated_Source\PSoC6\pdl\drivers\peripheral\mcwdt/cy_mcwdt.h **** __STATIC_INLINE void     Cy_MCWDT_ResetCounters(MCWDT_STRUCT_Type *base, uint32_t counters, uint16_
 341:Generated_Source\PSoC6\pdl\drivers\peripheral\mcwdt/cy_mcwdt.h **** __STATIC_INLINE uint32_t Cy_MCWDT_GetInterruptStatus(MCWDT_STRUCT_Type const *base);
 342:Generated_Source\PSoC6\pdl\drivers\peripheral\mcwdt/cy_mcwdt.h **** __STATIC_INLINE void     Cy_MCWDT_ClearInterrupt(MCWDT_STRUCT_Type *base, uint32_t counters);
 343:Generated_Source\PSoC6\pdl\drivers\peripheral\mcwdt/cy_mcwdt.h **** __STATIC_INLINE void     Cy_MCWDT_SetInterrupt(MCWDT_STRUCT_Type *base, uint32_t counters);
 344:Generated_Source\PSoC6\pdl\drivers\peripheral\mcwdt/cy_mcwdt.h **** __STATIC_INLINE uint32_t Cy_MCWDT_GetInterruptMask(MCWDT_STRUCT_Type const *base);
 345:Generated_Source\PSoC6\pdl\drivers\peripheral\mcwdt/cy_mcwdt.h **** __STATIC_INLINE void     Cy_MCWDT_SetInterruptMask(MCWDT_STRUCT_Type *base, uint32_t counters);
 346:Generated_Source\PSoC6\pdl\drivers\peripheral\mcwdt/cy_mcwdt.h **** __STATIC_INLINE uint32_t Cy_MCWDT_GetInterruptStatusMasked(MCWDT_STRUCT_Type const *base);
 347:Generated_Source\PSoC6\pdl\drivers\peripheral\mcwdt/cy_mcwdt.h **** uint32_t Cy_MCWDT_GetCountCascaded(MCWDT_STRUCT_Type const *base);
 348:Generated_Source\PSoC6\pdl\drivers\peripheral\mcwdt/cy_mcwdt.h **** 
 349:Generated_Source\PSoC6\pdl\drivers\peripheral\mcwdt/cy_mcwdt.h **** 
 350:Generated_Source\PSoC6\pdl\drivers\peripheral\mcwdt/cy_mcwdt.h **** /*******************************************************************************
 351:Generated_Source\PSoC6\pdl\drivers\peripheral\mcwdt/cy_mcwdt.h **** * Function Name: Cy_MCWDT_Enable
 352:Generated_Source\PSoC6\pdl\drivers\peripheral\mcwdt/cy_mcwdt.h **** ****************************************************************************//**
 353:Generated_Source\PSoC6\pdl\drivers\peripheral\mcwdt/cy_mcwdt.h **** *
 354:Generated_Source\PSoC6\pdl\drivers\peripheral\mcwdt/cy_mcwdt.h **** *  Enables all specified counters.
 355:Generated_Source\PSoC6\pdl\drivers\peripheral\mcwdt/cy_mcwdt.h **** *
 356:Generated_Source\PSoC6\pdl\drivers\peripheral\mcwdt/cy_mcwdt.h **** *  \param base
 357:Generated_Source\PSoC6\pdl\drivers\peripheral\mcwdt/cy_mcwdt.h **** *  The base pointer to a structure that describes registers.
 358:Generated_Source\PSoC6\pdl\drivers\peripheral\mcwdt/cy_mcwdt.h **** *
 359:Generated_Source\PSoC6\pdl\drivers\peripheral\mcwdt/cy_mcwdt.h **** *  \param counters
 360:Generated_Source\PSoC6\pdl\drivers\peripheral\mcwdt/cy_mcwdt.h **** *  OR of all counters to enable. See the \ref CY_MCWDT_CTR0, CY_MCWDT_CTR1, and
 361:Generated_Source\PSoC6\pdl\drivers\peripheral\mcwdt/cy_mcwdt.h **** *  CY_MCWDT_CTR2  macros.
 362:Generated_Source\PSoC6\pdl\drivers\peripheral\mcwdt/cy_mcwdt.h **** *
 363:Generated_Source\PSoC6\pdl\drivers\peripheral\mcwdt/cy_mcwdt.h **** *  \param waitUs
 364:Generated_Source\PSoC6\pdl\drivers\peripheral\mcwdt/cy_mcwdt.h **** *  The function waits for some delay in microseconds before returning, 
 365:Generated_Source\PSoC6\pdl\drivers\peripheral\mcwdt/cy_mcwdt.h **** *  because the counter begins counting after two lf_clk cycles pass. 
 366:Generated_Source\PSoC6\pdl\drivers\peripheral\mcwdt/cy_mcwdt.h **** *  The recommended value is 93 us.
 367:Generated_Source\PSoC6\pdl\drivers\peripheral\mcwdt/cy_mcwdt.h **** *  \note
 368:Generated_Source\PSoC6\pdl\drivers\peripheral\mcwdt/cy_mcwdt.h **** *  Setting this parameter to a zero means No wait. In this case, it is
 369:Generated_Source\PSoC6\pdl\drivers\peripheral\mcwdt/cy_mcwdt.h **** *  the user's responsibility to check whether the selected counters were enabled 
 370:Generated_Source\PSoC6\pdl\drivers\peripheral\mcwdt/cy_mcwdt.h **** *  immediately after the function call. This can be done by the 
 371:Generated_Source\PSoC6\pdl\drivers\peripheral\mcwdt/cy_mcwdt.h **** *  Cy_MCWDT_GetEnabledStatus() API.
 372:Generated_Source\PSoC6\pdl\drivers\peripheral\mcwdt/cy_mcwdt.h **** *
 373:Generated_Source\PSoC6\pdl\drivers\peripheral\mcwdt/cy_mcwdt.h **** *******************************************************************************/
 374:Generated_Source\PSoC6\pdl\drivers\peripheral\mcwdt/cy_mcwdt.h **** __STATIC_INLINE void Cy_MCWDT_Enable(MCWDT_STRUCT_Type *base, uint32_t counters, uint16_t waitUs)
 375:Generated_Source\PSoC6\pdl\drivers\peripheral\mcwdt/cy_mcwdt.h **** {
 376:Generated_Source\PSoC6\pdl\drivers\peripheral\mcwdt/cy_mcwdt.h ****     uint32_t enableCounters;
 377:Generated_Source\PSoC6\pdl\drivers\peripheral\mcwdt/cy_mcwdt.h **** 
 378:Generated_Source\PSoC6\pdl\drivers\peripheral\mcwdt/cy_mcwdt.h ****     CY_ASSERT_L2(CY_MCWDT_IS_CNTS_MASK_VALID(counters));
 379:Generated_Source\PSoC6\pdl\drivers\peripheral\mcwdt/cy_mcwdt.h ****     
 380:Generated_Source\PSoC6\pdl\drivers\peripheral\mcwdt/cy_mcwdt.h ****     /* Extract particular counters for enable */
 381:Generated_Source\PSoC6\pdl\drivers\peripheral\mcwdt/cy_mcwdt.h ****     enableCounters = ((0UL != (counters & CY_MCWDT_CTR0)) ? MCWDT_STRUCT_MCWDT_CTL_WDT_ENABLE0_Msk 
 382:Generated_Source\PSoC6\pdl\drivers\peripheral\mcwdt/cy_mcwdt.h ****                      ((0UL != (counters & CY_MCWDT_CTR1)) ? MCWDT_STRUCT_MCWDT_CTL_WDT_ENABLE1_Msk 
 383:Generated_Source\PSoC6\pdl\drivers\peripheral\mcwdt/cy_mcwdt.h ****                      ((0UL != (counters & CY_MCWDT_CTR2)) ? MCWDT_STRUCT_MCWDT_CTL_WDT_ENABLE2_Msk 
ARM GAS  C:\Users\hkmnt\AppData\Local\Temp\cc5kZCpV.s 			page 14


 384:Generated_Source\PSoC6\pdl\drivers\peripheral\mcwdt/cy_mcwdt.h **** 
 385:Generated_Source\PSoC6\pdl\drivers\peripheral\mcwdt/cy_mcwdt.h ****     MCWDT_STRUCT_MCWDT_CTL(base) |= enableCounters;
 386:Generated_Source\PSoC6\pdl\drivers\peripheral\mcwdt/cy_mcwdt.h **** 
 387:Generated_Source\PSoC6\pdl\drivers\peripheral\mcwdt/cy_mcwdt.h ****     Cy_SysLib_DelayUs(waitUs);
 388:Generated_Source\PSoC6\pdl\drivers\peripheral\mcwdt/cy_mcwdt.h **** }
 389:Generated_Source\PSoC6\pdl\drivers\peripheral\mcwdt/cy_mcwdt.h **** 
 390:Generated_Source\PSoC6\pdl\drivers\peripheral\mcwdt/cy_mcwdt.h **** 
 391:Generated_Source\PSoC6\pdl\drivers\peripheral\mcwdt/cy_mcwdt.h **** /*******************************************************************************
 392:Generated_Source\PSoC6\pdl\drivers\peripheral\mcwdt/cy_mcwdt.h **** * Function Name: Cy_MCWDT_Disable
 393:Generated_Source\PSoC6\pdl\drivers\peripheral\mcwdt/cy_mcwdt.h **** ****************************************************************************//**
 394:Generated_Source\PSoC6\pdl\drivers\peripheral\mcwdt/cy_mcwdt.h **** *
 395:Generated_Source\PSoC6\pdl\drivers\peripheral\mcwdt/cy_mcwdt.h **** *  Disables all specified counters.
 396:Generated_Source\PSoC6\pdl\drivers\peripheral\mcwdt/cy_mcwdt.h **** *
 397:Generated_Source\PSoC6\pdl\drivers\peripheral\mcwdt/cy_mcwdt.h **** *  \param base
 398:Generated_Source\PSoC6\pdl\drivers\peripheral\mcwdt/cy_mcwdt.h **** *  The base pointer to a structure describing registers.
 399:Generated_Source\PSoC6\pdl\drivers\peripheral\mcwdt/cy_mcwdt.h **** *
 400:Generated_Source\PSoC6\pdl\drivers\peripheral\mcwdt/cy_mcwdt.h **** *  \param counters
 401:Generated_Source\PSoC6\pdl\drivers\peripheral\mcwdt/cy_mcwdt.h **** *  OR of all counters to disable. See the \ref CY_MCWDT_CTR0, CY_MCWDT_CTR1, and
 402:Generated_Source\PSoC6\pdl\drivers\peripheral\mcwdt/cy_mcwdt.h **** *  CY_MCWDT_CTR2 macros.
 403:Generated_Source\PSoC6\pdl\drivers\peripheral\mcwdt/cy_mcwdt.h **** *
 404:Generated_Source\PSoC6\pdl\drivers\peripheral\mcwdt/cy_mcwdt.h **** *  \param waitUs
 405:Generated_Source\PSoC6\pdl\drivers\peripheral\mcwdt/cy_mcwdt.h **** *  The function waits for some delay in microseconds before returning, 
 406:Generated_Source\PSoC6\pdl\drivers\peripheral\mcwdt/cy_mcwdt.h **** *  because the counter stops counting after two lf_clk cycles pass. 
 407:Generated_Source\PSoC6\pdl\drivers\peripheral\mcwdt/cy_mcwdt.h **** *  The recommended value is 93 us.
 408:Generated_Source\PSoC6\pdl\drivers\peripheral\mcwdt/cy_mcwdt.h **** *  \note
 409:Generated_Source\PSoC6\pdl\drivers\peripheral\mcwdt/cy_mcwdt.h **** *  Setting this parameter to a zero means No wait. In this case, it is 
 410:Generated_Source\PSoC6\pdl\drivers\peripheral\mcwdt/cy_mcwdt.h **** *  the user's responsibility to check whether the selected counters were disabled 
 411:Generated_Source\PSoC6\pdl\drivers\peripheral\mcwdt/cy_mcwdt.h **** *  immediately after the function call. This can be done by the 
 412:Generated_Source\PSoC6\pdl\drivers\peripheral\mcwdt/cy_mcwdt.h **** *  Cy_MCWDT_GetEnabledStatus() API.
 413:Generated_Source\PSoC6\pdl\drivers\peripheral\mcwdt/cy_mcwdt.h **** *
 414:Generated_Source\PSoC6\pdl\drivers\peripheral\mcwdt/cy_mcwdt.h **** *******************************************************************************/
 415:Generated_Source\PSoC6\pdl\drivers\peripheral\mcwdt/cy_mcwdt.h **** __STATIC_INLINE void Cy_MCWDT_Disable(MCWDT_STRUCT_Type *base, uint32_t counters, uint16_t waitUs)
 416:Generated_Source\PSoC6\pdl\drivers\peripheral\mcwdt/cy_mcwdt.h **** {
 417:Generated_Source\PSoC6\pdl\drivers\peripheral\mcwdt/cy_mcwdt.h ****     uint32_t disableCounters;
 418:Generated_Source\PSoC6\pdl\drivers\peripheral\mcwdt/cy_mcwdt.h **** 
 419:Generated_Source\PSoC6\pdl\drivers\peripheral\mcwdt/cy_mcwdt.h ****     CY_ASSERT_L2(CY_MCWDT_IS_CNTS_MASK_VALID(counters));
 420:Generated_Source\PSoC6\pdl\drivers\peripheral\mcwdt/cy_mcwdt.h ****     
 421:Generated_Source\PSoC6\pdl\drivers\peripheral\mcwdt/cy_mcwdt.h ****     /* Extract particular counters for disable */
 422:Generated_Source\PSoC6\pdl\drivers\peripheral\mcwdt/cy_mcwdt.h ****     disableCounters = ((0UL != (counters & CY_MCWDT_CTR0)) ? MCWDT_STRUCT_MCWDT_CTL_WDT_ENABLE0_Msk
 423:Generated_Source\PSoC6\pdl\drivers\peripheral\mcwdt/cy_mcwdt.h ****                       ((0UL != (counters & CY_MCWDT_CTR1)) ? MCWDT_STRUCT_MCWDT_CTL_WDT_ENABLE1_Msk
 424:Generated_Source\PSoC6\pdl\drivers\peripheral\mcwdt/cy_mcwdt.h ****                       ((0UL != (counters & CY_MCWDT_CTR2)) ? MCWDT_STRUCT_MCWDT_CTL_WDT_ENABLE2_Msk
 425:Generated_Source\PSoC6\pdl\drivers\peripheral\mcwdt/cy_mcwdt.h **** 
 426:Generated_Source\PSoC6\pdl\drivers\peripheral\mcwdt/cy_mcwdt.h ****     MCWDT_STRUCT_MCWDT_CTL(base) &= ~disableCounters;
 427:Generated_Source\PSoC6\pdl\drivers\peripheral\mcwdt/cy_mcwdt.h **** 
 428:Generated_Source\PSoC6\pdl\drivers\peripheral\mcwdt/cy_mcwdt.h ****     Cy_SysLib_DelayUs(waitUs);
 429:Generated_Source\PSoC6\pdl\drivers\peripheral\mcwdt/cy_mcwdt.h **** }
 430:Generated_Source\PSoC6\pdl\drivers\peripheral\mcwdt/cy_mcwdt.h **** 
 431:Generated_Source\PSoC6\pdl\drivers\peripheral\mcwdt/cy_mcwdt.h **** 
 432:Generated_Source\PSoC6\pdl\drivers\peripheral\mcwdt/cy_mcwdt.h **** /*******************************************************************************
 433:Generated_Source\PSoC6\pdl\drivers\peripheral\mcwdt/cy_mcwdt.h **** * Function Name: Cy_MCWDT_GetEnabledStatus
 434:Generated_Source\PSoC6\pdl\drivers\peripheral\mcwdt/cy_mcwdt.h **** ****************************************************************************//**
 435:Generated_Source\PSoC6\pdl\drivers\peripheral\mcwdt/cy_mcwdt.h **** *
 436:Generated_Source\PSoC6\pdl\drivers\peripheral\mcwdt/cy_mcwdt.h **** *  Reports the enabled status of the specified counter.
 437:Generated_Source\PSoC6\pdl\drivers\peripheral\mcwdt/cy_mcwdt.h **** *
 438:Generated_Source\PSoC6\pdl\drivers\peripheral\mcwdt/cy_mcwdt.h **** *  \param base
 439:Generated_Source\PSoC6\pdl\drivers\peripheral\mcwdt/cy_mcwdt.h **** *  The base pointer to a structure that describes registers.
 440:Generated_Source\PSoC6\pdl\drivers\peripheral\mcwdt/cy_mcwdt.h **** *
ARM GAS  C:\Users\hkmnt\AppData\Local\Temp\cc5kZCpV.s 			page 15


 441:Generated_Source\PSoC6\pdl\drivers\peripheral\mcwdt/cy_mcwdt.h **** *  \param counter
 442:Generated_Source\PSoC6\pdl\drivers\peripheral\mcwdt/cy_mcwdt.h **** *  The number of the MCWDT counter. The valid range is [0-2].
 443:Generated_Source\PSoC6\pdl\drivers\peripheral\mcwdt/cy_mcwdt.h **** *
 444:Generated_Source\PSoC6\pdl\drivers\peripheral\mcwdt/cy_mcwdt.h **** *  \return
 445:Generated_Source\PSoC6\pdl\drivers\peripheral\mcwdt/cy_mcwdt.h **** *  The status of the MCWDT counter: 0 = disabled, 1 = enabled.
 446:Generated_Source\PSoC6\pdl\drivers\peripheral\mcwdt/cy_mcwdt.h **** *
 447:Generated_Source\PSoC6\pdl\drivers\peripheral\mcwdt/cy_mcwdt.h **** *******************************************************************************/
 448:Generated_Source\PSoC6\pdl\drivers\peripheral\mcwdt/cy_mcwdt.h **** __STATIC_INLINE uint32_t Cy_MCWDT_GetEnabledStatus(MCWDT_STRUCT_Type const *base, cy_en_mcwdtctr_t 
 449:Generated_Source\PSoC6\pdl\drivers\peripheral\mcwdt/cy_mcwdt.h **** {
 450:Generated_Source\PSoC6\pdl\drivers\peripheral\mcwdt/cy_mcwdt.h ****     uint32_t status = 0u;
 451:Generated_Source\PSoC6\pdl\drivers\peripheral\mcwdt/cy_mcwdt.h **** 
 452:Generated_Source\PSoC6\pdl\drivers\peripheral\mcwdt/cy_mcwdt.h ****     CY_ASSERT_L3(CY_MCWDT_IS_CNT_NUM_VALID(counter));
 453:Generated_Source\PSoC6\pdl\drivers\peripheral\mcwdt/cy_mcwdt.h ****     
 454:Generated_Source\PSoC6\pdl\drivers\peripheral\mcwdt/cy_mcwdt.h ****     switch (counter)
 455:Generated_Source\PSoC6\pdl\drivers\peripheral\mcwdt/cy_mcwdt.h ****     {
 456:Generated_Source\PSoC6\pdl\drivers\peripheral\mcwdt/cy_mcwdt.h ****         case CY_MCWDT_COUNTER0:
 457:Generated_Source\PSoC6\pdl\drivers\peripheral\mcwdt/cy_mcwdt.h ****             status = _FLD2VAL(MCWDT_STRUCT_MCWDT_CTL_WDT_ENABLED0, MCWDT_STRUCT_MCWDT_CTL(base));
 458:Generated_Source\PSoC6\pdl\drivers\peripheral\mcwdt/cy_mcwdt.h ****             break;
 459:Generated_Source\PSoC6\pdl\drivers\peripheral\mcwdt/cy_mcwdt.h ****         case CY_MCWDT_COUNTER1:
 460:Generated_Source\PSoC6\pdl\drivers\peripheral\mcwdt/cy_mcwdt.h ****             status = _FLD2VAL(MCWDT_STRUCT_MCWDT_CTL_WDT_ENABLED1, MCWDT_STRUCT_MCWDT_CTL(base));
 461:Generated_Source\PSoC6\pdl\drivers\peripheral\mcwdt/cy_mcwdt.h ****             break;
 462:Generated_Source\PSoC6\pdl\drivers\peripheral\mcwdt/cy_mcwdt.h ****         case CY_MCWDT_COUNTER2:
 463:Generated_Source\PSoC6\pdl\drivers\peripheral\mcwdt/cy_mcwdt.h ****             status = _FLD2VAL(MCWDT_STRUCT_MCWDT_CTL_WDT_ENABLED2, MCWDT_STRUCT_MCWDT_CTL(base));
 464:Generated_Source\PSoC6\pdl\drivers\peripheral\mcwdt/cy_mcwdt.h ****             break;
 465:Generated_Source\PSoC6\pdl\drivers\peripheral\mcwdt/cy_mcwdt.h **** 
 466:Generated_Source\PSoC6\pdl\drivers\peripheral\mcwdt/cy_mcwdt.h ****         default:
 467:Generated_Source\PSoC6\pdl\drivers\peripheral\mcwdt/cy_mcwdt.h ****             CY_ASSERT(0u != 0u);
 468:Generated_Source\PSoC6\pdl\drivers\peripheral\mcwdt/cy_mcwdt.h ****         break;
 469:Generated_Source\PSoC6\pdl\drivers\peripheral\mcwdt/cy_mcwdt.h ****     }
 470:Generated_Source\PSoC6\pdl\drivers\peripheral\mcwdt/cy_mcwdt.h **** 
 471:Generated_Source\PSoC6\pdl\drivers\peripheral\mcwdt/cy_mcwdt.h ****     return (status);
 472:Generated_Source\PSoC6\pdl\drivers\peripheral\mcwdt/cy_mcwdt.h **** }
 473:Generated_Source\PSoC6\pdl\drivers\peripheral\mcwdt/cy_mcwdt.h **** 
 474:Generated_Source\PSoC6\pdl\drivers\peripheral\mcwdt/cy_mcwdt.h **** 
 475:Generated_Source\PSoC6\pdl\drivers\peripheral\mcwdt/cy_mcwdt.h **** /*******************************************************************************
 476:Generated_Source\PSoC6\pdl\drivers\peripheral\mcwdt/cy_mcwdt.h **** * Function Name: Cy_MCWDT_Lock
 477:Generated_Source\PSoC6\pdl\drivers\peripheral\mcwdt/cy_mcwdt.h **** ****************************************************************************//**
 478:Generated_Source\PSoC6\pdl\drivers\peripheral\mcwdt/cy_mcwdt.h **** *
 479:Generated_Source\PSoC6\pdl\drivers\peripheral\mcwdt/cy_mcwdt.h **** *  Locks out configuration changes to all MCWDT registers.
 480:Generated_Source\PSoC6\pdl\drivers\peripheral\mcwdt/cy_mcwdt.h **** *
 481:Generated_Source\PSoC6\pdl\drivers\peripheral\mcwdt/cy_mcwdt.h **** *  \param base
 482:Generated_Source\PSoC6\pdl\drivers\peripheral\mcwdt/cy_mcwdt.h **** *  The base pointer to a structure that describes registers.
 483:Generated_Source\PSoC6\pdl\drivers\peripheral\mcwdt/cy_mcwdt.h **** *
 484:Generated_Source\PSoC6\pdl\drivers\peripheral\mcwdt/cy_mcwdt.h **** *******************************************************************************/
 485:Generated_Source\PSoC6\pdl\drivers\peripheral\mcwdt/cy_mcwdt.h **** __STATIC_INLINE void Cy_MCWDT_Lock(MCWDT_STRUCT_Type *base)
 486:Generated_Source\PSoC6\pdl\drivers\peripheral\mcwdt/cy_mcwdt.h **** {
 487:Generated_Source\PSoC6\pdl\drivers\peripheral\mcwdt/cy_mcwdt.h ****     uint32_t interruptState;
 488:Generated_Source\PSoC6\pdl\drivers\peripheral\mcwdt/cy_mcwdt.h **** 
 489:Generated_Source\PSoC6\pdl\drivers\peripheral\mcwdt/cy_mcwdt.h ****     interruptState = Cy_SysLib_EnterCriticalSection();
 490:Generated_Source\PSoC6\pdl\drivers\peripheral\mcwdt/cy_mcwdt.h **** 
 491:Generated_Source\PSoC6\pdl\drivers\peripheral\mcwdt/cy_mcwdt.h ****     MCWDT_STRUCT_MCWDT_LOCK(base) = _CLR_SET_FLD32U(MCWDT_STRUCT_MCWDT_LOCK(base), MCWDT_STRUCT_MCW
 492:Generated_Source\PSoC6\pdl\drivers\peripheral\mcwdt/cy_mcwdt.h **** 
 493:Generated_Source\PSoC6\pdl\drivers\peripheral\mcwdt/cy_mcwdt.h ****     Cy_SysLib_ExitCriticalSection(interruptState);
 494:Generated_Source\PSoC6\pdl\drivers\peripheral\mcwdt/cy_mcwdt.h **** }
 495:Generated_Source\PSoC6\pdl\drivers\peripheral\mcwdt/cy_mcwdt.h **** 
 496:Generated_Source\PSoC6\pdl\drivers\peripheral\mcwdt/cy_mcwdt.h **** 
 497:Generated_Source\PSoC6\pdl\drivers\peripheral\mcwdt/cy_mcwdt.h **** /*******************************************************************************
ARM GAS  C:\Users\hkmnt\AppData\Local\Temp\cc5kZCpV.s 			page 16


 498:Generated_Source\PSoC6\pdl\drivers\peripheral\mcwdt/cy_mcwdt.h **** * Function Name: Cy_MCWDT_Unlock
 499:Generated_Source\PSoC6\pdl\drivers\peripheral\mcwdt/cy_mcwdt.h **** ****************************************************************************//**
 500:Generated_Source\PSoC6\pdl\drivers\peripheral\mcwdt/cy_mcwdt.h **** *
 501:Generated_Source\PSoC6\pdl\drivers\peripheral\mcwdt/cy_mcwdt.h **** *  Unlocks the MCWDT configuration registers.
 502:Generated_Source\PSoC6\pdl\drivers\peripheral\mcwdt/cy_mcwdt.h **** *
 503:Generated_Source\PSoC6\pdl\drivers\peripheral\mcwdt/cy_mcwdt.h **** *  \param base
 504:Generated_Source\PSoC6\pdl\drivers\peripheral\mcwdt/cy_mcwdt.h **** *  The base pointer to a structure that describes registers.
 505:Generated_Source\PSoC6\pdl\drivers\peripheral\mcwdt/cy_mcwdt.h **** *
 506:Generated_Source\PSoC6\pdl\drivers\peripheral\mcwdt/cy_mcwdt.h **** *******************************************************************************/
 507:Generated_Source\PSoC6\pdl\drivers\peripheral\mcwdt/cy_mcwdt.h **** __STATIC_INLINE void Cy_MCWDT_Unlock(MCWDT_STRUCT_Type *base)
 508:Generated_Source\PSoC6\pdl\drivers\peripheral\mcwdt/cy_mcwdt.h **** {
 509:Generated_Source\PSoC6\pdl\drivers\peripheral\mcwdt/cy_mcwdt.h ****     uint32_t interruptState;
 510:Generated_Source\PSoC6\pdl\drivers\peripheral\mcwdt/cy_mcwdt.h **** 
 511:Generated_Source\PSoC6\pdl\drivers\peripheral\mcwdt/cy_mcwdt.h ****     interruptState = Cy_SysLib_EnterCriticalSection();
 259              		.loc 2 511 0
 260 0004 FFF7FEFF 		bl	Cy_SysLib_EnterCriticalSection
 261              	.LVL19:
 512:Generated_Source\PSoC6\pdl\drivers\peripheral\mcwdt/cy_mcwdt.h **** 
 513:Generated_Source\PSoC6\pdl\drivers\peripheral\mcwdt/cy_mcwdt.h ****     MCWDT_STRUCT_MCWDT_LOCK(base) = _CLR_SET_FLD32U(MCWDT_STRUCT_MCWDT_LOCK(base), MCWDT_STRUCT_MCW
 262              		.loc 2 513 0
 263 0008 A36A     		ldr	r3, [r4, #40]
 264 000a 9B00     		lsls	r3, r3, #2
 265 000c 9B08     		lsrs	r3, r3, #2
 266 000e 8022     		movs	r2, #128
 267 0010 D205     		lsls	r2, r2, #23
 268 0012 1343     		orrs	r3, r2
 269 0014 A362     		str	r3, [r4, #40]
 514:Generated_Source\PSoC6\pdl\drivers\peripheral\mcwdt/cy_mcwdt.h ****     MCWDT_STRUCT_MCWDT_LOCK(base) = _CLR_SET_FLD32U(MCWDT_STRUCT_MCWDT_LOCK(base), MCWDT_STRUCT_MCW
 270              		.loc 2 514 0
 271 0016 A36A     		ldr	r3, [r4, #40]
 272 0018 9B00     		lsls	r3, r3, #2
 273 001a 9B08     		lsrs	r3, r3, #2
 274 001c 8022     		movs	r2, #128
 275 001e 1206     		lsls	r2, r2, #24
 276 0020 1343     		orrs	r3, r2
 277 0022 A362     		str	r3, [r4, #40]
 515:Generated_Source\PSoC6\pdl\drivers\peripheral\mcwdt/cy_mcwdt.h **** 
 516:Generated_Source\PSoC6\pdl\drivers\peripheral\mcwdt/cy_mcwdt.h ****     Cy_SysLib_ExitCriticalSection(interruptState);
 278              		.loc 2 516 0
 279 0024 FFF7FEFF 		bl	Cy_SysLib_ExitCriticalSection
 280              	.LVL20:
 281              	.LBE5:
 282              	.LBE4:
  91:Generated_Source\PSoC6\pdl\drivers\peripheral\mcwdt/cy_mcwdt.c ****     Cy_MCWDT_Unlock(base);
  92:Generated_Source\PSoC6\pdl\drivers\peripheral\mcwdt/cy_mcwdt.c **** 
  93:Generated_Source\PSoC6\pdl\drivers\peripheral\mcwdt/cy_mcwdt.c ****     MCWDT_STRUCT_MCWDT_CNTLOW(base)    = 0UL;
 283              		.loc 1 93 0
 284 0028 0023     		movs	r3, #0
 285 002a 6360     		str	r3, [r4, #4]
  94:Generated_Source\PSoC6\pdl\drivers\peripheral\mcwdt/cy_mcwdt.c ****     MCWDT_STRUCT_MCWDT_CNTHIGH(base)   = 0UL;
 286              		.loc 1 94 0
 287 002c A360     		str	r3, [r4, #8]
  95:Generated_Source\PSoC6\pdl\drivers\peripheral\mcwdt/cy_mcwdt.c ****     MCWDT_STRUCT_MCWDT_MATCH(base)     = 0UL;
 288              		.loc 1 95 0
 289 002e E360     		str	r3, [r4, #12]
  96:Generated_Source\PSoC6\pdl\drivers\peripheral\mcwdt/cy_mcwdt.c ****     MCWDT_STRUCT_MCWDT_CONFIG(base)    = 0UL;
 290              		.loc 1 96 0
ARM GAS  C:\Users\hkmnt\AppData\Local\Temp\cc5kZCpV.s 			page 17


 291 0030 2361     		str	r3, [r4, #16]
  97:Generated_Source\PSoC6\pdl\drivers\peripheral\mcwdt/cy_mcwdt.c ****     MCWDT_STRUCT_MCWDT_CTL(base)       = 0UL;
 292              		.loc 1 97 0
 293 0032 6361     		str	r3, [r4, #20]
  98:Generated_Source\PSoC6\pdl\drivers\peripheral\mcwdt/cy_mcwdt.c ****     MCWDT_STRUCT_MCWDT_INTR(base)      = 0UL;
 294              		.loc 1 98 0
 295 0034 A361     		str	r3, [r4, #24]
  99:Generated_Source\PSoC6\pdl\drivers\peripheral\mcwdt/cy_mcwdt.c ****     MCWDT_STRUCT_MCWDT_INTR_SET(base)  = 0UL;
 296              		.loc 1 99 0
 297 0036 E361     		str	r3, [r4, #28]
 100:Generated_Source\PSoC6\pdl\drivers\peripheral\mcwdt/cy_mcwdt.c ****     MCWDT_STRUCT_MCWDT_INTR_MASK(base) = 0UL;
 298              		.loc 1 100 0
 299 0038 2362     		str	r3, [r4, #32]
 101:Generated_Source\PSoC6\pdl\drivers\peripheral\mcwdt/cy_mcwdt.c **** }
 300              		.loc 1 101 0
 301              		@ sp needed
 302              	.LVL21:
 303 003a 10BD     		pop	{r4, pc}
 304              		.cfi_endproc
 305              	.LFE70:
 306              		.size	Cy_MCWDT_DeInit, .-Cy_MCWDT_DeInit
 307              		.section	.text.Cy_MCWDT_GetCountCascaded,"ax",%progbits
 308              		.align	2
 309              		.global	Cy_MCWDT_GetCountCascaded
 310              		.code	16
 311              		.thumb_func
 312              		.type	Cy_MCWDT_GetCountCascaded, %function
 313              	Cy_MCWDT_GetCountCascaded:
 314              	.LFB71:
 102:Generated_Source\PSoC6\pdl\drivers\peripheral\mcwdt/cy_mcwdt.c **** 
 103:Generated_Source\PSoC6\pdl\drivers\peripheral\mcwdt/cy_mcwdt.c **** 
 104:Generated_Source\PSoC6\pdl\drivers\peripheral\mcwdt/cy_mcwdt.c **** /*******************************************************************************
 105:Generated_Source\PSoC6\pdl\drivers\peripheral\mcwdt/cy_mcwdt.c **** * Function Name: Cy_MCWDT_GetCountCascaded
 106:Generated_Source\PSoC6\pdl\drivers\peripheral\mcwdt/cy_mcwdt.c **** ****************************************************************************//**
 107:Generated_Source\PSoC6\pdl\drivers\peripheral\mcwdt/cy_mcwdt.c **** *
 108:Generated_Source\PSoC6\pdl\drivers\peripheral\mcwdt/cy_mcwdt.c **** *  Reports the current value of combined C1-C0 cascaded counters.
 109:Generated_Source\PSoC6\pdl\drivers\peripheral\mcwdt/cy_mcwdt.c **** *
 110:Generated_Source\PSoC6\pdl\drivers\peripheral\mcwdt/cy_mcwdt.c **** *  \param base
 111:Generated_Source\PSoC6\pdl\drivers\peripheral\mcwdt/cy_mcwdt.c **** *  The base pointer to a structure that describes the registers.
 112:Generated_Source\PSoC6\pdl\drivers\peripheral\mcwdt/cy_mcwdt.c **** *
 113:Generated_Source\PSoC6\pdl\drivers\peripheral\mcwdt/cy_mcwdt.c **** *  \note
 114:Generated_Source\PSoC6\pdl\drivers\peripheral\mcwdt/cy_mcwdt.c **** *  The user must enable both counters, and cascade C0 to C1, 
 115:Generated_Source\PSoC6\pdl\drivers\peripheral\mcwdt/cy_mcwdt.c **** *  before calling this function. C2 is not reported. 
 116:Generated_Source\PSoC6\pdl\drivers\peripheral\mcwdt/cy_mcwdt.c **** *  Instead, to get a 64-bit C2-C1-C0 cascaded value, the
 117:Generated_Source\PSoC6\pdl\drivers\peripheral\mcwdt/cy_mcwdt.c **** *  user must call this function followed by
 118:Generated_Source\PSoC6\pdl\drivers\peripheral\mcwdt/cy_mcwdt.c **** *  Cy_MCWDT_GetCount(base, CY_MCWDT_COUNTER2), and then combine the results.
 119:Generated_Source\PSoC6\pdl\drivers\peripheral\mcwdt/cy_mcwdt.c **** *  \note This function does not return the correct result when it is called 
 120:Generated_Source\PSoC6\pdl\drivers\peripheral\mcwdt/cy_mcwdt.c **** *  after the Cy_MCWDT_Enable() or Cy_MCWDT_ResetCounters() function with 
 121:Generated_Source\PSoC6\pdl\drivers\peripheral\mcwdt/cy_mcwdt.c **** *  a delay less than two lf_clk cycles. The recommended waitUs parameter 
 122:Generated_Source\PSoC6\pdl\drivers\peripheral\mcwdt/cy_mcwdt.c **** *  value is 100 us.
 123:Generated_Source\PSoC6\pdl\drivers\peripheral\mcwdt/cy_mcwdt.c **** *
 124:Generated_Source\PSoC6\pdl\drivers\peripheral\mcwdt/cy_mcwdt.c **** *******************************************************************************/
 125:Generated_Source\PSoC6\pdl\drivers\peripheral\mcwdt/cy_mcwdt.c **** uint32_t Cy_MCWDT_GetCountCascaded(MCWDT_STRUCT_Type const *base)
 126:Generated_Source\PSoC6\pdl\drivers\peripheral\mcwdt/cy_mcwdt.c **** {
 315              		.loc 1 126 0
 316              		.cfi_startproc
 317              		@ args = 0, pretend = 0, frame = 0
ARM GAS  C:\Users\hkmnt\AppData\Local\Temp\cc5kZCpV.s 			page 18


 318              		@ frame_needed = 0, uses_anonymous_args = 0
 319              	.LVL22:
 320 0000 30B5     		push	{r4, r5, lr}
 321              		.cfi_def_cfa_offset 12
 322              		.cfi_offset 4, -12
 323              		.cfi_offset 5, -8
 324              		.cfi_offset 14, -4
 127:Generated_Source\PSoC6\pdl\drivers\peripheral\mcwdt/cy_mcwdt.c ****     uint32_t countVal = MCWDT_STRUCT_MCWDT_CNTLOW(base);
 325              		.loc 1 127 0
 326 0002 4168     		ldr	r1, [r0, #4]
 327              	.LVL23:
 128:Generated_Source\PSoC6\pdl\drivers\peripheral\mcwdt/cy_mcwdt.c ****     uint32_t counter1 = countVal >> MCWDT_STRUCT_MCWDT_CNTLOW_WDT_CTR1_Pos;
 328              		.loc 1 128 0
 329 0004 0C0C     		lsrs	r4, r1, #16
 330              	.LVL24:
 129:Generated_Source\PSoC6\pdl\drivers\peripheral\mcwdt/cy_mcwdt.c ****     uint32_t counter0 = countVal & MCWDT_STRUCT_MCWDT_CNTLOW_WDT_CTR0_Msk;
 331              		.loc 1 129 0
 332 0006 0904     		lsls	r1, r1, #16
 333              	.LVL25:
 334 0008 090C     		lsrs	r1, r1, #16
 335              	.LVL26:
 130:Generated_Source\PSoC6\pdl\drivers\peripheral\mcwdt/cy_mcwdt.c ****     uint32_t match0 = _FLD2VAL(MCWDT_STRUCT_MCWDT_MATCH_WDT_MATCH0, MCWDT_STRUCT_MCWDT_MATCH(base))
 336              		.loc 1 130 0
 337 000a C268     		ldr	r2, [r0, #12]
 338 000c 1204     		lsls	r2, r2, #16
 339 000e 130C     		lsrs	r3, r2, #16
 340              	.LVL27:
 131:Generated_Source\PSoC6\pdl\drivers\peripheral\mcwdt/cy_mcwdt.c ****     uint32_t match1 = _FLD2VAL(MCWDT_STRUCT_MCWDT_MATCH_WDT_MATCH1, MCWDT_STRUCT_MCWDT_MATCH(base))
 341              		.loc 1 131 0
 342 0010 C268     		ldr	r2, [r0, #12]
 343 0012 120C     		lsrs	r2, r2, #16
 344              	.LVL28:
 132:Generated_Source\PSoC6\pdl\drivers\peripheral\mcwdt/cy_mcwdt.c ****     
 133:Generated_Source\PSoC6\pdl\drivers\peripheral\mcwdt/cy_mcwdt.c ****     /* 
 134:Generated_Source\PSoC6\pdl\drivers\peripheral\mcwdt/cy_mcwdt.c ****      * The counter  counter0 goes to zero when it reaches the match0 
 135:Generated_Source\PSoC6\pdl\drivers\peripheral\mcwdt/cy_mcwdt.c ****      * value (c0ClearOnMatch = 1) or reaches the maximum 
 136:Generated_Source\PSoC6\pdl\drivers\peripheral\mcwdt/cy_mcwdt.c ****      * value (c0ClearOnMatch = 0). The counter counter1 increments on 
 137:Generated_Source\PSoC6\pdl\drivers\peripheral\mcwdt/cy_mcwdt.c ****      * the next rising edge of the MCWDT clock after 
 138:Generated_Source\PSoC6\pdl\drivers\peripheral\mcwdt/cy_mcwdt.c ****      * the Clear On Match event takes place. 
 139:Generated_Source\PSoC6\pdl\drivers\peripheral\mcwdt/cy_mcwdt.c ****      * The software increments counter1 to eliminate the case 
 140:Generated_Source\PSoC6\pdl\drivers\peripheral\mcwdt/cy_mcwdt.c ****      * when the both counter0 and counter1 counters have zeros.
 141:Generated_Source\PSoC6\pdl\drivers\peripheral\mcwdt/cy_mcwdt.c ****     */
 142:Generated_Source\PSoC6\pdl\drivers\peripheral\mcwdt/cy_mcwdt.c ****     if (0u == counter0)
 345              		.loc 1 142 0
 346 0014 0029     		cmp	r1, #0
 347 0016 00D1     		bne	.L21
 143:Generated_Source\PSoC6\pdl\drivers\peripheral\mcwdt/cy_mcwdt.c ****     {
 144:Generated_Source\PSoC6\pdl\drivers\peripheral\mcwdt/cy_mcwdt.c ****         counter1++;
 348              		.loc 1 144 0
 349 0018 0134     		adds	r4, r4, #1
 350              	.LVL29:
 351              	.L21:
 145:Generated_Source\PSoC6\pdl\drivers\peripheral\mcwdt/cy_mcwdt.c ****     }
 146:Generated_Source\PSoC6\pdl\drivers\peripheral\mcwdt/cy_mcwdt.c **** 
 147:Generated_Source\PSoC6\pdl\drivers\peripheral\mcwdt/cy_mcwdt.c ****     /* Check if the counter0 is Free running */
 148:Generated_Source\PSoC6\pdl\drivers\peripheral\mcwdt/cy_mcwdt.c ****     if (0u == _FLD2VAL(MCWDT_STRUCT_MCWDT_CONFIG_WDT_CLEAR0, MCWDT_STRUCT_MCWDT_CONFIG(base)))
 352              		.loc 1 148 0
ARM GAS  C:\Users\hkmnt\AppData\Local\Temp\cc5kZCpV.s 			page 19


 353 001a 0569     		ldr	r5, [r0, #16]
 354 001c 6D07     		lsls	r5, r5, #29
 355 001e 06D4     		bmi	.L22
 149:Generated_Source\PSoC6\pdl\drivers\peripheral\mcwdt/cy_mcwdt.c ****     {
 150:Generated_Source\PSoC6\pdl\drivers\peripheral\mcwdt/cy_mcwdt.c ****         /* Save match0 value with the correction when counter0
 151:Generated_Source\PSoC6\pdl\drivers\peripheral\mcwdt/cy_mcwdt.c ****          *  goes to zero when it reaches the match0 value. 
 152:Generated_Source\PSoC6\pdl\drivers\peripheral\mcwdt/cy_mcwdt.c ****         */
 153:Generated_Source\PSoC6\pdl\drivers\peripheral\mcwdt/cy_mcwdt.c ****         countVal = match0 + 1u;
 356              		.loc 1 153 0
 357 0020 5D1C     		adds	r5, r3, #1
 358              	.LVL30:
 154:Generated_Source\PSoC6\pdl\drivers\peripheral\mcwdt/cy_mcwdt.c ****         
 155:Generated_Source\PSoC6\pdl\drivers\peripheral\mcwdt/cy_mcwdt.c ****         if (0u < counter1) 
 359              		.loc 1 155 0
 360 0022 002C     		cmp	r4, #0
 361 0024 00D0     		beq	.L23
 156:Generated_Source\PSoC6\pdl\drivers\peripheral\mcwdt/cy_mcwdt.c ****         {
 157:Generated_Source\PSoC6\pdl\drivers\peripheral\mcwdt/cy_mcwdt.c ****             /* Set match to the maximum value */
 158:Generated_Source\PSoC6\pdl\drivers\peripheral\mcwdt/cy_mcwdt.c ****             match0 = MCWDT_STRUCT_MCWDT_CNTLOW_WDT_CTR0_Msk; 
 362              		.loc 1 158 0
 363 0026 074B     		ldr	r3, .L29
 364              	.LVL31:
 365              	.L23:
 159:Generated_Source\PSoC6\pdl\drivers\peripheral\mcwdt/cy_mcwdt.c ****         }
 160:Generated_Source\PSoC6\pdl\drivers\peripheral\mcwdt/cy_mcwdt.c ****         
 161:Generated_Source\PSoC6\pdl\drivers\peripheral\mcwdt/cy_mcwdt.c ****         if (countVal < counter0) 
 366              		.loc 1 161 0
 367 0028 A942     		cmp	r1, r5
 368 002a 00D9     		bls	.L22
 162:Generated_Source\PSoC6\pdl\drivers\peripheral\mcwdt/cy_mcwdt.c ****         {
 163:Generated_Source\PSoC6\pdl\drivers\peripheral\mcwdt/cy_mcwdt.c ****             /* Decrement counter1 when the counter0 is great than match0 value */
 164:Generated_Source\PSoC6\pdl\drivers\peripheral\mcwdt/cy_mcwdt.c ****             counter1--;
 369              		.loc 1 164 0
 370 002c 013C     		subs	r4, r4, #1
 371              	.LVL32:
 372              	.L22:
 165:Generated_Source\PSoC6\pdl\drivers\peripheral\mcwdt/cy_mcwdt.c ****         }
 166:Generated_Source\PSoC6\pdl\drivers\peripheral\mcwdt/cy_mcwdt.c ****     }
 167:Generated_Source\PSoC6\pdl\drivers\peripheral\mcwdt/cy_mcwdt.c **** 
 168:Generated_Source\PSoC6\pdl\drivers\peripheral\mcwdt/cy_mcwdt.c ****     /* Add the correction to counter0 */
 169:Generated_Source\PSoC6\pdl\drivers\peripheral\mcwdt/cy_mcwdt.c ****     counter0 += counter1;
 373              		.loc 1 169 0
 374 002e 6118     		adds	r1, r4, r1
 375              	.LVL33:
 170:Generated_Source\PSoC6\pdl\drivers\peripheral\mcwdt/cy_mcwdt.c ****     
 171:Generated_Source\PSoC6\pdl\drivers\peripheral\mcwdt/cy_mcwdt.c ****     /* Set counter1 match value to 65535 when the counter1 is free running */
 172:Generated_Source\PSoC6\pdl\drivers\peripheral\mcwdt/cy_mcwdt.c ****     if (0u == _FLD2VAL(MCWDT_STRUCT_MCWDT_CONFIG_WDT_CLEAR1, MCWDT_STRUCT_MCWDT_CONFIG(base)))
 376              		.loc 1 172 0
 377 0030 0069     		ldr	r0, [r0, #16]
 378              	.LVL34:
 379 0032 4005     		lsls	r0, r0, #21
 380 0034 00D4     		bmi	.L24
 173:Generated_Source\PSoC6\pdl\drivers\peripheral\mcwdt/cy_mcwdt.c ****     {
 174:Generated_Source\PSoC6\pdl\drivers\peripheral\mcwdt/cy_mcwdt.c ****         match1 = MCWDT_STRUCT_MCWDT_CNTLOW_WDT_CTR1_Msk >> MCWDT_STRUCT_MCWDT_CNTLOW_WDT_CTR1_Pos;
 381              		.loc 1 174 0
 382 0036 034A     		ldr	r2, .L29
 383              	.LVL35:
ARM GAS  C:\Users\hkmnt\AppData\Local\Temp\cc5kZCpV.s 			page 20


 384              	.L24:
 175:Generated_Source\PSoC6\pdl\drivers\peripheral\mcwdt/cy_mcwdt.c ****     }
 176:Generated_Source\PSoC6\pdl\drivers\peripheral\mcwdt/cy_mcwdt.c **** 
 177:Generated_Source\PSoC6\pdl\drivers\peripheral\mcwdt/cy_mcwdt.c ****     /* Check for overflow */
 178:Generated_Source\PSoC6\pdl\drivers\peripheral\mcwdt/cy_mcwdt.c ****     if (match1 < counter1)
 385              		.loc 1 178 0
 386 0038 9442     		cmp	r4, r2
 387 003a 00D9     		bls	.L25
 179:Generated_Source\PSoC6\pdl\drivers\peripheral\mcwdt/cy_mcwdt.c ****     {
 180:Generated_Source\PSoC6\pdl\drivers\peripheral\mcwdt/cy_mcwdt.c ****         counter1 = 0u;
 388              		.loc 1 180 0
 389 003c 0024     		movs	r4, #0
 390              	.LVL36:
 391              	.L25:
 181:Generated_Source\PSoC6\pdl\drivers\peripheral\mcwdt/cy_mcwdt.c ****     }
 182:Generated_Source\PSoC6\pdl\drivers\peripheral\mcwdt/cy_mcwdt.c **** 
 183:Generated_Source\PSoC6\pdl\drivers\peripheral\mcwdt/cy_mcwdt.c ****     /* Calculate the combined value for C1-C0 cascaded counters */
 184:Generated_Source\PSoC6\pdl\drivers\peripheral\mcwdt/cy_mcwdt.c ****     countVal = counter0 + (counter1 * match0);
 392              		.loc 1 184 0
 393 003e 6343     		muls	r3, r4
 394              	.LVL37:
 395 0040 C818     		adds	r0, r1, r3
 396              	.LVL38:
 185:Generated_Source\PSoC6\pdl\drivers\peripheral\mcwdt/cy_mcwdt.c **** 
 186:Generated_Source\PSoC6\pdl\drivers\peripheral\mcwdt/cy_mcwdt.c ****     return (countVal);
 187:Generated_Source\PSoC6\pdl\drivers\peripheral\mcwdt/cy_mcwdt.c **** }
 397              		.loc 1 187 0
 398              		@ sp needed
 399              	.LVL39:
 400 0042 30BD     		pop	{r4, r5, pc}
 401              	.L30:
 402              		.align	2
 403              	.L29:
 404 0044 FFFF0000 		.word	65535
 405              		.cfi_endproc
 406              	.LFE71:
 407              		.size	Cy_MCWDT_GetCountCascaded, .-Cy_MCWDT_GetCountCascaded
 408              		.section	.rodata.str1.4,"aMS",%progbits,1
 409              		.align	2
 410              	.LC0:
 411 0000 47656E65 		.ascii	"Generated_Source\\PSoC6\\pdl\\drivers\\peripheral\\"
 411      72617465 
 411      645F536F 
 411      75726365 
 411      5C50536F 
 412 002e 6D637764 		.ascii	"mcwdt\\cy_mcwdt.c\000"
 412      745C6379 
 412      5F6D6377 
 412      64742E63 
 412      00
 413              		.text
 414              	.Letext0:
 415              		.file 3 "c:\\program files (x86)\\cypress\\psoc creator\\4.4\\psoc creator\\import\\gnu\\arm\\5.4.
 416              		.file 4 "c:\\program files (x86)\\cypress\\psoc creator\\4.4\\psoc creator\\import\\gnu\\arm\\5.4.
 417              		.file 5 "Generated_Source\\PSoC6\\pdl\\devices/psoc6/include/ip/cyip_srss.h"
 418              		.file 6 "Generated_Source\\PSoC6\\pdl\\devices/psoc6/include/psoc6_01_config.h"
 419              		.file 7 "Generated_Source\\PSoC6\\pdl\\drivers/peripheral/syslib/cy_syslib.h"
ARM GAS  C:\Users\hkmnt\AppData\Local\Temp\cc5kZCpV.s 			page 21

